

Microchip Technology PIC18 LITE Macro Assembler V2.00 build -1524193055 
                                                                                               Tue Jan 29 18:24:32 2019

Microchip Technology Omniscient Code Generator v2.00 (Free mode) build 20180527130849
     1                           	processor	18F47K42
     2                           	fnconf	rparam,??,?,0
     3                           	opt	pw 120
     4                           	opt	lm
     5                           	psect	idataCOMRAM,global,class=CODE,delta=1,noexec
     6                           	psect	idataBANK0,global,class=CODE,delta=1,noexec
     7                           	psect	mediumconst,global,reloc=2,class=MEDIUMCONST,delta=1,noexec
     8                           	psect	cinit,global,reloc=2,class=CODE,delta=1
     9                           	psect	bssCOMRAM,global,class=COMRAM,space=1,delta=1,noexec
    10                           	psect	dataCOMRAM,global,class=COMRAM,space=1,delta=1,noexec
    11                           	psect	bssBANK0,global,class=BANK0,space=1,delta=1,lowdata,noexec
    12                           	psect	dataBANK0,global,class=BANK0,space=1,delta=1,lowdata,noexec
    13                           	psect	cstackBANK0,global,class=BANK0,space=1,delta=1,noexec
    14                           	psect	cstackCOMRAM,global,class=COMRAM,space=1,delta=1,noexec
    15                           	psect	text0,global,reloc=2,class=CODE,delta=1
    16                           	psect	text1,global,reloc=2,class=CODE,delta=1
    17                           	psect	text2,global,reloc=2,class=CODE,delta=1,group=2
    18                           	psect	text3,global,reloc=2,class=CODE,delta=1
    19                           	psect	text4,global,reloc=2,class=CODE,delta=1
    20                           	psect	text5,global,reloc=2,class=CODE,delta=1
    21                           	psect	text6,global,reloc=2,class=CODE,delta=1
    22                           	psect	text7,global,reloc=2,class=CODE,delta=1
    23                           	psect	text8,global,reloc=2,class=CODE,delta=1
    24                           	psect	text9,global,reloc=2,class=CODE,delta=1
    25                           	psect	text10,global,reloc=2,class=CODE,delta=1
    26                           	psect	text11,global,reloc=2,class=CODE,delta=1
    27                           	psect	text12,global,reloc=2,class=CODE,delta=1
    28                           	psect	text13,global,reloc=2,class=CODE,delta=1
    29                           	psect	text14,global,reloc=2,class=CODE,delta=1
    30                           	psect	text15,global,reloc=2,class=CODE,delta=1
    31                           	psect	text16,global,reloc=2,class=CODE,delta=1
    32                           	psect	text17,global,reloc=2,class=CODE,delta=1
    33                           	psect	text18,global,reloc=2,class=CODE,delta=1
    34                           	psect	text19,global,reloc=2,class=CODE,delta=1
    35                           	psect	text20,global,reloc=2,class=CODE,delta=1
    36                           	psect	text21,global,reloc=2,class=CODE,delta=1
    37                           	psect	text22,global,reloc=2,class=CODE,delta=1
    38                           	psect	text23,global,reloc=2,class=CODE,delta=1
    39                           	psect	text24,global,reloc=2,class=CODE,delta=1
    40                           	psect	text25,global,reloc=2,class=CODE,delta=1
    41                           	psect	text26,global,reloc=2,class=CODE,delta=1
    42                           	psect	text27,global,reloc=2,class=CODE,delta=1
    43                           	psect	text28,global,reloc=2,class=CODE,delta=1
    44                           	psect	text29,global,reloc=2,class=CODE,delta=1
    45                           	psect	text30,global,reloc=2,class=CODE,delta=1
    46                           	psect	text31,global,reloc=2,class=CODE,delta=1
    47                           	psect	text32,global,reloc=2,class=CODE,delta=1
    48                           	psect	text33,global,reloc=2,class=CODE,delta=1
    49                           	psect	text34,global,reloc=2,class=CODE,delta=1
    50                           	psect	text35,global,reloc=2,class=CODE,delta=1
    51                           	psect	text36,global,reloc=2,class=CODE,delta=1
    52                           	psect	text37,global,reloc=2,class=CODE,delta=1
    53                           	psect	text38,global,reloc=2,class=CODE,delta=1,group=2
    54                           	psect	text39,global,reloc=2,class=CODE,delta=1
    55                           	psect	text40,global,reloc=2,class=CODE,delta=1
    56                           	psect	text41,global,reloc=2,class=CODE,delta=1
    57                           	psect	text42,global,reloc=2,class=CODE,delta=1
    58                           	psect	text43,global,reloc=2,class=CODE,delta=1
    59                           	psect	text44,global,reloc=2,class=CODE,delta=1
    60                           	psect	text45,global,reloc=2,class=CODE,delta=1
    61                           	psect	text46,global,reloc=2,class=CODE,delta=1
    62                           	psect	text47,global,reloc=2,class=CODE,delta=1
    63                           	psect	text48,global,reloc=2,class=CODE,delta=1
    64                           	psect	text49,global,reloc=2,class=CODE,delta=1
    65                           	psect	text50,global,reloc=2,class=CODE,delta=1
    66                           	psect	text51,global,reloc=2,class=CODE,delta=1
    67                           	psect	text52,global,reloc=2,class=CODE,delta=1
    68                           	psect	text53,global,reloc=2,class=CODE,delta=1
    69                           	psect	text54,global,reloc=2,class=CODE,delta=1
    70                           	psect	text55,global,reloc=2,class=CODE,delta=1
    71                           	psect	text56,global,reloc=2,class=CODE,delta=1
    72                           	psect	text57,global,reloc=2,class=CODE,delta=1
    73                           	psect	text58,global,reloc=2,class=CODE,delta=1
    74                           	psect	text59,global,reloc=2,class=CODE,delta=1
    75                           	psect	text60,global,reloc=2,class=CODE,delta=1
    76                           	psect	text61,global,reloc=2,class=CODE,delta=1
    77                           	psect	text62,global,reloc=2,class=CODE,delta=1
    78                           	psect	text63,global,reloc=2,class=CODE,delta=1
    79                           	psect	text64,global,reloc=2,class=CODE,delta=1
    80                           	psect	ivt0x8,global,reloc=2,class=CODE,delta=1,noexec,keep,optim=
    81                           	psect	intsave_regs,global,class=BIGRAM,space=1,delta=1,noexec
    82                           	psect	rparam,global,class=COMRAM,space=1,delta=1,noexec
    83  0000                     
    84                           ; Version 2.00
    85                           ; Generated 27/05/2018 GMT
    86                           ; 
    87                           ; Copyright © 2018, Microchip Technology Inc. and its subsidiaries ("Microchip")
    88                           ; All rights reserved.
    89                           ; 
    90                           ; This software is developed by Microchip Technology Inc. and its subsidiaries ("Microch
      +                          ip").
    91                           ; 
    92                           ; Redistribution and use in source and binary forms, with or without modification, are
    93                           ; permitted provided that the following conditions are met:
    94                           ; 
    95                           ;     1. Redistributions of source code must retain the above copyright notice, this lis
      +                          t of
    96                           ;        conditions and the following disclaimer.
    97                           ; 
    98                           ;     2. Redistributions in binary form must reproduce the above copyright notice, this 
      +                          list
    99                           ;        of conditions and the following disclaimer in the documentation and/or other
   100                           ;        materials provided with the distribution.
   101                           ; 
   102                           ;     3. Microchip's name may not be used to endorse or promote products derived from th
      +                          is
   103                           ;        software without specific prior written permission.
   104                           ; 
   105                           ; THIS SOFTWARE IS PROVIDED BY MICROCHIP "AS IS" AND ANY EXPRESS OR IMPLIED WARRANTIES,
   106                           ; INCLUDING, BUT NOT LIMITED TO, THE IMPLIED WARRANTIES OF MERCHANTABILITY AND FITNESS F
      +                          OR
   107                           ; PURPOSE ARE DISCLAIMED.  IN NO EVENT SHALL MICROCHIP BE LIABLE FOR ANY DIRECT, INDIREC
      +                          T,
   108                           ; INCIDENTAL, SPECIAL, EXEMPLARY, OR CONSEQUENTIAL DAMAGES (INCLUDING BUT NOT LIMITED TO
   109                           ; PROCUREMENT OF SUBSTITUTE GOODS OR SERVICES; LOSS OF USE, DATA OR PROFITS; OR BUSINESS
   110                           ; INTERRUPTION) HOWSOEVER CAUSED AND ON ANY THEORY OF LIABILITY, WHETHER IN CONTRACT, ST
      +                          RICT
   111                           ; LIABILITY, OR TORT (INCLUDING NEGLIGENCE OR OTHERWISE) ARISING IN ANY WAY OUT OF THE U
      +                          SE OF
   112                           ; THIS SOFTWARE, EVEN IF ADVISED OF THE POSSIBILITY OF SUCH DAMAGE.
   113                           ; 
   114                           ; 
   115                           ; Code-generator required, PIC18F47K42 Definitions
   116                           ; 
   117                           ; SFR Addresses
   118  0000                     
   119                           	psect	idataCOMRAM
   120  0132FA                     __pidataCOMRAM:
   121                           	opt stack 0
   122                           
   123                           ;initializer for _numCountdownNowTime
   124  0132FA  0000               	dw	0
   125  0132FC  0001               	dw	1
   126  0132FE  0000               	dw	0
   127  013300  0000               	dw	0
   128  013302  0000               	dw	0
   129  013304  0000               	dw	0
   130                           
   131                           ;initializer for _gameMode
   132  013306  0001               	dw	1
   133                           
   134                           ;initializer for _TRUE
   135  013308  0001               	dw	1
   136                           
   137                           ;initializer for _ON
   138  01330A  0001               	dw	1
   139                           
   140                           ;initializer for _cursorBlinkMem
   141  01330C  0001               	dw	1
   142                           
   143                           ;initializer for _countdownBeepsMem
   144  01330E  0001               	dw	1
   145                           
   146                           ;initializer for _countdownBeeps
   147  013310  0001               	dw	1
   148                           
   149                           ;initializer for _keyBeeps
   150  013312  0001               	dw	1
   151                           
   152                           ;initializer for _exploded
   153  013314  0003               	dw	3
   154                           
   155                           ;initializer for _disarmed
   156  013316  0002               	dw	2
   157                           
   158                           ;initializer for _armed
   159  013318  0001               	dw	1
   160                           
   161                           ;initializer for _alarmMode
   162  01331A  01                 	db	1
   163                           
   164                           	psect	idataBANK0
   165  01324A                     __pidataBANK0:
   166                           	opt stack 0
   167                           
   168                           ;initializer for _numCountdownInitialTime
   169  01324A  0000               	dw	0
   170  01324C  0001               	dw	1
   171  01324E  0000               	dw	0
   172  013250  0000               	dw	0
   173  013252  0000               	dw	0
   174  013254  0000               	dw	0
   175                           
   176                           ;initializer for _strCountdownInitialTime
   177  013256  30                 	db	48
   178  013257  31                 	db	49
   179  013258  3A                 	db	58
   180  013259  30                 	db	48
   181  01325A  30                 	db	48
   182  01325B  3A                 	db	58
   183  01325C  30                 	db	48
   184  01325D  30                 	db	48
   185                           
   186                           ;initializer for _keyBeepsMem
   187  01325E  0001               	dw	1
   188                           
   189                           ;initializer for _strCountdownNowTime
   190  013260  30                 	db	48
   191  013261  31                 	db	49
   192  013262  3A                 	db	58
   193  013263  30                 	db	48
   194  013264  30                 	db	48
   195  013265  3A                 	db	58
   196  013266  30                 	db	48
   197  013267  30                 	db	48
   198                           
   199                           ;initializer for _password
   200  013268  31                 	db	49
   201  013269  31                 	db	49
   202  01326A  31                 	db	49
   203  01326B  31                 	db	49
   204  01326C  31                 	db	49
   205  01326D  31                 	db	49
   206  01326E  31                 	db	49
   207  01326F  00                 	db	0
   208  0000                     _PIE0bits	set	14736
   209  0000                     _PMD7	set	14791
   210  0000                     _PMD6	set	14790
   211  0000                     _PMD5	set	14789
   212  0000                     _PMD4	set	14788
   213  0000                     _PMD3	set	14787
   214  0000                     _PMD2	set	14786
   215  0000                     _PMD1	set	14785
   216  0000                     _PMD0	set	14784
   217  0000                     _OSCTUNE	set	14814
   218  0000                     _OSCFRQ	set	14815
   219  0000                     _OSCEN	set	14813
   220  0000                     _OSCCON3	set	14811
   221  0000                     _OSCCON1	set	14809
   222  0000                     _IPR3bits	set	14723
   223  0000                     _PIE3bits	set	14739
   224  0000                     _PIR3bits	set	14755
   225  0000                     _PIR4bits	set	14756
   226  0000                     _PIE4bits	set	14740
   227  0000                     _RC1PPS	set	14865
   228  0000                     _U1RXPPS	set	15077
   229  0000                     _ODCOND	set	14962
   230  0000                     _ODCONA	set	14914
   231  0000                     _WPUA	set	14913
   232  0000                     _WPUD	set	14961
   233  0000                     _ANSELD	set	14960
   234  0000                     _ANSELBbits	set	14928
   235  0000                     _RA1PPS	set	14849
   236  0000                     _U1TXB	set	15850
   237  0000                     _U1BRGL	set	15861
   238  0000                     _U1BRGH	set	15862
   239  0000                     _U1CON1bits	set	15859
   240  0000                     _U1CON0bits	set	15858
   241  0000                     _CCPTMRS1bits	set	16223
   242  0000                     _TRISCbits	set	16324
   243  0000                     _LATC	set	16316
   244  0000                     _LATB	set	16315
   245  0000                     _LATA	set	16314
   246  0000                     _LATE	set	16318
   247  0000                     _INTCON0bits	set	16338
   248  0000                     _LATD	set	16317
   249  0000                     _LATCbits	set	16316
   250  0000                     _TRISC	set	16324
   251  0000                     _TRISD	set	16325
   252  0000                     _PORTBbits	set	16331
   253  0000                     _LATBbits	set	16315
   254  0000                     _TRISBbits	set	16323
   255  0000                     _T0CON1bits	set	16313
   256  0000                     _TMR1L	set	16304
   257  0000                     _TMR1H	set	16305
   258  0000                     _TMR0L	set	16310
   259  0000                     _TMR0H	set	16311
   260  0000                     _T0CON0bits	set	16312
   261  0000                     _T1CONbits	set	16306
   262  0000                     _LATAbits	set	16314
   263  0000                     _T1CLK	set	16309
   264  0000                     _T1CON	set	16306
   265  0000                     _T2CONbits	set	16300
   266  0000                     _T2PR	set	16299
   267  0000                     _T2CLKbits	set	16302
   268  0000                     _PWM5CONbits	set	16238
   269  0000                     _PWM5DCL	set	16236
   270  0000                     _PWM5DCH	set	16237
   271  0000                     _TRISAbits	set	16322
   272                           
   273                           	psect	mediumconst
   274  00FED0                     __pmediumconst:
   275                           	opt stack 0
   276  00FED0  00                 	db	0
   277  00FED1                     STR_29:
   278  00FED1  52                 	db	82	;'R'
   279  00FED2  45                 	db	69	;'E'
   280  00FED3  53                 	db	83	;'S'
   281  00FED4  45                 	db	69	;'E'
   282  00FED5  54                 	db	84	;'T'
   283  00FED6  54                 	db	84	;'T'
   284  00FED7  49                 	db	73	;'I'
   285  00FED8  4E                 	db	78	;'N'
   286  00FED9  47                 	db	71	;'G'
   287  00FEDA  20                 	db	32
   288  00FEDB  20                 	db	32
   289  00FEDC  20                 	db	32
   290  00FEDD  20                 	db	32
   291  00FEDE  20                 	db	32
   292  00FEDF  20                 	db	32
   293  00FEE0  20                 	db	32
   294  00FEE1  00                 	db	0
   295  00FEE2                     STR_20:
   296  00FEE2  43                 	db	67	;'C'
   297  00FEE3  75                 	db	117	;'u'
   298  00FEE4  72                 	db	114	;'r'
   299  00FEE5  73                 	db	115	;'s'
   300  00FEE6  6F                 	db	111	;'o'
   301  00FEE7  72                 	db	114	;'r'
   302  00FEE8  20                 	db	32
   303  00FEE9  4F                 	db	79	;'O'
   304  00FEEA  4E                 	db	78	;'N'
   305  00FEEB  20                 	db	32
   306  00FEEC  20                 	db	32
   307  00FEED  20                 	db	32
   308  00FEEE  20                 	db	32
   309  00FEEF  20                 	db	32
   310  00FEF0  20                 	db	32
   311  00FEF1  20                 	db	32
   312  00FEF2  00                 	db	0
   313  00FEF3                     STR_21:
   314  00FEF3  43                 	db	67	;'C'
   315  00FEF4  75                 	db	117	;'u'
   316  00FEF5  72                 	db	114	;'r'
   317  00FEF6  73                 	db	115	;'s'
   318  00FEF7  6F                 	db	111	;'o'
   319  00FEF8  72                 	db	114	;'r'
   320  00FEF9  20                 	db	32
   321  00FEFA  4F                 	db	79	;'O'
   322  00FEFB  46                 	db	70	;'F'
   323  00FEFC  46                 	db	70	;'F'
   324  00FEFD  20                 	db	32
   325  00FEFE  20                 	db	32
   326  00FEFF  20                 	db	32
   327  00FF00  20                 	db	32
   328  00FF01  20                 	db	32
   329  00FF02  20                 	db	32
   330  00FF03  00                 	db	0
   331  00FF04                     STR_18:
   332  00FF04  4B                 	db	75	;'K'
   333  00FF05  65                 	db	101	;'e'
   334  00FF06  79                 	db	121	;'y'
   335  00FF07  20                 	db	32
   336  00FF08  42                 	db	66	;'B'
   337  00FF09  65                 	db	101	;'e'
   338  00FF0A  65                 	db	101	;'e'
   339  00FF0B  70                 	db	112	;'p'
   340  00FF0C  20                 	db	32
   341  00FF0D  4F                 	db	79	;'O'
   342  00FF0E  4E                 	db	78	;'N'
   343  00FF0F  20                 	db	32
   344  00FF10  20                 	db	32
   345  00FF11  20                 	db	32
   346  00FF12  20                 	db	32
   347  00FF13  20                 	db	32
   348  00FF14  00                 	db	0
   349  00FF15                     STR_15:
   350  00FF15  4E                 	db	78	;'N'
   351  00FF16  45                 	db	69	;'E'
   352  00FF17  57                 	db	87	;'W'
   353  00FF18  20                 	db	32
   354  00FF19  50                 	db	80	;'P'
   355  00FF1A  41                 	db	65	;'A'
   356  00FF1B  53                 	db	83	;'S'
   357  00FF1C  53                 	db	83	;'S'
   358  00FF1D  57                 	db	87	;'W'
   359  00FF1E  4F                 	db	79	;'O'
   360  00FF1F  52                 	db	82	;'R'
   361  00FF20  44                 	db	68	;'D'
   362  00FF21  20                 	db	32
   363  00FF22  20                 	db	32
   364  00FF23  20                 	db	32
   365  00FF24  20                 	db	32
   366  00FF25  00                 	db	0
   367  00FF26                     STR_28:
   368  00FF26  54                 	db	84	;'T'
   369  00FF27  49                 	db	73	;'I'
   370  00FF28  4D                 	db	77	;'M'
   371  00FF29  45                 	db	69	;'E'
   372  00FF2A  52                 	db	82	;'R'
   373  00FF2B  20                 	db	32
   374  00FF2C  43                 	db	67	;'C'
   375  00FF2D  48                 	db	72	;'H'
   376  00FF2E  41                 	db	65	;'A'
   377  00FF2F  4E                 	db	78	;'N'
   378  00FF30  47                 	db	71	;'G'
   379  00FF31  45                 	db	69	;'E'
   380  00FF32  20                 	db	32
   381  00FF33  20                 	db	32
   382  00FF34  20                 	db	32
   383  00FF35  20                 	db	32
   384  00FF36  00                 	db	0
   385  00FF37                     STR_19:
   386  00FF37  4B                 	db	75	;'K'
   387  00FF38  65                 	db	101	;'e'
   388  00FF39  79                 	db	121	;'y'
   389  00FF3A  20                 	db	32
   390  00FF3B  42                 	db	66	;'B'
   391  00FF3C  65                 	db	101	;'e'
   392  00FF3D  65                 	db	101	;'e'
   393  00FF3E  70                 	db	112	;'p'
   394  00FF3F  20                 	db	32
   395  00FF40  4F                 	db	79	;'O'
   396  00FF41  46                 	db	70	;'F'
   397  00FF42  46                 	db	70	;'F'
   398  00FF43  20                 	db	32
   399  00FF44  20                 	db	32
   400  00FF45  20                 	db	32
   401  00FF46  20                 	db	32
   402  00FF47  00                 	db	0
   403  00FF48                     STR_24:
   404  00FF48  4E                 	db	78	;'N'
   405  00FF49  4F                 	db	79	;'O'
   406  00FF4A  54                 	db	84	;'T'
   407  00FF4B  20                 	db	32
   408  00FF4C  41                 	db	65	;'A'
   409  00FF4D  56                 	db	86	;'V'
   410  00FF4E  41                 	db	65	;'A'
   411  00FF4F  49                 	db	73	;'I'
   412  00FF50  4C                 	db	76	;'L'
   413  00FF51  41                 	db	65	;'A'
   414  00FF52  42                 	db	66	;'B'
   415  00FF53  4C                 	db	76	;'L'
   416  00FF54  45                 	db	69	;'E'
   417  00FF55  20                 	db	32
   418  00FF56  20                 	db	32
   419  00FF57  20                 	db	32
   420  00FF58  00                 	db	0
   421  00FF59                     STR_22:
   422  00FF59  54                 	db	84	;'T'
   423  00FF5A  69                 	db	105	;'i'
   424  00FF5B  6D                 	db	109	;'m'
   425  00FF5C  65                 	db	101	;'e'
   426  00FF5D  72                 	db	114	;'r'
   427  00FF5E  20                 	db	32
   428  00FF5F  42                 	db	66	;'B'
   429  00FF60  65                 	db	101	;'e'
   430  00FF61  65                 	db	101	;'e'
   431  00FF62  70                 	db	112	;'p'
   432  00FF63  20                 	db	32
   433  00FF64  4F                 	db	79	;'O'
   434  00FF65  4E                 	db	78	;'N'
   435  00FF66  20                 	db	32
   436  00FF67  20                 	db	32
   437  00FF68  20                 	db	32
   438  00FF69  00                 	db	0
   439  00FF6A                     STR_23:
   440  00FF6A  54                 	db	84	;'T'
   441  00FF6B  69                 	db	105	;'i'
   442  00FF6C  6D                 	db	109	;'m'
   443  00FF6D  65                 	db	101	;'e'
   444  00FF6E  72                 	db	114	;'r'
   445  00FF6F  20                 	db	32
   446  00FF70  42                 	db	66	;'B'
   447  00FF71  65                 	db	101	;'e'
   448  00FF72  65                 	db	101	;'e'
   449  00FF73  70                 	db	112	;'p'
   450  00FF74  20                 	db	32
   451  00FF75  4F                 	db	79	;'O'
   452  00FF76  46                 	db	70	;'F'
   453  00FF77  46                 	db	70	;'F'
   454  00FF78  20                 	db	32
   455  00FF79  20                 	db	32
   456  00FF7A  00                 	db	0
   457  00FF7B                     STR_14:
   458  00FF7B  50                 	db	80	;'P'
   459  00FF7C  41                 	db	65	;'A'
   460  00FF7D  53                 	db	83	;'S'
   461  00FF7E  53                 	db	83	;'S'
   462  00FF7F  57                 	db	87	;'W'
   463  00FF80  4F                 	db	79	;'O'
   464  00FF81  52                 	db	82	;'R'
   465  00FF82  44                 	db	68	;'D'
   466  00FF83  20                 	db	32
   467  00FF84  43                 	db	67	;'C'
   468  00FF85  48                 	db	72	;'H'
   469  00FF86  41                 	db	65	;'A'
   470  00FF87  4E                 	db	78	;'N'
   471  00FF88  47                 	db	71	;'G'
   472  00FF89  45                 	db	69	;'E'
   473  00FF8A  20                 	db	32
   474  00FF8B  00                 	db	0
   475  00FF8C                     STR_3:
   476  00FF8C  20                 	db	32
   477  00FF8D  20                 	db	32
   478  00FF8E  20                 	db	32
   479  00FF8F  20                 	db	32
   480  00FF90  20                 	db	32
   481  00FF91  20                 	db	32
   482  00FF92  20                 	db	32
   483  00FF93  20                 	db	32
   484  00FF94  20                 	db	32
   485  00FF95  20                 	db	32
   486  00FF96  20                 	db	32
   487  00FF97  20                 	db	32
   488  00FF98  20                 	db	32
   489  00FF99  20                 	db	32
   490  00FF9A  20                 	db	32
   491  00FF9B  20                 	db	32
   492  00FF9C  00                 	db	0
   493  00FF9D                     STR_9:
   494  00FF9D  50                 	db	80	;'P'
   495  00FF9E  41                 	db	65	;'A'
   496  00FF9F  53                 	db	83	;'S'
   497  00FFA0  53                 	db	83	;'S'
   498  00FFA1  57                 	db	87	;'W'
   499  00FFA2  4F                 	db	79	;'O'
   500  00FFA3  52                 	db	82	;'R'
   501  00FFA4  44                 	db	68	;'D'
   502  00FFA5  3A                 	db	58	;':'
   503  00FFA6  20                 	db	32
   504  00FFA7  20                 	db	32
   505  00FFA8  20                 	db	32
   506  00FFA9  20                 	db	32
   507  00FFAA  20                 	db	32
   508  00FFAB  20                 	db	32
   509  00FFAC  20                 	db	32
   510  00FFAD  00                 	db	0
   511  00FFAE                     STR_2:
   512  00FFAE  20                 	db	32
   513  00FFAF  20                 	db	32
   514  00FFB0  20                 	db	32
   515  00FFB1  20                 	db	32
   516  00FFB2  45                 	db	69	;'E'
   517  00FFB3  58                 	db	88	;'X'
   518  00FFB4  50                 	db	80	;'P'
   519  00FFB5  4C                 	db	76	;'L'
   520  00FFB6  4F                 	db	79	;'O'
   521  00FFB7  44                 	db	68	;'D'
   522  00FFB8  45                 	db	69	;'E'
   523  00FFB9  44                 	db	68	;'D'
   524  00FFBA  20                 	db	32
   525  00FFBB  20                 	db	32
   526  00FFBC  20                 	db	32
   527  00FFBD  20                 	db	32
   528  00FFBE  00                 	db	0
   529  00FFBF                     STR_17:
   530  00FFBF  54                 	db	84	;'T'
   531  00FFC0  49                 	db	73	;'I'
   532  00FFC1  4D                 	db	77	;'M'
   533  00FFC2  45                 	db	69	;'E'
   534  00FFC3  52                 	db	82	;'R'
   535  00FFC4  20                 	db	32
   536  00FFC5  43                 	db	67	;'C'
   537  00FFC6  48                 	db	72	;'H'
   538  00FFC7  41                 	db	65	;'A'
   539  00FFC8  4E                 	db	78	;'N'
   540  00FFC9  47                 	db	71	;'G'
   541  00FFCA  45                 	db	69	;'E'
   542  00FFCB  00                 	db	0
   543  00FFCC                     STR_12:
   544  00FFCC  53                 	db	83	;'S'
   545  00FFCD  54                 	db	84	;'T'
   546  00FFCE  4F                 	db	79	;'O'
   547  00FFCF  50                 	db	80	;'P'
   548  00FFD0  45                 	db	69	;'E'
   549  00FFD1  44                 	db	68	;'D'
   550  00FFD2  20                 	db	32
   551  00FFD3  20                 	db	32
   552  00FFD4  00                 	db	0
   553  00FFD5                     STR_10:
   554  00FFD5  53                 	db	83	;'S'
   555  00FFD6  54                 	db	84	;'T'
   556  00FFD7  41                 	db	65	;'A'
   557  00FFD8  4E                 	db	78	;'N'
   558  00FFD9  42                 	db	66	;'B'
   559  00FFDA  59                 	db	89	;'Y'
   560  00FFDB  20                 	db	32
   561  00FFDC  20                 	db	32
   562  00FFDD  00                 	db	0
   563  00FFDE                     STR_7:
   564  00FFDE  44                 	db	68	;'D'
   565  00FFDF  45                 	db	69	;'E'
   566  00FFE0  43                 	db	67	;'C'
   567  00FFE1  4C                 	db	76	;'L'
   568  00FFE2  49                 	db	73	;'I'
   569  00FFE3  4E                 	db	78	;'N'
   570  00FFE4  45                 	db	69	;'E'
   571  00FFE5  44                 	db	68	;'D'
   572  00FFE6  00                 	db	0
   573  00FFE7                     STR_4:
   574  00FFE7  41                 	db	65	;'A'
   575  00FFE8  43                 	db	67	;'C'
   576  00FFE9  43                 	db	67	;'C'
   577  00FFEA  45                 	db	69	;'E'
   578  00FFEB  50                 	db	80	;'P'
   579  00FFEC  54                 	db	84	;'T'
   580  00FFED  45                 	db	69	;'E'
   581  00FFEE  44                 	db	68	;'D'
   582  00FFEF  00                 	db	0
   583  00FFF0                     STR_11:
   584  00FFF0  41                 	db	65	;'A'
   585  00FFF1  52                 	db	82	;'R'
   586  00FFF2  4D                 	db	77	;'M'
   587  00FFF3  45                 	db	69	;'E'
   588  00FFF4  44                 	db	68	;'D'
   589  00FFF5  20                 	db	32
   590  00FFF6  00                 	db	0
   591  00FFF7                     STR_1:
   592  00FFF7  44                 	db	68	;'D'
   593  00FFF8  4F                 	db	79	;'O'
   594  00FFF9  4E                 	db	78	;'N'
   595  00FFFA  45                 	db	69	;'E'
   596  00FFFB  20                 	db	32
   597  00FFFC  20                 	db	32
   598  00FFFD  00                 	db	0
   599  0000                     
   600                           ; #config settings
   601  00FFFE  00                 	db	0	; dummy byte at the end
   602  0000                     
   603                           	psect	cinit
   604  012C86                     __pcinit:
   605                           	opt stack 0
   606  012C86                     start_initialization:
   607                           	opt stack 0
   608  012C86                     __initialization:
   609                           	opt stack 0
   610                           
   611                           ; Initialize objects allocated to BANK0 (38 bytes)
   612                           ; load TBLPTR registers with __pidataBANK0
   613  012C86  0E4A               	movlw	low __pidataBANK0
   614  012C88  6EF6               	movwf	16374,c
   615  012C8A  0E32               	movlw	high __pidataBANK0
   616  012C8C  6EF7               	movwf	16375,c
   617  012C8E  0E01               	movlw	low (__pidataBANK0 shr (0+16))
   618  012C90  6EF8               	movwf	16376,c
   619  012C92  EE00  F060         	lfsr	0,__pdataBANK0
   620  012C96  EE10 F026          	lfsr	1,38
   621  012C9A                     copy_data0:
   622  012C9A  0009               	tblrd		*+
   623  012C9C  006F FFD7 FFEE     	movff	16373,16366
   624  012CA2  50E5               	movf	16357,w,c
   625  012CA4  50E1               	movf	16353,w,c
   626  012CA6  E1F9               	bnz	copy_data0
   627                           
   628                           ; Initialize objects allocated to COMRAM (33 bytes)
   629                           ; load TBLPTR registers with __pidataCOMRAM
   630  012CA8  0EFA               	movlw	low __pidataCOMRAM
   631  012CAA  6EF6               	movwf	16374,c
   632  012CAC  0E32               	movlw	high __pidataCOMRAM
   633  012CAE  6EF7               	movwf	16375,c
   634  012CB0  0E01               	movlw	low (__pidataCOMRAM shr (0+16))
   635  012CB2  6EF8               	movwf	16376,c
   636  012CB4  EE00  F001         	lfsr	0,__pdataCOMRAM
   637  012CB8  EE10 F021          	lfsr	1,33
   638  012CBC                     copy_data1:
   639  012CBC  0009               	tblrd		*+
   640  012CBE  006F FFD7 FFEE     	movff	16373,16366
   641  012CC4  50E5               	movf	16357,w,c
   642  012CC6  50E1               	movf	16353,w,c
   643  012CC8  E1F9               	bnz	copy_data1
   644                           
   645                           ; Clear objects allocated to BANK0 (8 bytes)
   646  012CCA  EE00  F099         	lfsr	0,__pbssBANK0
   647  012CCE  0E08               	movlw	8
   648  012CD0                     clear_0:
   649  012CD0  6AEE               	clrf	16366,c
   650  012CD2  06E8               	decf	16360,f,c
   651  012CD4  E1FD               	bnz	clear_0
   652                           
   653                           ; Clear objects allocated to COMRAM (24 bytes)
   654  012CD6  EE00  F03B         	lfsr	0,__pbssCOMRAM
   655  012CDA  0E18               	movlw	24
   656  012CDC                     clear_1:
   657  012CDC  6AEE               	clrf	16366,c
   658  012CDE  06E8               	decf	16360,f,c
   659  012CE0  E1FD               	bnz	clear_1
   660                           
   661                           ;
   662                           ; Setup IVTBASE
   663                           ;
   664  012CE2  0E08               	movlw	(ivt0x8_base shr 0)& (0+255)
   665  012CE4  6ED5               	movwf	213,c
   666  012CE6  0E00               	movlw	(ivt0x8_base shr (0+8))& (0+255)
   667  012CE8  6ED6               	movwf	214,c
   668  012CEA  0E00               	movlw	(ivt0x8_base shr (0+16))& (0+255)
   669  012CEC  6ED7               	movwf	215,c
   670  012CEE                     end_of_initialization:
   671                           	opt stack 0
   672  012CEE                     __end_of__initialization:
   673                           	opt stack 0
   674  012CEE  0E00               	movlw	low (__Lmediumconst shr (0+16))
   675  012CF0  6EF8               	movwf	16376,c
   676  012CF2  0100               	movlb	0
   677  012CF4  EF00  F080         	goto	_main	;jump to C main() function
   678                           
   679                           	psect	bssCOMRAM
   680  00003B                     __pbssCOMRAM:
   681                           	opt stack 0
   682  00003B                     _keypadOutput:
   683                           	opt stack 0
   684  00003B                     	ds	2
   685  00003D                     _NONE:
   686                           	opt stack 0
   687  00003D                     	ds	2
   688  00003F                     _FALSE:
   689                           	opt stack 0
   690  00003F                     	ds	2
   691  000041                     _OFF:
   692                           	opt stack 0
   693  000041                     	ds	2
   694  000043                     _stanby:
   695                           	opt stack 0
   696  000043                     	ds	2
   697  000045                     _status:
   698                           	opt stack 0
   699  000045                     	ds	2
   700  000047                     _passwordChange:
   701                           	opt stack 0
   702  000047                     	ds	2
   703  000049                     _timerChange:
   704                           	opt stack 0
   705  000049                     	ds	2
   706  00004B                     _isPasswordTrue:
   707                           	opt stack 0
   708  00004B                     	ds	2
   709  00004D                     _keyIterrator:
   710                           	opt stack 0
   711  00004D                     	ds	2
   712  00004F                     _keyPressed:
   713                           	opt stack 0
   714  00004F                     	ds	1
   715  000050                     _keyHeld:
   716                           	opt stack 0
   717  000050                     	ds	1
   718  000051                     _countdownMode:
   719                           	opt stack 0
   720  000051                     	ds	1
   721  000052                     _mode:
   722                           	opt stack 0
   723  000052                     	ds	1
   724                           
   725                           	psect	dataCOMRAM
   726  000001                     __pdataCOMRAM:
   727                           	opt stack 0
   728  000001                     _numCountdownNowTime:
   729                           	opt stack 0
   730  000001                     	ds	12
   731  00000D                     _gameMode:
   732                           	opt stack 0
   733  00000D                     	ds	2
   734  00000F                     _TRUE:
   735                           	opt stack 0
   736  00000F                     	ds	2
   737  000011                     _ON:
   738                           	opt stack 0
   739  000011                     	ds	2
   740  000013                     _cursorBlinkMem:
   741                           	opt stack 0
   742  000013                     	ds	2
   743  000015                     _countdownBeepsMem:
   744                           	opt stack 0
   745  000015                     	ds	2
   746  000017                     _countdownBeeps:
   747                           	opt stack 0
   748  000017                     	ds	2
   749  000019                     _keyBeeps:
   750                           	opt stack 0
   751  000019                     	ds	2
   752  00001B                     _exploded:
   753                           	opt stack 0
   754  00001B                     	ds	2
   755  00001D                     _disarmed:
   756                           	opt stack 0
   757  00001D                     	ds	2
   758  00001F                     _armed:
   759                           	opt stack 0
   760  00001F                     	ds	2
   761  000021                     _alarmMode:
   762                           	opt stack 0
   763  000021                     	ds	1
   764                           
   765                           	psect	bssBANK0
   766  000099                     __pbssBANK0:
   767                           	opt stack 0
   768  000099                     _userPswdEntry:
   769                           	opt stack 0
   770  000099                     	ds	8
   771                           
   772                           	psect	dataBANK0
   773  000060                     __pdataBANK0:
   774                           	opt stack 0
   775  000060                     _numCountdownInitialTime:
   776                           	opt stack 0
   777  000060                     	ds	12
   778  00006C                     _strCountdownInitialTime:
   779                           	opt stack 0
   780  00006C                     	ds	8
   781  000074                     _keyBeepsMem:
   782                           	opt stack 0
   783  000074                     	ds	2
   784  000076                     _strCountdownNowTime:
   785                           	opt stack 0
   786  000076                     	ds	8
   787  00007E                     _password:
   788                           	opt stack 0
   789  00007E                     	ds	8
   790                           
   791                           	psect	cstackBANK0
   792  000086                     __pcstackBANK0:
   793                           	opt stack 0
   794  000086                     keypadRead@keyHoldTime:
   795                           	opt stack 0
   796                           
   797                           ; 2 bytes @ 0x0
   798  000086                     	ds	2
   799  000088                     keypadRead@flagPressed:
   800                           	opt stack 0
   801                           
   802                           ; 2 bytes @ 0x2
   803  000088                     	ds	2
   804  00008A                     keypadRead@output:
   805                           	opt stack 0
   806                           
   807                           ; 2 bytes @ 0x4
   808  00008A                     	ds	2
   809  00008C                     keypadRead@keyHeld:
   810                           	opt stack 0
   811                           
   812                           ; 1 bytes @ 0x6
   813  00008C                     	ds	1
   814  00008D                     keypadRead@keyPressed:
   815                           	opt stack 0
   816                           
   817                           ; 1 bytes @ 0x7
   818  00008D                     	ds	1
   819  00008E                     keypadRead@key:
   820                           	opt stack 0
   821                           
   822                           ; 1 bytes @ 0x8
   823  00008E                     	ds	1
   824  00008F                     ??_main:
   825                           
   826                           ; 1 bytes @ 0x9
   827  00008F                     	ds	2
   828  000091                     main@i:
   829                           	opt stack 0
   830                           
   831                           ; 2 bytes @ 0xB
   832  000091                     	ds	2
   833  000093                     main@i_1238:
   834                           	opt stack 0
   835                           
   836                           ; 2 bytes @ 0xD
   837  000093                     	ds	2
   838  000095                     main@cursorPos:
   839                           	opt stack 0
   840                           
   841                           ; 2 bytes @ 0xF
   842  000095                     	ds	2
   843  000097                     main@cursorPos_1259:
   844                           	opt stack 0
   845                           
   846                           ; 2 bytes @ 0x11
   847  000097                     	ds	2
   848                           
   849                           	psect	cstackCOMRAM
   850  000022                     __pcstackCOMRAM:
   851                           	opt stack 0
   852  000022                     ??_endBeep:
   853  000022                     ??_countdown_now_num2str:
   854  000022                     i2LCD_Cmd@b:
   855                           	opt stack 0
   856  000022                     i2LCD_Write_Char@e:
   857                           	opt stack 0
   858  000022                     i2serialSend@word:
   859                           	opt stack 0
   860                           
   861                           ; 1 bytes @ 0x0
   862  000022                     	ds	1
   863  000023                     endBeep@i:
   864                           	opt stack 0
   865  000023                     i2LCD_Set_Cursor@c:
   866                           	opt stack 0
   867  000023                     i2LCD_Write_String@f:
   868                           	opt stack 0
   869                           
   870                           ; 2 bytes @ 0x1
   871  000023                     	ds	1
   872  000024                     countdown_now_num2str@i:
   873                           	opt stack 0
   874                           
   875                           ; 2 bytes @ 0x2
   876  000024                     	ds	1
   877  000025                     ??i2_LCD_Write_String:
   878  000025                     endBeep@i_538:
   879                           	opt stack 0
   880  000025                     i2LCD_Set_Cursor@d:
   881                           	opt stack 0
   882                           
   883                           ; 2 bytes @ 0x3
   884  000025                     	ds	2
   885  000027                     i2LCD_Set_Cursor@temp:
   886                           	opt stack 0
   887  000027                     i2LCD_Write_String@i:
   888                           	opt stack 0
   889                           
   890                           ; 2 bytes @ 0x5
   891  000027                     	ds	1
   892  000028                     i2LCD_printNowCountdown@i:
   893                           	opt stack 0
   894                           
   895                           ; 2 bytes @ 0x6
   896  000028                     	ds	2
   897  00002A                     ??_ISR:
   898                           
   899                           ; 1 bytes @ 0x8
   900  00002A                     	ds	4
   901  00002E                     ??_LCD_Clear:
   902  00002E                     ??_armBeep:
   903  00002E                     ??_disarmBeep:
   904  00002E                     ??_countdown_now_reset_to_initial:
   905  00002E                     ??_countdown_initial_str2num:
   906  00002E                     ?_keypadScan:
   907                           	opt stack 0
   908  00002E                     ?_strlen:
   909                           	opt stack 0
   910  00002E                     ?_strcmp:
   911                           	opt stack 0
   912  00002E                     LCD_Cmd@b:
   913                           	opt stack 0
   914  00002E                     LCD_Write_Char@e:
   915                           	opt stack 0
   916  00002E                     serialSend@word:
   917                           	opt stack 0
   918  00002E                     resetPasswordEntry@i:
   919                           	opt stack 0
   920  00002E                     strcmp@s1:
   921                           	opt stack 0
   922  00002E                     strlen@s:
   923                           	opt stack 0
   924                           
   925                           ; 2 bytes @ 0xC
   926  00002E                     	ds	1
   927  00002F                     ??_LCD_Initialize:
   928  00002F                     LCD_Set_Cursor@c:
   929                           	opt stack 0
   930  00002F                     LCD_Write_String@f:
   931                           	opt stack 0
   932                           
   933                           ; 2 bytes @ 0xD
   934  00002F                     	ds	1
   935  000030                     ??_keypadScan:
   936  000030                     ??_strlen:
   937  000030                     strcmp@s2:
   938                           	opt stack 0
   939                           
   940                           ; 2 bytes @ 0xE
   941  000030                     	ds	1
   942  000031                     ??_LCD_Write_String:
   943  000031                     ?_keypadRead:
   944                           	opt stack 0
   945  000031                     LCD_Set_Cursor@d:
   946                           	opt stack 0
   947                           
   948                           ; 2 bytes @ 0xF
   949  000031                     	ds	1
   950  000032                     ??_strcmp:
   951  000032                     countdown_now_reset_to_initial@i:
   952                           	opt stack 0
   953  000032                     countdown_initial_str2num@i:
   954                           	opt stack 0
   955  000032                     strlen@cp:
   956                           	opt stack 0
   957                           
   958                           ; 2 bytes @ 0x10
   959  000032                     	ds	1
   960  000033                     ??_keypadRead:
   961  000033                     LCD_Set_Cursor@temp:
   962                           	opt stack 0
   963  000033                     strcmp@r:
   964                           	opt stack 0
   965  000033                     LCD_Write_String@i:
   966                           	opt stack 0
   967                           
   968                           ; 2 bytes @ 0x11
   969  000033                     	ds	1
   970  000034                     ?_verifyPassword:
   971                           	opt stack 0
   972  000034                     LCD_printNowCountdown@i:
   973                           	opt stack 0
   974  000034                     LCD_printInitialCountdown@i:
   975                           	opt stack 0
   976  000034                     resetEntry@str:
   977                           	opt stack 0
   978  000034                     verifyPassword@user:
   979                           	opt stack 0
   980  000034                     serialPrint@string:
   981                           	opt stack 0
   982                           
   983                           ; 2 bytes @ 0x12
   984  000034                     	ds	1
   985  000035                     ??_LCD_printAccepted:
   986  000035                     ??_LCD_printDeclined:
   987  000035                     
   988                           ; 1 bytes @ 0x13
   989  000035                     	ds	1
   990  000036                     ??_serialPrint:
   991  000036                     resetEntry@i:
   992                           	opt stack 0
   993  000036                     verifyPassword@pass:
   994                           	opt stack 0
   995                           
   996                           ; 2 bytes @ 0x14
   997  000036                     	ds	1
   998  000037                     LCD_printAccepted@i:
   999                           	opt stack 0
  1000  000037                     LCD_printDeclined@i:
  1001                           	opt stack 0
  1002  000037                     serialPrint@len:
  1003                           	opt stack 0
  1004                           
  1005                           ; 2 bytes @ 0x15
  1006  000037                     	ds	1
  1007  000038                     
  1008                           ; 1 bytes @ 0x16
  1009  000038                     	ds	1
  1010  000039                     serialPrint@i:
  1011                           	opt stack 0
  1012                           
  1013                           ; 2 bytes @ 0x17
  1014  000039                     	ds	2
  1015                           
  1016 ;;
  1017 ;;Main: autosize = 0, tempsize = 2, incstack = 0, save=0
  1018 ;;
  1019 ;; *************** function _main *****************
  1020 ;; Defined at:
  1021 ;;		line 104 in file "main.c"
  1022 ;; Parameters:    Size  Location     Type
  1023 ;;		None
  1024 ;; Auto vars:     Size  Location     Type
  1025 ;;  i               2   11[BANK0 ] int 
  1026 ;;  i               2   13[BANK0 ] int 
  1027 ;;  cursorPos       2   17[BANK0 ] int 
  1028 ;;  cursorPos       2   15[BANK0 ] int 
  1029 ;; Return value:  Size  Location     Type
  1030 ;;                  1    wreg      void 
  1031 ;; Registers used:
  1032 ;;		wreg, fsr1l, fsr1h, fsr2l, fsr2h, status,2, status,0, tblptrl, tblptrh, tblptru, cstack
  1033 ;; Tracked objects:
  1034 ;;		On entry : 0/0
  1035 ;;		On exit  : 0/0
  1036 ;;		Unchanged: 0/0
  1037 ;; Data sizes:     COMRAM   BANK0   BANK1   BANK2   BANK3   BANK4   BANK5   BANK6   BANK7   BANK8   BANK9  BANK10  BANK1
      +1  BANK12  BANK13  BANK14  BANK15  BANK16  BANK17  BANK18  BANK19  BANK20  BANK21  BANK22  BANK23  BANK24  BANK25  BANK2
      +6  BANK27  BANK28  BANK29  BANK30  BANK31
  1038 ;;      Params:         0       0       0       0       0       0       0       0       0       0       0       0       
      +0       0       0       0       0       0       0       0       0       0       0       0       0       0       0       
      +0       0       0       0       0       0
  1039 ;;      Locals:         0       8       0       0       0       0       0       0       0       0       0       0       
      +0       0       0       0       0       0       0       0       0       0       0       0       0       0       0       
      +0       0       0       0       0       0
  1040 ;;      Temps:          0       2       0       0       0       0       0       0       0       0       0       0       
      +0       0       0       0       0       0       0       0       0       0       0       0       0       0       0       
      +0       0       0       0       0       0
  1041 ;;      Totals:         0      10       0       0       0       0       0       0       0       0       0       0       
      +0       0       0       0       0       0       0       0       0       0       0       0       0       0       0       
      +0       0       0       0       0       0
  1042 ;;Total ram usage:       10 bytes
  1043 ;; Hardware stack levels required when called:    9
  1044 ;; This function calls:
  1045 ;;		_LCD_Cursor_Blink_Off
  1046 ;;		_LCD_Cursor_Blink_On
  1047 ;;		_LCD_Cursor_Left
  1048 ;;		_LCD_Cursor_Right
  1049 ;;		_LCD_Set_Cursor
  1050 ;;		_LCD_Write_Char
  1051 ;;		_LCD_Write_String
  1052 ;;		_LCD_printAccepted
  1053 ;;		_LCD_printDeclined
  1054 ;;		_LCD_printInitialCountdown
  1055 ;;		_LCD_printNowCountdown
  1056 ;;		_LCD_resetPasswordEntry
  1057 ;;		_armBeep
  1058 ;;		_armedPageReset
  1059 ;;		_countdownStart
  1060 ;;		_countdownStop
  1061 ;;		_countdown_initial_str2num
  1062 ;;		_countdown_now_reset_to_initial
  1063 ;;		_disarmBeep
  1064 ;;		_disarmedPageReset
  1065 ;;		_keypadRead
  1066 ;;		_resetEntry
  1067 ;;		_resetPasswordEntry
  1068 ;;		_serialPrint
  1069 ;;		_serialSend
  1070 ;;		_setup
  1071 ;;		_stanbyPageReset
  1072 ;;		_verifyInterfaceOptions
  1073 ;;		_verifyPassword
  1074 ;; This function is called by:
  1075 ;;		Startup code after reset
  1076 ;; This function uses a non-reentrant model
  1077 ;;
  1078                           
  1079                           	psect	text0
  1080  010000                     __ptext0:
  1081                           	opt stack 0
  1082  010000                     _main:
  1083                           	opt stack 22
  1084                           
  1085                           ;main.c: 107: setup();
  1086                           
  1087                           ;incstack = 0
  1088  010000  ECD9  F099         	call	_setup	;wreg free
  1089                           
  1090                           ;main.c: 108: stanbyPageReset();
  1091  010004  ECDF  F097         	call	_stanbyPageReset	;wreg free
  1092  010008                     
  1093                           ;main.c: 111: {;main.c: 113: if(mode == countdownMode)
  1094  010008  5051               	movf	_countdownMode,w,c
  1095  01000A  1852               	xorwf	_mode,w,c
  1096  01000C  A4D8               	btfss	16344,2,c
  1097  01000E  D7FC               	goto	l766
  1098                           
  1099                           ;main.c: 114: {;main.c: 115: verifyInterfaceOptions();
  1100  010010  ECBC  F095         	call	_verifyInterfaceOptions	;wreg free
  1101                           
  1102                           ;main.c: 116: keypadOutput = keypadRead();
  1103  010014  ECE0  F091         	call	_keypadRead	;wreg free
  1104  010018  0060  F0C4  F03B   	movff	?_keypadRead,_keypadOutput
  1105  01001E  0060  F0C8  F03C   	movff	?_keypadRead+1,_keypadOutput+1
  1106                           
  1107                           ;main.c: 117: keyPressed = keypadOutput.keyPressed;
  1108  010024  0060  F0EC  F04F   	movff	_keypadOutput,_keyPressed
  1109                           
  1110                           ;main.c: 118: keyHeld = keypadOutput.keyHeld;
  1111  01002A  0060  F0F0  F050   	movff	_keypadOutput+1,_keyHeld
  1112                           
  1113                           ;main.c: 122: if(status == stanby)
  1114  010030  5043               	movf	_stanby,w,c
  1115  010032  1845               	xorwf	_status,w,c
  1116  010034  E103               	bnz	u7501
  1117  010036  5044               	movf	_stanby+1,w,c
  1118  010038  1846               	xorwf	_status+1,w,c
  1119  01003A  A4D8               	btfss	16344,2,c
  1120  01003C                     u7501:
  1121  01003C  EF89  F085         	goto	l768
  1122                           
  1123                           ;main.c: 123: {;main.c: 124: if(keyPressed != NONE && keyHeld == NONE)
  1124  010040  504F               	movf	_keyPressed,w,c
  1125  010042  0100               	movlb	0	; () banked
  1126  010044  6F8F               	movwf	??_main& (0+255),b
  1127  010046  6B90               	clrf	(??_main+1)& (0+255),b
  1128  010048  503D               	movf	_NONE,w,c
  1129  01004A  198F               	xorwf	??_main& (0+255),w,b
  1130  01004C  E104               	bnz	u7510
  1131  01004E  503E               	movf	_NONE+1,w,c
  1132  010050  1990               	xorwf	(??_main+1)& (0+255),w,b
  1133  010052  B4D8               	btfsc	16344,2,c
  1134  010054  D139               	goto	l769
  1135  010056                     u7510:
  1136                           
  1137                           ; BSR set to: 0
  1138  010056  5050               	movf	_keyHeld,w,c
  1139  010058  6F8F               	movwf	??_main& (0+255),b
  1140  01005A  6B90               	clrf	(??_main+1)& (0+255),b
  1141  01005C  503D               	movf	_NONE,w,c
  1142  01005E  198F               	xorwf	??_main& (0+255),w,b
  1143  010060  E103               	bnz	u7521
  1144  010062  503E               	movf	_NONE+1,w,c
  1145  010064  1990               	xorwf	(??_main+1)& (0+255),w,b
  1146  010066  A4D8               	btfss	16344,2,c
  1147  010068                     u7521:
  1148  010068  D12F               	goto	l769
  1149                           
  1150                           ; BSR set to: 0
  1151                           ;main.c: 125: {;main.c: 127: if(keyIterrator == 0 && keyBeeps == OFF)
  1152  01006A  504D               	movf	_keyIterrator,w,c
  1153  01006C  104E               	iorwf	_keyIterrator+1,w,c
  1154  01006E  A4D8               	btfss	16344,2,c
  1155  010070  D008               	goto	l770
  1156                           
  1157                           ; BSR set to: 0
  1158  010072  5041               	movf	_OFF,w,c
  1159  010074  1819               	xorwf	_keyBeeps,w,c
  1160  010076  E105               	bnz	l6761
  1161  010078  5042               	movf	_OFF+1,w,c
  1162  01007A  181A               	xorwf	_keyBeeps+1,w,c
  1163  01007C  B4D8               	btfsc	16344,2,c
  1164                           
  1165                           ; BSR set to: 0
  1166                           ;main.c: 128: {;main.c: 129: armBeep();
  1167  01007E  EC9E  F099         	call	_armBeep	;wreg free
  1168  010082                     l770:
  1169  010082                     l6761:
  1170                           
  1171                           ;main.c: 130: };main.c: 131: if (keyPressed != '#' && keyPressed != '*' && keyIterrator<
      +                          7)
  1172  010082  0E23               	movlw	35
  1173  010084  184F               	xorwf	_keyPressed,w,c
  1174  010086  B4D8               	btfsc	16344,2,c
  1175  010088  D026               	goto	l771
  1176  01008A  0E2A               	movlw	42
  1177  01008C  184F               	xorwf	_keyPressed,w,c
  1178  01008E  B4D8               	btfsc	16344,2,c
  1179  010090  D022               	goto	l771
  1180  010092  BE4E               	btfsc	_keyIterrator+1,7,c
  1181  010094  D006               	goto	u7570
  1182  010096  504E               	movf	_keyIterrator+1,w,c
  1183  010098  E11E               	bnz	l6775
  1184  01009A  0E07               	movlw	7
  1185  01009C  5C4D               	subwf	_keyIterrator,w,c
  1186  01009E  B0D8               	btfsc	16344,0,c
  1187  0100A0  D01A               	goto	l771
  1188  0100A2                     u7570:
  1189                           
  1190                           ;main.c: 132: {;main.c: 134: userPswdEntry[keyIterrator] = keyPressed;
  1191  0100A2  0E99               	movlw	low _userPswdEntry
  1192  0100A4  244D               	addwf	_keyIterrator,w,c
  1193  0100A6  6ED9               	movwf	16345,c
  1194  0100A8  0E00               	movlw	high _userPswdEntry
  1195  0100AA  204E               	addwfc	_keyIterrator+1,w,c
  1196  0100AC  6EDA               	movwf	16346,c
  1197  0100AE  0060  F13F  FFDF   	movff	_keyPressed,16351
  1198                           
  1199                           ;main.c: 135: keyIterrator++;
  1200  0100B4  4A4D               	infsnz	_keyIterrator,f,c
  1201  0100B6  2A4E               	incf	_keyIterrator+1,f,c
  1202                           
  1203                           ;main.c: 137: LCD_Set_Cursor(2,9+keyIterrator);
  1204  0100B8  0E00               	movlw	0
  1205  0100BA  6E30               	movwf	LCD_Set_Cursor@c+1,c
  1206  0100BC  0E02               	movlw	2
  1207  0100BE  6E2F               	movwf	LCD_Set_Cursor@c,c
  1208  0100C0  0E09               	movlw	9
  1209  0100C2  244D               	addwf	_keyIterrator,w,c
  1210  0100C4  6E31               	movwf	LCD_Set_Cursor@d,c
  1211  0100C6  0E00               	movlw	0
  1212  0100C8  204E               	addwfc	_keyIterrator+1,w,c
  1213  0100CA  6E32               	movwf	LCD_Set_Cursor@d+1,c
  1214  0100CC  ECE1  F098         	call	_LCD_Set_Cursor	;wreg free
  1215                           
  1216                           ;main.c: 139: LCD_Write_Char(keyPressed);
  1217  0100D0  504F               	movf	_keyPressed,w,c
  1218  0100D2  EC5B  F099         	call	_LCD_Write_Char
  1219  0100D6                     l771:
  1220  0100D6                     l6775:
  1221                           
  1222                           ;main.c: 140: };main.c: 142: if (keyPressed == '#' || keyPressed == '*'&& keyHeld == NON
      +                          E)
  1223  0100D6  0E23               	movlw	35
  1224  0100D8  184F               	xorwf	_keyPressed,w,c
  1225  0100DA  B4D8               	btfsc	16344,2,c
  1226  0100DC  D00F               	goto	u7600
  1227  0100DE  0E2A               	movlw	42
  1228  0100E0  184F               	xorwf	_keyPressed,w,c
  1229  0100E2  A4D8               	btfss	16344,2,c
  1230  0100E4  D791               	goto	l766
  1231  0100E6  5050               	movf	_keyHeld,w,c
  1232  0100E8  0100               	movlb	0	; () banked
  1233  0100EA  6F8F               	movwf	??_main& (0+255),b
  1234  0100EC  6B90               	clrf	(??_main+1)& (0+255),b
  1235  0100EE  503D               	movf	_NONE,w,c
  1236  0100F0  198F               	xorwf	??_main& (0+255),w,b
  1237  0100F2  E18A               	bnz	l766
  1238  0100F4  503E               	movf	_NONE+1,w,c
  1239  0100F6  1990               	xorwf	(??_main+1)& (0+255),w,b
  1240  0100F8  A4D8               	btfss	16344,2,c
  1241  0100FA  D786               	goto	l766
  1242  0100FC                     u7600:
  1243                           
  1244                           ;main.c: 143: {;main.c: 145: isPasswordTrue = verifyPassword(userPswdEntry,password);
  1245                           
  1246                           ; BSR set to: 0
  1247  0100FC  0E99               	movlw	low _userPswdEntry
  1248  0100FE  6E34               	movwf	verifyPassword@user,c
  1249  010100  0E00               	movlw	high _userPswdEntry
  1250  010102  6E35               	movwf	verifyPassword@user+1,c
  1251  010104  0E7E               	movlw	low _password
  1252  010106  6E36               	movwf	verifyPassword@pass,c
  1253  010108  0E00               	movlw	high _password
  1254  01010A  6E37               	movwf	verifyPassword@pass+1,c
  1255  01010C  EC79  F098         	call	_verifyPassword	;wreg free
  1256  010110  0060  F0D0  F04B   	movff	?_verifyPassword,_isPasswordTrue
  1257  010116  0060  F0D4  F04C   	movff	?_verifyPassword+1,_isPasswordTrue+1
  1258                           
  1259                           ;main.c: 146: _delay((unsigned long)((10)*(8000000/4000.0)));
  1260  01011C  0E1A               	movlw	26
  1261  01011E  0100               	movlb	0	; () banked
  1262  010120  6F8F               	movwf	??_main& (0+255),b
  1263  010122  0EF8               	movlw	248
  1264  010124                     u9287:
  1265  010124  2EE8               	decfsz	16360,f,c
  1266  010126  D7FE               	bra	u9287
  1267  010128  2F8F               	decfsz	??_main& (0+255),f,b
  1268  01012A  D7FC               	bra	u9287
  1269  01012C  F000               	nop	
  1270                           
  1271                           ;main.c: 147: resetPasswordEntry();
  1272  01012E  ECC9  F098         	call	_resetPasswordEntry	;wreg free
  1273                           
  1274                           ;main.c: 149: if(isPasswordTrue == TRUE)
  1275  010132  500F               	movf	_TRUE,w,c
  1276  010134  184B               	xorwf	_isPasswordTrue,w,c
  1277  010136  E103               	bnz	u7611
  1278  010138  5010               	movf	_TRUE+1,w,c
  1279  01013A  184C               	xorwf	_isPasswordTrue+1,w,c
  1280  01013C  A4D8               	btfss	16344,2,c
  1281  01013E                     u7611:
  1282  01013E  D0AB               	goto	l775
  1283                           
  1284                           ;main.c: 150: {;main.c: 152: LCD_printAccepted();
  1285  010140  EC14  F095         	call	_LCD_printAccepted	;wreg free
  1286                           
  1287                           ;main.c: 153: LCD_Set_Cursor(2,1);
  1288  010144  0E00               	movlw	0
  1289  010146  6E30               	movwf	LCD_Set_Cursor@c+1,c
  1290  010148  0E02               	movlw	2
  1291  01014A  6E2F               	movwf	LCD_Set_Cursor@c,c
  1292  01014C  0E00               	movlw	0
  1293  01014E  6E32               	movwf	LCD_Set_Cursor@d+1,c
  1294  010150  0E01               	movlw	1
  1295  010152  6E31               	movwf	LCD_Set_Cursor@d,c
  1296  010154  ECE1  F098         	call	_LCD_Set_Cursor	;wreg free
  1297                           
  1298                           ;main.c: 154: if(gameMode == 1)
  1299  010158  040D               	decf	_gameMode,w,c
  1300  01015A  100E               	iorwf	_gameMode+1,w,c
  1301  01015C  A4D8               	btfss	16344,2,c
  1302  01015E  D085               	goto	l776
  1303                           
  1304                           ;main.c: 155: {;main.c: 156: serialSend('S');
  1305  010160  0E53               	movlw	83
  1306  010162  EC4C  F09A         	call	_serialSend
  1307                           
  1308                           ;main.c: 157: LCD_Write_Char('5');
  1309  010166  0E35               	movlw	53
  1310  010168  EC5B  F099         	call	_LCD_Write_Char
  1311                           
  1312                           ;main.c: 158: LCD_Set_Cursor(2,1);
  1313  01016C  0E00               	movlw	0
  1314  01016E  6E30               	movwf	LCD_Set_Cursor@c+1,c
  1315  010170  0E02               	movlw	2
  1316  010172  6E2F               	movwf	LCD_Set_Cursor@c,c
  1317  010174  0E00               	movlw	0
  1318  010176  6E32               	movwf	LCD_Set_Cursor@d+1,c
  1319  010178  0E01               	movlw	1
  1320  01017A  6E31               	movwf	LCD_Set_Cursor@d,c
  1321  01017C  ECE1  F098         	call	_LCD_Set_Cursor	;wreg free
  1322                           
  1323                           ;main.c: 159: _delay((unsigned long)((1000)*(8000000/4000.0)));
  1324  010180  0E0B               	movlw	11
  1325  010182  0100               	movlb	0	; () banked
  1326  010184  6F90               	movwf	(??_main+1)& (0+255),b
  1327  010186  0E26               	movlw	38
  1328  010188  6F8F               	movwf	??_main& (0+255),b
  1329  01018A  0E5D               	movlw	93
  1330  01018C                     u9297:
  1331  01018C  2EE8               	decfsz	16360,f,c
  1332  01018E  D7FE               	bra	u9297
  1333  010190  2F8F               	decfsz	??_main& (0+255),f,b
  1334  010192  D7FC               	bra	u9297
  1335  010194  2F90               	decfsz	(??_main+1)& (0+255),f,b
  1336  010196  D7FA               	bra	u9297
  1337  010198  D000               	nop2	
  1338                           
  1339                           ;main.c: 161: LCD_Write_Char('4');
  1340  01019A  0E34               	movlw	52
  1341  01019C  EC5B  F099         	call	_LCD_Write_Char
  1342                           
  1343                           ;main.c: 162: LCD_Set_Cursor(2,1);
  1344  0101A0  0E00               	movlw	0
  1345  0101A2  6E30               	movwf	LCD_Set_Cursor@c+1,c
  1346  0101A4  0E02               	movlw	2
  1347  0101A6  6E2F               	movwf	LCD_Set_Cursor@c,c
  1348  0101A8  0E00               	movlw	0
  1349  0101AA  6E32               	movwf	LCD_Set_Cursor@d+1,c
  1350  0101AC  0E01               	movlw	1
  1351  0101AE  6E31               	movwf	LCD_Set_Cursor@d,c
  1352  0101B0  ECE1  F098         	call	_LCD_Set_Cursor	;wreg free
  1353                           
  1354                           ;main.c: 163: _delay((unsigned long)((1000)*(8000000/4000.0)));
  1355  0101B4  0E0B               	movlw	11
  1356  0101B6  0100               	movlb	0	; () banked
  1357  0101B8  6F90               	movwf	(??_main+1)& (0+255),b
  1358  0101BA  0E26               	movlw	38
  1359  0101BC  6F8F               	movwf	??_main& (0+255),b
  1360  0101BE  0E5D               	movlw	93
  1361  0101C0                     u9307:
  1362  0101C0  2EE8               	decfsz	16360,f,c
  1363  0101C2  D7FE               	bra	u9307
  1364  0101C4  2F8F               	decfsz	??_main& (0+255),f,b
  1365  0101C6  D7FC               	bra	u9307
  1366  0101C8  2F90               	decfsz	(??_main+1)& (0+255),f,b
  1367  0101CA  D7FA               	bra	u9307
  1368  0101CC  D000               	nop2	
  1369                           
  1370                           ;main.c: 165: LCD_Write_Char('3');
  1371  0101CE  0E33               	movlw	51
  1372  0101D0  EC5B  F099         	call	_LCD_Write_Char
  1373                           
  1374                           ;main.c: 166: LCD_Set_Cursor(2,1);
  1375  0101D4  0E00               	movlw	0
  1376  0101D6  6E30               	movwf	LCD_Set_Cursor@c+1,c
  1377  0101D8  0E02               	movlw	2
  1378  0101DA  6E2F               	movwf	LCD_Set_Cursor@c,c
  1379  0101DC  0E00               	movlw	0
  1380  0101DE  6E32               	movwf	LCD_Set_Cursor@d+1,c
  1381  0101E0  0E01               	movlw	1
  1382  0101E2  6E31               	movwf	LCD_Set_Cursor@d,c
  1383  0101E4  ECE1  F098         	call	_LCD_Set_Cursor	;wreg free
  1384                           
  1385                           ;main.c: 167: _delay((unsigned long)((1000)*(8000000/4000.0)));
  1386  0101E8  0E0B               	movlw	11
  1387  0101EA  0100               	movlb	0	; () banked
  1388  0101EC  6F90               	movwf	(??_main+1)& (0+255),b
  1389  0101EE  0E26               	movlw	38
  1390  0101F0  6F8F               	movwf	??_main& (0+255),b
  1391  0101F2  0E5D               	movlw	93
  1392  0101F4                     u9317:
  1393  0101F4  2EE8               	decfsz	16360,f,c
  1394  0101F6  D7FE               	bra	u9317
  1395  0101F8  2F8F               	decfsz	??_main& (0+255),f,b
  1396  0101FA  D7FC               	bra	u9317
  1397  0101FC  2F90               	decfsz	(??_main+1)& (0+255),f,b
  1398  0101FE  D7FA               	bra	u9317
  1399  010200  D000               	nop2	
  1400                           
  1401                           ;main.c: 169: LCD_Write_Char('2');
  1402  010202  0E32               	movlw	50
  1403  010204  EC5B  F099         	call	_LCD_Write_Char
  1404                           
  1405                           ;main.c: 170: LCD_Set_Cursor(2,1);
  1406  010208  0E00               	movlw	0
  1407  01020A  6E30               	movwf	LCD_Set_Cursor@c+1,c
  1408  01020C  0E02               	movlw	2
  1409  01020E  6E2F               	movwf	LCD_Set_Cursor@c,c
  1410  010210  0E00               	movlw	0
  1411  010212  6E32               	movwf	LCD_Set_Cursor@d+1,c
  1412  010214  0E01               	movlw	1
  1413  010216  6E31               	movwf	LCD_Set_Cursor@d,c
  1414  010218  ECE1  F098         	call	_LCD_Set_Cursor	;wreg free
  1415                           
  1416                           ;main.c: 171: _delay((unsigned long)((1000)*(8000000/4000.0)));
  1417  01021C  0E0B               	movlw	11
  1418  01021E  0100               	movlb	0	; () banked
  1419  010220  6F90               	movwf	(??_main+1)& (0+255),b
  1420  010222  0E26               	movlw	38
  1421  010224  6F8F               	movwf	??_main& (0+255),b
  1422  010226  0E5D               	movlw	93
  1423  010228                     u9327:
  1424  010228  2EE8               	decfsz	16360,f,c
  1425  01022A  D7FE               	bra	u9327
  1426  01022C  2F8F               	decfsz	??_main& (0+255),f,b
  1427  01022E  D7FC               	bra	u9327
  1428  010230  2F90               	decfsz	(??_main+1)& (0+255),f,b
  1429  010232  D7FA               	bra	u9327
  1430  010234  D000               	nop2	
  1431                           
  1432                           ;main.c: 173: LCD_Write_Char('1');
  1433  010236  0E31               	movlw	49
  1434  010238  EC5B  F099         	call	_LCD_Write_Char
  1435                           
  1436                           ;main.c: 174: LCD_Set_Cursor(2,1);
  1437  01023C  0E00               	movlw	0
  1438  01023E  6E30               	movwf	LCD_Set_Cursor@c+1,c
  1439  010240  0E02               	movlw	2
  1440  010242  6E2F               	movwf	LCD_Set_Cursor@c,c
  1441  010244  0E00               	movlw	0
  1442  010246  6E32               	movwf	LCD_Set_Cursor@d+1,c
  1443  010248  0E01               	movlw	1
  1444  01024A  6E31               	movwf	LCD_Set_Cursor@d,c
  1445  01024C  ECE1  F098         	call	_LCD_Set_Cursor	;wreg free
  1446                           
  1447                           ;main.c: 175: _delay((unsigned long)((1000)*(8000000/4000.0)));
  1448  010250  0E0B               	movlw	11
  1449  010252  0100               	movlb	0	; () banked
  1450  010254  6F90               	movwf	(??_main+1)& (0+255),b
  1451  010256  0E26               	movlw	38
  1452  010258  6F8F               	movwf	??_main& (0+255),b
  1453  01025A  0E5D               	movlw	93
  1454  01025C                     u9337:
  1455  01025C  2EE8               	decfsz	16360,f,c
  1456  01025E  D7FE               	bra	u9337
  1457  010260  2F8F               	decfsz	??_main& (0+255),f,b
  1458  010262  D7FC               	bra	u9337
  1459  010264  2F90               	decfsz	(??_main+1)& (0+255),f,b
  1460  010266  D7FA               	bra	u9337
  1461  010268  D000               	nop2	
  1462  01026A                     l776:
  1463                           
  1464                           ;main.c: 177: };main.c: 178: LCD_Set_Cursor(1,1);
  1465  01026A  0E00               	movlw	0
  1466  01026C  6E30               	movwf	LCD_Set_Cursor@c+1,c
  1467  01026E  0E01               	movlw	1
  1468  010270  6E2F               	movwf	LCD_Set_Cursor@c,c
  1469  010272  0E00               	movlw	0
  1470  010274  6E32               	movwf	LCD_Set_Cursor@d+1,c
  1471  010276  0E01               	movlw	1
  1472  010278  6E31               	movwf	LCD_Set_Cursor@d,c
  1473  01027A  ECE1  F098         	call	_LCD_Set_Cursor	;wreg free
  1474                           
  1475                           ;main.c: 179: LCD_Write_String("ARMED ");
  1476  01027E  0EF0               	movlw	low STR_11
  1477  010280  6E2F               	movwf	LCD_Write_String@f,c
  1478  010282  0EFF               	movlw	high STR_11
  1479  010284  6E30               	movwf	LCD_Write_String@f+1,c
  1480  010286  ECD8  F096         	call	_LCD_Write_String	;wreg free
  1481                           
  1482                           ;main.c: 180: armedPageReset();
  1483  01028A  EC5C  F098         	call	_armedPageReset	;wreg free
  1484                           
  1485                           ;main.c: 181: countdownStart();
  1486  01028E  EC3F  F09A         	call	_countdownStart	;wreg free
  1487  010292  EF8C  F087         	goto	l7429
  1488  010296                     l775:
  1489                           
  1490                           ;main.c: 186: else if (isPasswordTrue == FALSE)
  1491  010296  503F               	movf	_FALSE,w,c
  1492  010298  184B               	xorwf	_isPasswordTrue,w,c
  1493  01029A  E103               	bnz	u7631
  1494  01029C  5040               	movf	_FALSE+1,w,c
  1495  01029E  184C               	xorwf	_isPasswordTrue+1,w,c
  1496  0102A0  A4D8               	btfss	16344,2,c
  1497  0102A2                     u7631:
  1498  0102A2  D6B2               	goto	l766
  1499                           
  1500                           ;main.c: 187: {;main.c: 188: LCD_printDeclined();
  1501  0102A4  ECB8  F094         	call	_LCD_printDeclined	;wreg free
  1502                           
  1503                           ;main.c: 189: _delay((unsigned long)((250)*(8000000/4000.0)));
  1504  0102A8  0E03               	movlw	3
  1505  0102AA  0100               	movlb	0	; () banked
  1506  0102AC  6F90               	movwf	(??_main+1)& (0+255),b
  1507  0102AE  0E8A               	movlw	138
  1508  0102B0  6F8F               	movwf	??_main& (0+255),b
  1509  0102B2  0E55               	movlw	85
  1510  0102B4                     u9347:
  1511  0102B4  2EE8               	decfsz	16360,f,c
  1512  0102B6  D7FE               	bra	u9347
  1513  0102B8  2F8F               	decfsz	??_main& (0+255),f,b
  1514  0102BA  D7FC               	bra	u9347
  1515  0102BC  2F90               	decfsz	(??_main+1)& (0+255),f,b
  1516  0102BE  D7FA               	bra	u9347
  1517  0102C0  D000               	nop2	
  1518                           
  1519                           ;main.c: 190: stanbyPageReset();
  1520  0102C2  ECDF  F097         	call	_stanbyPageReset	;wreg free
  1521                           
  1522                           ;main.c: 192: };main.c: 193: };main.c: 194: }
  1523                           
  1524                           ;main.c: 191: continue;
  1525  0102C6  D6A0               	goto	l766
  1526  0102C8                     l769:
  1527                           
  1528                           ;main.c: 196: else if(keyHeld != NONE)
  1529  0102C8  5050               	movf	_keyHeld,w,c
  1530  0102CA  0100               	movlb	0	; () banked
  1531  0102CC  6F8F               	movwf	??_main& (0+255),b
  1532  0102CE  6B90               	clrf	(??_main+1)& (0+255),b
  1533  0102D0  503D               	movf	_NONE,w,c
  1534  0102D2  198F               	xorwf	??_main& (0+255),w,b
  1535  0102D4  E104               	bnz	u7640
  1536  0102D6  503E               	movf	_NONE+1,w,c
  1537  0102D8  1990               	xorwf	(??_main+1)& (0+255),w,b
  1538  0102DA  B4D8               	btfsc	16344,2,c
  1539  0102DC  D695               	goto	l766
  1540  0102DE                     u7640:
  1541                           
  1542                           ; BSR set to: 0
  1543                           ;main.c: 197: {;main.c: 199: if(keyPressed == '#' && keyHeld == '#')
  1544  0102DE  0E23               	movlw	35
  1545  0102E0  184F               	xorwf	_keyPressed,w,c
  1546  0102E2  A4D8               	btfss	16344,2,c
  1547  0102E4  D211               	goto	l782
  1548                           
  1549                           ; BSR set to: 0
  1550  0102E6  0E23               	movlw	35
  1551  0102E8  1850               	xorwf	_keyHeld,w,c
  1552  0102EA  A4D8               	btfss	16344,2,c
  1553  0102EC  D20D               	goto	l782
  1554                           
  1555                           ; BSR set to: 0
  1556                           ;main.c: 200: {;main.c: 201: if(gameMode != 1){
  1557  0102EE  040D               	decf	_gameMode,w,c
  1558  0102F0  100E               	iorwf	_gameMode+1,w,c
  1559  0102F2  B4D8               	btfsc	16344,2,c
  1560  0102F4  D157               	goto	u7850
  1561                           
  1562                           ; BSR set to: 0
  1563                           ;main.c: 202: keyIterrator = 0;
  1564  0102F6  0E00               	movlw	0
  1565  0102F8  6E4E               	movwf	_keyIterrator+1,c
  1566  0102FA  0E00               	movlw	0
  1567  0102FC  6E4D               	movwf	_keyIterrator,c
  1568                           
  1569                           ; BSR set to: 0
  1570                           ;main.c: 203: passwordChange = TRUE;
  1571  0102FE  0060  F03C  F047   	movff	_TRUE,_passwordChange
  1572  010304  0060  F040  F048   	movff	_TRUE+1,_passwordChange+1
  1573                           
  1574                           ; BSR set to: 0
  1575                           ;main.c: 204: LCD_Set_Cursor(1,1);
  1576  01030A  0E00               	movlw	0
  1577  01030C  6E30               	movwf	LCD_Set_Cursor@c+1,c
  1578  01030E  0E01               	movlw	1
  1579  010310  6E2F               	movwf	LCD_Set_Cursor@c,c
  1580  010312  0E00               	movlw	0
  1581  010314  6E32               	movwf	LCD_Set_Cursor@d+1,c
  1582  010316  0E01               	movlw	1
  1583  010318  6E31               	movwf	LCD_Set_Cursor@d,c
  1584  01031A  ECE1  F098         	call	_LCD_Set_Cursor	;wreg free
  1585                           
  1586                           ;main.c: 205: LCD_Write_String("PASSWORD CHANGE ");
  1587  01031E  0E7B               	movlw	low STR_14
  1588  010320  6E2F               	movwf	LCD_Write_String@f,c
  1589  010322  0EFF               	movlw	high STR_14
  1590  010324  6E30               	movwf	LCD_Write_String@f+1,c
  1591  010326  ECD8  F096         	call	_LCD_Write_String	;wreg free
  1592                           
  1593                           ;main.c: 206: resetEntry(userPswdEntry);
  1594  01032A  0E99               	movlw	low _userPswdEntry
  1595  01032C  6E34               	movwf	resetEntry@str,c
  1596  01032E  0E00               	movlw	high _userPswdEntry
  1597  010330  6E35               	movwf	resetEntry@str+1,c
  1598  010332  EC21  F098         	call	_resetEntry	;wreg free
  1599                           
  1600                           ;main.c: 207: LCD_resetPasswordEntry();
  1601  010336  EC95  F098         	call	_LCD_resetPasswordEntry	;wreg free
  1602                           
  1603                           ;main.c: 208: while (passwordChange == TRUE)
  1604  01033A  D12D               	goto	l802
  1605  01033C                     
  1606                           ;main.c: 209: {;main.c: 210: keypadOutput = keypadRead();
  1607  01033C  ECE0  F091         	call	_keypadRead	;wreg free
  1608  010340  0060  F0C4  F03B   	movff	?_keypadRead,_keypadOutput
  1609  010346  0060  F0C8  F03C   	movff	?_keypadRead+1,_keypadOutput+1
  1610                           
  1611                           ;main.c: 211: keyPressed = keypadOutput.keyPressed;
  1612  01034C  0060  F0EC  F04F   	movff	_keypadOutput,_keyPressed
  1613                           
  1614                           ;main.c: 212: keyHeld = keypadOutput.keyHeld;
  1615  010352  0060  F0F0  F050   	movff	_keypadOutput+1,_keyHeld
  1616                           
  1617                           ;main.c: 214: if (keyPressed != '#' && keyPressed != '*' && keyIterrator<7)
  1618  010358  0E23               	movlw	35
  1619  01035A  184F               	xorwf	_keyPressed,w,c
  1620  01035C  B4D8               	btfsc	16344,2,c
  1621  01035E  D026               	goto	l786
  1622  010360  0E2A               	movlw	42
  1623  010362  184F               	xorwf	_keyPressed,w,c
  1624  010364  B4D8               	btfsc	16344,2,c
  1625  010366  D022               	goto	l786
  1626  010368  BE4E               	btfsc	_keyIterrator+1,7,c
  1627  01036A  D006               	goto	u7700
  1628  01036C  504E               	movf	_keyIterrator+1,w,c
  1629  01036E  E11E               	bnz	l6887
  1630  010370  0E07               	movlw	7
  1631  010372  5C4D               	subwf	_keyIterrator,w,c
  1632  010374  B0D8               	btfsc	16344,0,c
  1633  010376  D01A               	goto	l786
  1634  010378                     u7700:
  1635                           
  1636                           ;main.c: 215: {;main.c: 216: userPswdEntry[keyIterrator] = keyPressed;
  1637  010378  0E99               	movlw	low _userPswdEntry
  1638  01037A  244D               	addwf	_keyIterrator,w,c
  1639  01037C  6ED9               	movwf	16345,c
  1640  01037E  0E00               	movlw	high _userPswdEntry
  1641  010380  204E               	addwfc	_keyIterrator+1,w,c
  1642  010382  6EDA               	movwf	16346,c
  1643  010384  0060  F13F  FFDF   	movff	_keyPressed,16351
  1644                           
  1645                           ;main.c: 217: keyIterrator++;
  1646  01038A  4A4D               	infsnz	_keyIterrator,f,c
  1647  01038C  2A4E               	incf	_keyIterrator+1,f,c
  1648                           
  1649                           ;main.c: 219: LCD_Set_Cursor(2,9+keyIterrator);
  1650  01038E  0E00               	movlw	0
  1651  010390  6E30               	movwf	LCD_Set_Cursor@c+1,c
  1652  010392  0E02               	movlw	2
  1653  010394  6E2F               	movwf	LCD_Set_Cursor@c,c
  1654  010396  0E09               	movlw	9
  1655  010398  244D               	addwf	_keyIterrator,w,c
  1656  01039A  6E31               	movwf	LCD_Set_Cursor@d,c
  1657  01039C  0E00               	movlw	0
  1658  01039E  204E               	addwfc	_keyIterrator+1,w,c
  1659  0103A0  6E32               	movwf	LCD_Set_Cursor@d+1,c
  1660  0103A2  ECE1  F098         	call	_LCD_Set_Cursor	;wreg free
  1661                           
  1662                           ;main.c: 221: LCD_Write_Char(keyPressed);
  1663  0103A6  504F               	movf	_keyPressed,w,c
  1664  0103A8  EC5B  F099         	call	_LCD_Write_Char
  1665  0103AC                     l786:
  1666  0103AC                     l6887:
  1667                           
  1668                           ;main.c: 222: };main.c: 224: if (keyPressed == '#' || keyPressed == '*'&& keyHeld == NON
      +                          E)
  1669  0103AC  0E23               	movlw	35
  1670  0103AE  184F               	xorwf	_keyPressed,w,c
  1671  0103B0  B4D8               	btfsc	16344,2,c
  1672  0103B2  D00F               	goto	u7730
  1673  0103B4  0E2A               	movlw	42
  1674  0103B6  184F               	xorwf	_keyPressed,w,c
  1675  0103B8  A4D8               	btfss	16344,2,c
  1676  0103BA  D0ED               	goto	l802
  1677  0103BC  5050               	movf	_keyHeld,w,c
  1678  0103BE  0100               	movlb	0	; () banked
  1679  0103C0  6F8F               	movwf	??_main& (0+255),b
  1680  0103C2  6B90               	clrf	(??_main+1)& (0+255),b
  1681  0103C4  503D               	movf	_NONE,w,c
  1682  0103C6  198F               	xorwf	??_main& (0+255),w,b
  1683  0103C8  E103               	bnz	u7731
  1684  0103CA  503E               	movf	_NONE+1,w,c
  1685  0103CC  1990               	xorwf	(??_main+1)& (0+255),w,b
  1686  0103CE  A4D8               	btfss	16344,2,c
  1687  0103D0                     u7731:
  1688  0103D0  D0E2               	goto	l802
  1689  0103D2                     u7730:
  1690                           
  1691                           ;main.c: 225: {;main.c: 226: {;main.c: 227: _delay((unsigned long)((10)*(8000000/4000.0)
      +                          ));
  1692                           
  1693                           ; BSR set to: 0
  1694  0103D2  0E1A               	movlw	26
  1695  0103D4  0100               	movlb	0	; () banked
  1696  0103D6  6F8F               	movwf	??_main& (0+255),b
  1697  0103D8  0EF8               	movlw	248
  1698  0103DA                     u9357:
  1699  0103DA  2EE8               	decfsz	16360,f,c
  1700  0103DC  D7FE               	bra	u9357
  1701  0103DE  2F8F               	decfsz	??_main& (0+255),f,b
  1702  0103E0  D7FC               	bra	u9357
  1703  0103E2  F000               	nop	
  1704                           
  1705                           ;main.c: 228: isPasswordTrue = verifyPassword(userPswdEntry,password);
  1706  0103E4  0E99               	movlw	low _userPswdEntry
  1707  0103E6  6E34               	movwf	verifyPassword@user,c
  1708  0103E8  0E00               	movlw	high _userPswdEntry
  1709  0103EA  6E35               	movwf	verifyPassword@user+1,c
  1710  0103EC  0E7E               	movlw	low _password
  1711  0103EE  6E36               	movwf	verifyPassword@pass,c
  1712  0103F0  0E00               	movlw	high _password
  1713  0103F2  6E37               	movwf	verifyPassword@pass+1,c
  1714  0103F4  EC79  F098         	call	_verifyPassword	;wreg free
  1715  0103F8  0060  F0D0  F04B   	movff	?_verifyPassword,_isPasswordTrue
  1716  0103FE  0060  F0D4  F04C   	movff	?_verifyPassword+1,_isPasswordTrue+1
  1717                           
  1718                           ;main.c: 229: resetPasswordEntry();
  1719  010404  ECC9  F098         	call	_resetPasswordEntry	;wreg free
  1720                           
  1721                           ;main.c: 231: if(isPasswordTrue == TRUE)
  1722  010408  500F               	movf	_TRUE,w,c
  1723  01040A  184B               	xorwf	_isPasswordTrue,w,c
  1724  01040C  E103               	bnz	u7741
  1725  01040E  5010               	movf	_TRUE+1,w,c
  1726  010410  184C               	xorwf	_isPasswordTrue+1,w,c
  1727  010412  A4D8               	btfss	16344,2,c
  1728  010414                     u7741:
  1729  010414  D0A9               	goto	l790
  1730                           
  1731                           ;main.c: 233: {;main.c: 234: serialSend('N');
  1732  010416  0E4E               	movlw	78
  1733  010418  EC4C  F09A         	call	_serialSend
  1734                           
  1735                           ;main.c: 235: keyIterrator = 0;
  1736  01041C  0E00               	movlw	0
  1737  01041E  6E4E               	movwf	_keyIterrator+1,c
  1738  010420  0E00               	movlw	0
  1739  010422  6E4D               	movwf	_keyIterrator,c
  1740                           
  1741                           ;main.c: 236: LCD_printAccepted();
  1742  010424  EC14  F095         	call	_LCD_printAccepted	;wreg free
  1743                           
  1744                           ;main.c: 237: LCD_Set_Cursor(1,1);
  1745  010428  0E00               	movlw	0
  1746  01042A  6E30               	movwf	LCD_Set_Cursor@c+1,c
  1747  01042C  0E01               	movlw	1
  1748  01042E  6E2F               	movwf	LCD_Set_Cursor@c,c
  1749  010430  0E00               	movlw	0
  1750  010432  6E32               	movwf	LCD_Set_Cursor@d+1,c
  1751  010434  0E01               	movlw	1
  1752  010436  6E31               	movwf	LCD_Set_Cursor@d,c
  1753  010438  ECE1  F098         	call	_LCD_Set_Cursor	;wreg free
  1754                           
  1755                           ;main.c: 238: LCD_Write_String("NEW PASSWORD    ");
  1756  01043C  0E15               	movlw	low STR_15
  1757  01043E  6E2F               	movwf	LCD_Write_String@f,c
  1758  010440  0EFF               	movlw	high STR_15
  1759  010442  6E30               	movwf	LCD_Write_String@f+1,c
  1760  010444  ECD8  F096         	call	_LCD_Write_String	;wreg free
  1761                           
  1762                           ;main.c: 239: LCD_resetPasswordEntry();
  1763  010448  EC95  F098         	call	_LCD_resetPasswordEntry	;wreg free
  1764                           
  1765                           ;main.c: 240: while (passwordChange == TRUE)
  1766  01044C  D085               	goto	l6961
  1767  01044E                     
  1768                           ;main.c: 241: {;main.c: 242: keypadOutput = keypadRead();
  1769  01044E  ECE0  F091         	call	_keypadRead	;wreg free
  1770  010452  0060  F0C4  F03B   	movff	?_keypadRead,_keypadOutput
  1771  010458  0060  F0C8  F03C   	movff	?_keypadRead+1,_keypadOutput+1
  1772                           
  1773                           ;main.c: 243: keyPressed = keypadOutput.keyPressed;
  1774  01045E  0060  F0EC  F04F   	movff	_keypadOutput,_keyPressed
  1775                           
  1776                           ;main.c: 244: keyHeld = keypadOutput.keyHeld;
  1777  010464  0060  F0F0  F050   	movff	_keypadOutput+1,_keyHeld
  1778                           
  1779                           ;main.c: 246: if (keyPressed != '#' && keyPressed != '*' && keyIterrator<7)
  1780  01046A  0E23               	movlw	35
  1781  01046C  184F               	xorwf	_keyPressed,w,c
  1782  01046E  B4D8               	btfsc	16344,2,c
  1783  010470  D02C               	goto	l793
  1784  010472  0E2A               	movlw	42
  1785  010474  184F               	xorwf	_keyPressed,w,c
  1786  010476  B4D8               	btfsc	16344,2,c
  1787  010478  D028               	goto	l793
  1788  01047A  BE4E               	btfsc	_keyIterrator+1,7,c
  1789  01047C  D006               	goto	u7770
  1790  01047E  504E               	movf	_keyIterrator+1,w,c
  1791  010480  E124               	bnz	l6937
  1792  010482  0E07               	movlw	7
  1793  010484  5C4D               	subwf	_keyIterrator,w,c
  1794  010486  B0D8               	btfsc	16344,0,c
  1795  010488  D020               	goto	l793
  1796  01048A                     u7770:
  1797                           
  1798                           ;main.c: 247: {;main.c: 248: serialSend('N');
  1799  01048A  0E4E               	movlw	78
  1800  01048C  EC4C  F09A         	call	_serialSend
  1801                           
  1802                           ;main.c: 249: serialSend(keyPressed);
  1803  010490  504F               	movf	_keyPressed,w,c
  1804  010492  EC4C  F09A         	call	_serialSend
  1805                           
  1806                           ;main.c: 250: userPswdEntry[keyIterrator] = keyPressed;
  1807  010496  0E99               	movlw	low _userPswdEntry
  1808  010498  244D               	addwf	_keyIterrator,w,c
  1809  01049A  6ED9               	movwf	16345,c
  1810  01049C  0E00               	movlw	high _userPswdEntry
  1811  01049E  204E               	addwfc	_keyIterrator+1,w,c
  1812  0104A0  6EDA               	movwf	16346,c
  1813  0104A2  0060  F13F  FFDF   	movff	_keyPressed,16351
  1814                           
  1815                           ;main.c: 251: keyIterrator++;
  1816  0104A8  4A4D               	infsnz	_keyIterrator,f,c
  1817  0104AA  2A4E               	incf	_keyIterrator+1,f,c
  1818                           
  1819                           ;main.c: 253: LCD_Set_Cursor(2,9+keyIterrator);
  1820  0104AC  0E00               	movlw	0
  1821  0104AE  6E30               	movwf	LCD_Set_Cursor@c+1,c
  1822  0104B0  0E02               	movlw	2
  1823  0104B2  6E2F               	movwf	LCD_Set_Cursor@c,c
  1824  0104B4  0E09               	movlw	9
  1825  0104B6  244D               	addwf	_keyIterrator,w,c
  1826  0104B8  6E31               	movwf	LCD_Set_Cursor@d,c
  1827  0104BA  0E00               	movlw	0
  1828  0104BC  204E               	addwfc	_keyIterrator+1,w,c
  1829  0104BE  6E32               	movwf	LCD_Set_Cursor@d+1,c
  1830  0104C0  ECE1  F098         	call	_LCD_Set_Cursor	;wreg free
  1831                           
  1832                           ;main.c: 255: LCD_Write_Char(keyPressed);
  1833  0104C4  504F               	movf	_keyPressed,w,c
  1834  0104C6  EC5B  F099         	call	_LCD_Write_Char
  1835  0104CA                     l793:
  1836  0104CA                     l6937:
  1837                           
  1838                           ;main.c: 256: };main.c: 258: if (keyPressed == '#' || keyPressed == '*'&& keyHeld == NON
      +                          E)
  1839  0104CA  0E23               	movlw	35
  1840  0104CC  184F               	xorwf	_keyPressed,w,c
  1841  0104CE  B4D8               	btfsc	16344,2,c
  1842  0104D0  D00F               	goto	u7800
  1843  0104D2  0E2A               	movlw	42
  1844  0104D4  184F               	xorwf	_keyPressed,w,c
  1845  0104D6  A4D8               	btfss	16344,2,c
  1846  0104D8  D03F               	goto	l6961
  1847  0104DA  5050               	movf	_keyHeld,w,c
  1848  0104DC  0100               	movlb	0	; () banked
  1849  0104DE  6F8F               	movwf	??_main& (0+255),b
  1850  0104E0  6B90               	clrf	(??_main+1)& (0+255),b
  1851  0104E2  503D               	movf	_NONE,w,c
  1852  0104E4  198F               	xorwf	??_main& (0+255),w,b
  1853  0104E6  E138               	bnz	l6963
  1854  0104E8  503E               	movf	_NONE+1,w,c
  1855  0104EA  1990               	xorwf	(??_main+1)& (0+255),w,b
  1856  0104EC  A4D8               	btfss	16344,2,c
  1857  0104EE  D034               	goto	l6961
  1858  0104F0                     u7800:
  1859                           
  1860                           ;main.c: 259: {;main.c: 260: serialSend('N');
  1861                           
  1862                           ; BSR set to: 0
  1863  0104F0  0E4E               	movlw	78
  1864  0104F2  EC4C  F09A         	call	_serialSend
  1865                           
  1866                           ;main.c: 261: serialSend('*');
  1867  0104F6  0E2A               	movlw	42
  1868  0104F8  EC4C  F09A         	call	_serialSend
  1869                           
  1870                           ;main.c: 262: for (int i=0;i<=6;i++){password[i] = userPswdEntry[i];}
  1871  0104FC  0E00               	movlw	0
  1872  0104FE  0100               	movlb	0	; () banked
  1873  010500  6F92               	movwf	(main@i+1)& (0+255),b
  1874  010502  0E00               	movlw	0
  1875  010504  6F91               	movwf	main@i& (0+255),b
  1876                           
  1877                           ; BSR set to: 0
  1878  010506  BF92               	btfsc	(main@i+1)& (0+255),7,b
  1879  010508  D003               	goto	l797
  1880  01050A  5192               	movf	(main@i+1)& (0+255),w,b
  1881  01050C  E11A               	bnz	l798
  1882  01050E  D015               	goto	L1
  1883  010510                     l797:
  1884                           
  1885                           ; BSR set to: 0
  1886                           
  1887                           ; BSR set to: 0
  1888  010510  0E99               	movlw	low _userPswdEntry
  1889  010512  2591               	addwf	main@i& (0+255),w,b
  1890  010514  6ED9               	movwf	16345,c
  1891  010516  0E00               	movlw	high _userPswdEntry
  1892  010518  2192               	addwfc	(main@i+1)& (0+255),w,b
  1893  01051A  6EDA               	movwf	16346,c
  1894  01051C  0E7E               	movlw	low _password
  1895  01051E  2591               	addwf	main@i& (0+255),w,b
  1896  010520  6EE1               	movwf	16353,c
  1897  010522  0E00               	movlw	high _password
  1898  010524  2192               	addwfc	(main@i+1)& (0+255),w,b
  1899  010526  6EE2               	movwf	16354,c
  1900  010528  006F FF7F FFE7     	movff	16351,16359
  1901                           
  1902                           ; BSR set to: 0
  1903  01052E  4B91               	infsnz	main@i& (0+255),f,b
  1904  010530  2B92               	incf	(main@i+1)& (0+255),f,b
  1905                           
  1906                           ; BSR set to: 0
  1907  010532  BF92               	btfsc	(main@i+1)& (0+255),7,b
  1908  010534  D7ED               	goto	l797
  1909  010536  5192               	movf	(main@i+1)& (0+255),w,b
  1910  010538  E104               	bnz	u7820
  1911  01053A                     L1:
  1912  01053A  0E07               	movlw	7
  1913  01053C  5D91               	subwf	main@i& (0+255),w,b
  1914  01053E  A0D8               	btfss	16344,0,c
  1915  010540  D7E7               	goto	l797
  1916  010542                     u7820:
  1917  010542                     l798:
  1918                           
  1919                           ; BSR set to: 0
  1920                           ;main.c: 263: passwordChange = FALSE;
  1921  010542  0060  F0FC  F047   	movff	_FALSE,_passwordChange
  1922  010548  0060  F100  F048   	movff	_FALSE+1,_passwordChange+1
  1923                           
  1924                           ; BSR set to: 0
  1925                           ;main.c: 264: resetPasswordEntry();
  1926  01054E  ECC9  F098         	call	_resetPasswordEntry	;wreg free
  1927                           
  1928                           ;main.c: 265: stanbyPageReset();
  1929  010552  ECDF  F097         	call	_stanbyPageReset	;wreg free
  1930                           
  1931                           ;main.c: 266: break;
  1932  010556  D01F               	goto	l802
  1933  010558                     l6961:
  1934  010558                     l6963:
  1935  010558  500F               	movf	_TRUE,w,c
  1936  01055A  1847               	xorwf	_passwordChange,w,c
  1937  01055C  E11C               	bnz	l6975
  1938  01055E  5010               	movf	_TRUE+1,w,c
  1939  010560  1848               	xorwf	_passwordChange+1,w,c
  1940  010562  A4D8               	btfss	16344,2,c
  1941  010564  D018               	goto	l802
  1942  010566  D773               	goto	l792
  1943  010568                     l790:
  1944                           
  1945                           ;main.c: 273: else if (isPasswordTrue == FALSE)
  1946  010568  503F               	movf	_FALSE,w,c
  1947  01056A  184B               	xorwf	_isPasswordTrue,w,c
  1948  01056C  E114               	bnz	l6975
  1949  01056E  5040               	movf	_FALSE+1,w,c
  1950  010570  184C               	xorwf	_isPasswordTrue+1,w,c
  1951  010572  A4D8               	btfss	16344,2,c
  1952  010574  D010               	goto	l802
  1953                           
  1954                           ;main.c: 274: {;main.c: 275: passwordChange = FALSE;
  1955  010576  0060  F0FC  F047   	movff	_FALSE,_passwordChange
  1956  01057C  0060  F100  F048   	movff	_FALSE+1,_passwordChange+1
  1957                           
  1958                           ;main.c: 276: LCD_printDeclined();
  1959  010582  ECB8  F094         	call	_LCD_printDeclined	;wreg free
  1960                           
  1961                           ;main.c: 277: resetEntry(userPswdEntry);
  1962  010586  0E99               	movlw	low _userPswdEntry
  1963  010588  6E34               	movwf	resetEntry@str,c
  1964  01058A  0E00               	movlw	high _userPswdEntry
  1965  01058C  6E35               	movwf	resetEntry@str+1,c
  1966  01058E  EC21  F098         	call	_resetEntry	;wreg free
  1967                           
  1968                           ;main.c: 278: stanbyPageReset();
  1969  010592  ECDF  F097         	call	_stanbyPageReset	;wreg free
  1970  010596                     l802:
  1971  010596                     l6975:
  1972  010596  500F               	movf	_TRUE,w,c
  1973  010598  1847               	xorwf	_passwordChange,w,c
  1974  01059A  E104               	bnz	l6977
  1975  01059C  5010               	movf	_TRUE+1,w,c
  1976  01059E  1848               	xorwf	_passwordChange+1,w,c
  1977  0105A0  B4D8               	btfsc	16344,2,c
  1978  0105A2  D6CC               	goto	l785
  1979  0105A4                     u7850:
  1980  0105A4                     l6977:
  1981                           
  1982                           ;main.c: 280: };main.c: 281: };main.c: 282: };main.c: 283: };main.c: 285: };main.c: 287:
      +                           if (gameMode ==1)
  1983  0105A4  040D               	decf	_gameMode,w,c
  1984  0105A6  100E               	iorwf	_gameMode+1,w,c
  1985  0105A8  A4D8               	btfss	16344,2,c
  1986  0105AA  D52E               	goto	l766
  1987                           
  1988                           ;main.c: 288: {;main.c: 289: passwordChange = TRUE;
  1989  0105AC  0060  F03C  F047   	movff	_TRUE,_passwordChange
  1990  0105B2  0060  F040  F048   	movff	_TRUE+1,_passwordChange+1
  1991                           
  1992                           ;main.c: 290: serialSend('N');
  1993  0105B8  0E4E               	movlw	78
  1994  0105BA  EC4C  F09A         	call	_serialSend
  1995                           
  1996                           ;main.c: 291: keyIterrator = 0;
  1997  0105BE  0E00               	movlw	0
  1998  0105C0  6E4E               	movwf	_keyIterrator+1,c
  1999  0105C2  0E00               	movlw	0
  2000  0105C4  6E4D               	movwf	_keyIterrator,c
  2001                           
  2002                           ;main.c: 292: LCD_Set_Cursor(1,1);
  2003  0105C6  0E00               	movlw	0
  2004  0105C8  6E30               	movwf	LCD_Set_Cursor@c+1,c
  2005  0105CA  0E01               	movlw	1
  2006  0105CC  6E2F               	movwf	LCD_Set_Cursor@c,c
  2007  0105CE  0E00               	movlw	0
  2008  0105D0  6E32               	movwf	LCD_Set_Cursor@d+1,c
  2009  0105D2  0E01               	movlw	1
  2010  0105D4  6E31               	movwf	LCD_Set_Cursor@d,c
  2011  0105D6  ECE1  F098         	call	_LCD_Set_Cursor	;wreg free
  2012                           
  2013                           ;main.c: 293: LCD_Write_String("NEW PASSWORD    ");
  2014  0105DA  0E15               	movlw	low STR_15
  2015  0105DC  6E2F               	movwf	LCD_Write_String@f,c
  2016  0105DE  0EFF               	movlw	high STR_15
  2017  0105E0  6E30               	movwf	LCD_Write_String@f+1,c
  2018  0105E2  ECD8  F096         	call	_LCD_Write_String	;wreg free
  2019                           
  2020                           ;main.c: 294: LCD_resetPasswordEntry();
  2021  0105E6  EC95  F098         	call	_LCD_resetPasswordEntry	;wreg free
  2022                           
  2023                           ;main.c: 295: while (passwordChange == TRUE)
  2024  0105EA  D085               	goto	l7039
  2025  0105EC                     
  2026                           ;main.c: 296: {;main.c: 297: keypadOutput = keypadRead();
  2027  0105EC  ECE0  F091         	call	_keypadRead	;wreg free
  2028  0105F0  0060  F0C4  F03B   	movff	?_keypadRead,_keypadOutput
  2029  0105F6  0060  F0C8  F03C   	movff	?_keypadRead+1,_keypadOutput+1
  2030                           
  2031                           ;main.c: 298: keyPressed = keypadOutput.keyPressed;
  2032  0105FC  0060  F0EC  F04F   	movff	_keypadOutput,_keyPressed
  2033                           
  2034                           ;main.c: 299: keyHeld = keypadOutput.keyHeld;
  2035  010602  0060  F0F0  F050   	movff	_keypadOutput+1,_keyHeld
  2036                           
  2037                           ;main.c: 301: if (keyPressed != '#' && keyPressed != '*' && keyIterrator<7)
  2038  010608  0E23               	movlw	35
  2039  01060A  184F               	xorwf	_keyPressed,w,c
  2040  01060C  B4D8               	btfsc	16344,2,c
  2041  01060E  D02C               	goto	l807
  2042  010610  0E2A               	movlw	42
  2043  010612  184F               	xorwf	_keyPressed,w,c
  2044  010614  B4D8               	btfsc	16344,2,c
  2045  010616  D028               	goto	l807
  2046  010618  BE4E               	btfsc	_keyIterrator+1,7,c
  2047  01061A  D006               	goto	u7890
  2048  01061C  504E               	movf	_keyIterrator+1,w,c
  2049  01061E  E124               	bnz	l7015
  2050  010620  0E07               	movlw	7
  2051  010622  5C4D               	subwf	_keyIterrator,w,c
  2052  010624  B0D8               	btfsc	16344,0,c
  2053  010626  D020               	goto	l807
  2054  010628                     u7890:
  2055                           
  2056                           ;main.c: 302: {;main.c: 303: serialSend('N');
  2057  010628  0E4E               	movlw	78
  2058  01062A  EC4C  F09A         	call	_serialSend
  2059                           
  2060                           ;main.c: 304: serialSend(keyPressed);
  2061  01062E  504F               	movf	_keyPressed,w,c
  2062  010630  EC4C  F09A         	call	_serialSend
  2063                           
  2064                           ;main.c: 305: userPswdEntry[keyIterrator] = keyPressed;
  2065  010634  0E99               	movlw	low _userPswdEntry
  2066  010636  244D               	addwf	_keyIterrator,w,c
  2067  010638  6ED9               	movwf	16345,c
  2068  01063A  0E00               	movlw	high _userPswdEntry
  2069  01063C  204E               	addwfc	_keyIterrator+1,w,c
  2070  01063E  6EDA               	movwf	16346,c
  2071  010640  0060  F13F  FFDF   	movff	_keyPressed,16351
  2072                           
  2073                           ;main.c: 306: keyIterrator++;
  2074  010646  4A4D               	infsnz	_keyIterrator,f,c
  2075  010648  2A4E               	incf	_keyIterrator+1,f,c
  2076                           
  2077                           ;main.c: 308: LCD_Set_Cursor(2,9+keyIterrator);
  2078  01064A  0E00               	movlw	0
  2079  01064C  6E30               	movwf	LCD_Set_Cursor@c+1,c
  2080  01064E  0E02               	movlw	2
  2081  010650  6E2F               	movwf	LCD_Set_Cursor@c,c
  2082  010652  0E09               	movlw	9
  2083  010654  244D               	addwf	_keyIterrator,w,c
  2084  010656  6E31               	movwf	LCD_Set_Cursor@d,c
  2085  010658  0E00               	movlw	0
  2086  01065A  204E               	addwfc	_keyIterrator+1,w,c
  2087  01065C  6E32               	movwf	LCD_Set_Cursor@d+1,c
  2088  01065E  ECE1  F098         	call	_LCD_Set_Cursor	;wreg free
  2089                           
  2090                           ;main.c: 310: LCD_Write_Char(keyPressed);
  2091  010662  504F               	movf	_keyPressed,w,c
  2092  010664  EC5B  F099         	call	_LCD_Write_Char
  2093  010668                     l807:
  2094  010668                     l7015:
  2095                           
  2096                           ;main.c: 311: };main.c: 313: if (keyPressed == '#' || keyPressed == '*'&& keyHeld == NON
      +                          E)
  2097  010668  0E23               	movlw	35
  2098  01066A  184F               	xorwf	_keyPressed,w,c
  2099  01066C  B4D8               	btfsc	16344,2,c
  2100  01066E  D00F               	goto	u7920
  2101  010670  0E2A               	movlw	42
  2102  010672  184F               	xorwf	_keyPressed,w,c
  2103  010674  A4D8               	btfss	16344,2,c
  2104  010676  D03F               	goto	l7039
  2105  010678  5050               	movf	_keyHeld,w,c
  2106  01067A  0100               	movlb	0	; () banked
  2107  01067C  6F8F               	movwf	??_main& (0+255),b
  2108  01067E  6B90               	clrf	(??_main+1)& (0+255),b
  2109  010680  503D               	movf	_NONE,w,c
  2110  010682  198F               	xorwf	??_main& (0+255),w,b
  2111  010684  E138               	bnz	l7041
  2112  010686  503E               	movf	_NONE+1,w,c
  2113  010688  1990               	xorwf	(??_main+1)& (0+255),w,b
  2114  01068A  A4D8               	btfss	16344,2,c
  2115  01068C  D034               	goto	l7039
  2116  01068E                     u7920:
  2117                           
  2118                           ;main.c: 314: {;main.c: 315: serialSend('N');
  2119                           
  2120                           ; BSR set to: 0
  2121  01068E  0E4E               	movlw	78
  2122  010690  EC4C  F09A         	call	_serialSend
  2123                           
  2124                           ;main.c: 316: serialSend('*');
  2125  010694  0E2A               	movlw	42
  2126  010696  EC4C  F09A         	call	_serialSend
  2127                           
  2128                           ;main.c: 317: for (int i=0;i<=6;i++){password[i] = userPswdEntry[i];}
  2129  01069A  0E00               	movlw	0
  2130  01069C  0100               	movlb	0	; () banked
  2131  01069E  6F94               	movwf	(main@i_1238+1)& (0+255),b
  2132  0106A0  0E00               	movlw	0
  2133  0106A2  6F93               	movwf	main@i_1238& (0+255),b
  2134                           
  2135                           ; BSR set to: 0
  2136  0106A4  BF94               	btfsc	(main@i_1238+1)& (0+255),7,b
  2137  0106A6  D003               	goto	l811
  2138  0106A8  5194               	movf	(main@i_1238+1)& (0+255),w,b
  2139  0106AA  E11A               	bnz	l812
  2140  0106AC  D015               	goto	L2
  2141  0106AE                     l811:
  2142                           
  2143                           ; BSR set to: 0
  2144                           
  2145                           ; BSR set to: 0
  2146  0106AE  0E99               	movlw	low _userPswdEntry
  2147  0106B0  2593               	addwf	main@i_1238& (0+255),w,b
  2148  0106B2  6ED9               	movwf	16345,c
  2149  0106B4  0E00               	movlw	high _userPswdEntry
  2150  0106B6  2194               	addwfc	(main@i_1238+1)& (0+255),w,b
  2151  0106B8  6EDA               	movwf	16346,c
  2152  0106BA  0E7E               	movlw	low _password
  2153  0106BC  2593               	addwf	main@i_1238& (0+255),w,b
  2154  0106BE  6EE1               	movwf	16353,c
  2155  0106C0  0E00               	movlw	high _password
  2156  0106C2  2194               	addwfc	(main@i_1238+1)& (0+255),w,b
  2157  0106C4  6EE2               	movwf	16354,c
  2158  0106C6  006F FF7F FFE7     	movff	16351,16359
  2159                           
  2160                           ; BSR set to: 0
  2161  0106CC  4B93               	infsnz	main@i_1238& (0+255),f,b
  2162  0106CE  2B94               	incf	(main@i_1238+1)& (0+255),f,b
  2163                           
  2164                           ; BSR set to: 0
  2165  0106D0  BF94               	btfsc	(main@i_1238+1)& (0+255),7,b
  2166  0106D2  D7ED               	goto	l811
  2167  0106D4  5194               	movf	(main@i_1238+1)& (0+255),w,b
  2168  0106D6  E104               	bnz	u7940
  2169  0106D8                     L2:
  2170  0106D8  0E07               	movlw	7
  2171  0106DA  5D93               	subwf	main@i_1238& (0+255),w,b
  2172  0106DC  A0D8               	btfss	16344,0,c
  2173  0106DE  D7E7               	goto	l811
  2174  0106E0                     u7940:
  2175  0106E0                     l812:
  2176                           
  2177                           ; BSR set to: 0
  2178                           ;main.c: 318: passwordChange = FALSE;
  2179  0106E0  0060  F0FC  F047   	movff	_FALSE,_passwordChange
  2180  0106E6  0060  F100  F048   	movff	_FALSE+1,_passwordChange+1
  2181                           
  2182                           ; BSR set to: 0
  2183                           ;main.c: 319: resetPasswordEntry();
  2184  0106EC  ECC9  F098         	call	_resetPasswordEntry	;wreg free
  2185                           
  2186                           ;main.c: 320: stanbyPageReset();
  2187  0106F0  ECDF  F097         	call	_stanbyPageReset	;wreg free
  2188                           
  2189                           ;main.c: 321: break;
  2190  0106F4  D489               	goto	l766
  2191  0106F6                     l7039:
  2192  0106F6                     l7041:
  2193  0106F6  500F               	movf	_TRUE,w,c
  2194  0106F8  1847               	xorwf	_passwordChange,w,c
  2195  0106FA  E105               	bnz	u7950
  2196  0106FC  5010               	movf	_TRUE+1,w,c
  2197  0106FE  1848               	xorwf	_passwordChange+1,w,c
  2198  010700  A4D8               	btfss	16344,2,c
  2199  010702  D482               	goto	l766
  2200  010704  D773               	goto	l806
  2201  010706                     u7950:
  2202                           
  2203                           ;main.c: 326: }};main.c: 327: }
  2204  010706  D480               	goto	l766
  2205  010708                     l782:
  2206                           
  2207                           ;main.c: 329: else if(keyPressed == '*' && keyHeld == '*')
  2208  010708  0E2A               	movlw	42
  2209  01070A  184F               	xorwf	_keyPressed,w,c
  2210  01070C  A4D8               	btfss	16344,2,c
  2211  01070E  D114               	goto	l816
  2212  010710  0E2A               	movlw	42
  2213  010712  1850               	xorwf	_keyHeld,w,c
  2214  010714  A4D8               	btfss	16344,2,c
  2215  010716  D110               	goto	l816
  2216                           
  2217                           ;main.c: 330: {;main.c: 331: timerChange = TRUE;
  2218  010718  0060  F03C  F049   	movff	_TRUE,_timerChange
  2219  01071E  0060  F040  F04A   	movff	_TRUE+1,_timerChange+1
  2220                           
  2221                           ;main.c: 332: LCD_Set_Cursor(2,1);
  2222  010724  0E00               	movlw	0
  2223  010726  6E30               	movwf	LCD_Set_Cursor@c+1,c
  2224  010728  0E02               	movlw	2
  2225  01072A  6E2F               	movwf	LCD_Set_Cursor@c,c
  2226  01072C  0E00               	movlw	0
  2227  01072E  6E32               	movwf	LCD_Set_Cursor@d+1,c
  2228  010730  0E01               	movlw	1
  2229  010732  6E31               	movwf	LCD_Set_Cursor@d,c
  2230  010734  ECE1  F098         	call	_LCD_Set_Cursor	;wreg free
  2231                           
  2232                           ;main.c: 333: LCD_Write_String("TIMER CHANGE");
  2233  010738  0EBF               	movlw	low STR_17
  2234  01073A  6E2F               	movwf	LCD_Write_String@f,c
  2235  01073C  0EFF               	movlw	high STR_17
  2236  01073E  6E30               	movwf	LCD_Write_String@f+1,c
  2237  010740  ECD8  F096         	call	_LCD_Write_String	;wreg free
  2238                           
  2239                           ;main.c: 335: int cursorPos = 0;
  2240  010744  0E00               	movlw	0
  2241  010746  0100               	movlb	0	; () banked
  2242  010748  6F96               	movwf	(main@cursorPos+1)& (0+255),b
  2243  01074A  0E00               	movlw	0
  2244  01074C  6F95               	movwf	main@cursorPos& (0+255),b
  2245                           
  2246                           ; BSR set to: 0
  2247                           ;main.c: 336: LCD_printInitialCountdown();
  2248  01074E  EC4F  F097         	call	_LCD_printInitialCountdown	;wreg free
  2249                           
  2250                           ;main.c: 337: LCD_Set_Cursor(1,9);
  2251  010752  0E00               	movlw	0
  2252  010754  6E30               	movwf	LCD_Set_Cursor@c+1,c
  2253  010756  0E01               	movlw	1
  2254  010758  6E2F               	movwf	LCD_Set_Cursor@c,c
  2255  01075A  0E00               	movlw	0
  2256  01075C  6E32               	movwf	LCD_Set_Cursor@d+1,c
  2257  01075E  0E09               	movlw	9
  2258  010760  6E31               	movwf	LCD_Set_Cursor@d,c
  2259  010762  ECE1  F098         	call	_LCD_Set_Cursor	;wreg free
  2260                           
  2261                           ;main.c: 338: LCD_Cursor_Blink_On();
  2262  010766  EC56  F09A         	call	_LCD_Cursor_Blink_On	;wreg free
  2263                           
  2264                           ;main.c: 340: while(timerChange == TRUE)
  2265  01076A  D0D1               	goto	l851
  2266  01076C                     
  2267                           ;main.c: 341: {;main.c: 342: keypadOutput = keypadRead();
  2268  01076C  ECE0  F091         	call	_keypadRead	;wreg free
  2269  010770  0060  F0C4  F03B   	movff	?_keypadRead,_keypadOutput
  2270  010776  0060  F0C8  F03C   	movff	?_keypadRead+1,_keypadOutput+1
  2271                           
  2272                           ;main.c: 343: keyPressed = keypadOutput.keyPressed;
  2273  01077C  0060  F0EC  F04F   	movff	_keypadOutput,_keyPressed
  2274                           
  2275                           ;main.c: 344: keyHeld = keypadOutput.keyHeld;
  2276  010782  0060  F0F0  F050   	movff	_keypadOutput+1,_keyHeld
  2277                           
  2278                           ;main.c: 346: if(keyHeld == NONE && keyPressed == '#')
  2279  010788  5050               	movf	_keyHeld,w,c
  2280  01078A  0100               	movlb	0	; () banked
  2281  01078C  6F8F               	movwf	??_main& (0+255),b
  2282  01078E  6B90               	clrf	(??_main+1)& (0+255),b
  2283  010790  503D               	movf	_NONE,w,c
  2284  010792  198F               	xorwf	??_main& (0+255),w,b
  2285  010794  E138               	bnz	l7107
  2286  010796  503E               	movf	_NONE+1,w,c
  2287  010798  1990               	xorwf	(??_main+1)& (0+255),w,b
  2288  01079A  A4D8               	btfss	16344,2,c
  2289  01079C  D034               	goto	l819
  2290                           
  2291                           ; BSR set to: 0
  2292  01079E  0E23               	movlw	35
  2293  0107A0  184F               	xorwf	_keyPressed,w,c
  2294  0107A2  A4D8               	btfss	16344,2,c
  2295  0107A4  D030               	goto	l819
  2296                           
  2297                           ; BSR set to: 0
  2298                           ;main.c: 347: {;main.c: 348: if(cursorPos==0){LCD_Cursor_Right();cursorPos++;}
  2299  0107A6  5195               	movf	main@cursorPos& (0+255),w,b
  2300  0107A8  1196               	iorwf	(main@cursorPos+1)& (0+255),w,b
  2301  0107AA  A4D8               	btfss	16344,2,c
  2302  0107AC  D003               	goto	l820
  2303                           
  2304                           ; BSR set to: 0
  2305  0107AE  EC5E  F09A         	call	_LCD_Cursor_Right	;wreg free
  2306  0107B2  D025               	goto	l7103
  2307  0107B4                     l820:
  2308                           
  2309                           ; BSR set to: 0
  2310                           ;main.c: 349: else if(cursorPos==1){LCD_Cursor_Right();LCD_Cursor_Right();cursorPos++;cu
      +                          rsorPos++;}
  2311                           
  2312                           ; BSR set to: 0
  2313  0107B4  0595               	decf	main@cursorPos& (0+255),w,b
  2314  0107B6  1196               	iorwf	(main@cursorPos+1)& (0+255),w,b
  2315  0107B8  A4D8               	btfss	16344,2,c
  2316  0107BA  D008               	goto	l822
  2317                           
  2318                           ; BSR set to: 0
  2319  0107BC  EC5E  F09A         	call	_LCD_Cursor_Right	;wreg free
  2320  0107C0  EC5E  F09A         	call	_LCD_Cursor_Right	;wreg free
  2321  0107C4                     l7081:
  2322  0107C4  0100               	movlb	0	; () banked
  2323  0107C6  4B95               	infsnz	main@cursorPos& (0+255),f,b
  2324  0107C8  2B96               	incf	(main@cursorPos+1)& (0+255),f,b
  2325  0107CA  D01A               	goto	L4
  2326  0107CC                     l822:
  2327                           
  2328                           ; BSR set to: 0
  2329                           ;main.c: 350: else if(cursorPos==3){LCD_Cursor_Right();cursorPos++;}
  2330                           
  2331                           ; BSR set to: 0
  2332  0107CC  0E03               	movlw	3
  2333  0107CE  1995               	xorwf	main@cursorPos& (0+255),w,b
  2334  0107D0  1196               	iorwf	(main@cursorPos+1)& (0+255),w,b
  2335  0107D2  A4D8               	btfss	16344,2,c
  2336  0107D4  D003               	goto	l824
  2337                           
  2338                           ; BSR set to: 0
  2339  0107D6  EC5E  F09A         	call	_LCD_Cursor_Right	;wreg free
  2340  0107DA  D011               	goto	l7103
  2341  0107DC                     l824:
  2342                           
  2343                           ; BSR set to: 0
  2344                           ;main.c: 351: else if(cursorPos==4){LCD_Cursor_Right();LCD_Cursor_Right();cursorPos++;cu
      +                          rsorPos++;}
  2345                           
  2346                           ; BSR set to: 0
  2347  0107DC  0E04               	movlw	4
  2348  0107DE  1995               	xorwf	main@cursorPos& (0+255),w,b
  2349  0107E0  1196               	iorwf	(main@cursorPos+1)& (0+255),w,b
  2350  0107E2  A4D8               	btfss	16344,2,c
  2351  0107E4  D005               	goto	l826
  2352                           
  2353                           ; BSR set to: 0
  2354  0107E6  EC5E  F09A         	call	_LCD_Cursor_Right	;wreg free
  2355  0107EA  EC5E  F09A         	call	_LCD_Cursor_Right	;wreg free
  2356  0107EE  D7EA               	goto	l7081
  2357  0107F0                     l826:
  2358                           
  2359                           ; BSR set to: 0
  2360                           ;main.c: 352: else if(cursorPos==6){LCD_Cursor_Right();cursorPos++;}
  2361                           
  2362                           ; BSR set to: 0
  2363  0107F0  0E06               	movlw	6
  2364  0107F2  1995               	xorwf	main@cursorPos& (0+255),w,b
  2365  0107F4  1196               	iorwf	(main@cursorPos+1)& (0+255),w,b
  2366  0107F6  A4D8               	btfss	16344,2,c
  2367  0107F8  D08A               	goto	l851
  2368                           
  2369                           ; BSR set to: 0
  2370  0107FA  EC5E  F09A         	call	_LCD_Cursor_Right	;wreg free
  2371  0107FE                     l7103:
  2372  0107FE  0100               	movlb	0	; () banked
  2373  010800                     L4:
  2374  010800  4B95               	infsnz	main@cursorPos& (0+255),f,b
  2375  010802  2B96               	incf	(main@cursorPos+1)& (0+255),f,b
  2376                           
  2377                           ; BSR set to: 0
  2378                           ;main.c: 354: }
  2379                           
  2380                           ; BSR set to: 0
  2381                           
  2382                           ; BSR set to: 0
  2383                           
  2384                           ; BSR set to: 0
  2385                           
  2386                           ; BSR set to: 0
  2387                           
  2388                           ; BSR set to: 0
  2389                           
  2390                           ; BSR set to: 0
  2391                           
  2392                           ; BSR set to: 0
  2393  010804  D084               	goto	l851
  2394  010806                     l819:
  2395  010806                     l7107:
  2396                           
  2397                           ; BSR set to: 0
  2398                           ;main.c: 356: else if (keyHeld == NONE && keyPressed == '*')
  2399  010806  5050               	movf	_keyHeld,w,c
  2400  010808  6F8F               	movwf	??_main& (0+255),b
  2401  01080A  6B90               	clrf	(??_main+1)& (0+255),b
  2402  01080C  503D               	movf	_NONE,w,c
  2403  01080E  198F               	xorwf	??_main& (0+255),w,b
  2404  010810  E140               	bnz	l7149
  2405  010812  503E               	movf	_NONE+1,w,c
  2406  010814  1990               	xorwf	(??_main+1)& (0+255),w,b
  2407  010816  A4D8               	btfss	16344,2,c
  2408  010818  D03C               	goto	l832
  2409                           
  2410                           ; BSR set to: 0
  2411  01081A  0E2A               	movlw	42
  2412  01081C  184F               	xorwf	_keyPressed,w,c
  2413  01081E  A4D8               	btfss	16344,2,c
  2414  010820  D038               	goto	l832
  2415                           
  2416                           ; BSR set to: 0
  2417                           ;main.c: 357: {;main.c: 358: if(cursorPos==0){}
  2418  010822  5195               	movf	main@cursorPos& (0+255),w,b
  2419  010824  1196               	iorwf	(main@cursorPos+1)& (0+255),w,b
  2420  010826  B4D8               	btfsc	16344,2,c
  2421  010828  D072               	goto	l851
  2422                           
  2423                           ; BSR set to: 0
  2424                           ;main.c: 359: else if(cursorPos==1){LCD_Cursor_Left();cursorPos--;}
  2425                           
  2426                           ; BSR set to: 0
  2427                           
  2428                           ; BSR set to: 0
  2429  01082A  0595               	decf	main@cursorPos& (0+255),w,b
  2430  01082C  1196               	iorwf	(main@cursorPos+1)& (0+255),w,b
  2431  01082E  A4D8               	btfss	16344,2,c
  2432  010830  D004               	goto	l835
  2433                           
  2434                           ; BSR set to: 0
  2435  010832  EC62  F09A         	call	_LCD_Cursor_Left	;wreg free
  2436  010836                     l7119:
  2437  010836  0100               	movlb	0	; () banked
  2438  010838  D028               	goto	L6
  2439  01083A                     l835:
  2440                           
  2441                           ; BSR set to: 0
  2442                           ;main.c: 360: else if(cursorPos==3){LCD_Cursor_Left();LCD_Cursor_Left();cursorPos--;curs
      +                          orPos--;}
  2443                           
  2444                           ; BSR set to: 0
  2445  01083A  0E03               	movlw	3
  2446  01083C  1995               	xorwf	main@cursorPos& (0+255),w,b
  2447  01083E  1196               	iorwf	(main@cursorPos+1)& (0+255),w,b
  2448  010840  A4D8               	btfss	16344,2,c
  2449  010842  D009               	goto	l837
  2450                           
  2451                           ; BSR set to: 0
  2452  010844  EC62  F09A         	call	_LCD_Cursor_Left	;wreg free
  2453  010848  EC62  F09A         	call	_LCD_Cursor_Left	;wreg free
  2454  01084C                     l7125:
  2455  01084C  0100               	movlb	0	; () banked
  2456  01084E  0795               	decf	main@cursorPos& (0+255),f,b
  2457  010850  A0D8               	btfss	16344,0,c
  2458  010852  0796               	decf	(main@cursorPos+1)& (0+255),f,b
  2459  010854  D01A               	goto	L6
  2460  010856                     l837:
  2461                           
  2462                           ; BSR set to: 0
  2463                           ;main.c: 361: else if(cursorPos==4){LCD_Cursor_Left();cursorPos--;}
  2464                           
  2465                           ; BSR set to: 0
  2466  010856  0E04               	movlw	4
  2467  010858  1995               	xorwf	main@cursorPos& (0+255),w,b
  2468  01085A  1196               	iorwf	(main@cursorPos+1)& (0+255),w,b
  2469  01085C  A4D8               	btfss	16344,2,c
  2470  01085E  D003               	goto	l839
  2471                           
  2472                           ; BSR set to: 0
  2473  010860  EC62  F09A         	call	_LCD_Cursor_Left	;wreg free
  2474  010864  D7E8               	goto	l7119
  2475  010866                     l839:
  2476                           
  2477                           ; BSR set to: 0
  2478                           ;main.c: 362: else if(cursorPos==6){LCD_Cursor_Left();LCD_Cursor_Left();cursorPos--;curs
      +                          orPos--;}
  2479                           
  2480                           ; BSR set to: 0
  2481  010866  0E06               	movlw	6
  2482  010868  1995               	xorwf	main@cursorPos& (0+255),w,b
  2483  01086A  1196               	iorwf	(main@cursorPos+1)& (0+255),w,b
  2484  01086C  A4D8               	btfss	16344,2,c
  2485  01086E  D005               	goto	l841
  2486                           
  2487                           ; BSR set to: 0
  2488  010870  EC62  F09A         	call	_LCD_Cursor_Left	;wreg free
  2489  010874  EC62  F09A         	call	_LCD_Cursor_Left	;wreg free
  2490  010878  D7E9               	goto	l7125
  2491  01087A                     l841:
  2492                           
  2493                           ; BSR set to: 0
  2494                           ;main.c: 363: else if(cursorPos==7){LCD_Cursor_Left();cursorPos--;}
  2495                           
  2496                           ; BSR set to: 0
  2497  01087A  0E07               	movlw	7
  2498  01087C  1995               	xorwf	main@cursorPos& (0+255),w,b
  2499  01087E  1196               	iorwf	(main@cursorPos+1)& (0+255),w,b
  2500  010880  A4D8               	btfss	16344,2,c
  2501  010882  D045               	goto	l851
  2502                           
  2503                           ; BSR set to: 0
  2504  010884  EC62  F09A         	call	_LCD_Cursor_Left	;wreg free
  2505  010888  D7D6               	goto	l7119
  2506  01088A                     L6:
  2507  01088A  0795               	decf	main@cursorPos& (0+255),f,b
  2508  01088C  A0D8               	btfss	16344,0,c
  2509  01088E  0796               	decf	(main@cursorPos+1)& (0+255),f,b
  2510                           
  2511                           ; BSR set to: 0
  2512                           ;main.c: 364: }
  2513                           
  2514                           ; BSR set to: 0
  2515                           
  2516                           ; BSR set to: 0
  2517                           
  2518                           ; BSR set to: 0
  2519                           
  2520                           ; BSR set to: 0
  2521                           
  2522                           ; BSR set to: 0
  2523  010890  D03E               	goto	l851
  2524  010892                     l832:
  2525  010892                     l7149:
  2526                           
  2527                           ; BSR set to: 0
  2528                           ;main.c: 366: else if (keyHeld == NONE)
  2529  010892  5050               	movf	_keyHeld,w,c
  2530  010894  6F8F               	movwf	??_main& (0+255),b
  2531  010896  6B90               	clrf	(??_main+1)& (0+255),b
  2532  010898  503D               	movf	_NONE,w,c
  2533  01089A  198F               	xorwf	??_main& (0+255),w,b
  2534  01089C  E12A               	bnz	l7171
  2535  01089E  503E               	movf	_NONE+1,w,c
  2536  0108A0  1990               	xorwf	(??_main+1)& (0+255),w,b
  2537  0108A2  A4D8               	btfss	16344,2,c
  2538  0108A4  D026               	goto	l845
  2539                           
  2540                           ; BSR set to: 0
  2541                           ;main.c: 367: {;main.c: 368: strCountdownInitialTime[cursorPos] = keyPressed;
  2542  0108A6  0E6C               	movlw	low _strCountdownInitialTime
  2543  0108A8  2595               	addwf	main@cursorPos& (0+255),w,b
  2544  0108AA  6ED9               	movwf	16345,c
  2545  0108AC  0E00               	movlw	high _strCountdownInitialTime
  2546  0108AE  2196               	addwfc	(main@cursorPos+1)& (0+255),w,b
  2547  0108B0  6EDA               	movwf	16346,c
  2548  0108B2  0060  F13F  FFDF   	movff	_keyPressed,16351
  2549                           
  2550                           ; BSR set to: 0
  2551                           ;main.c: 369: LCD_Write_Char(keyPressed);
  2552  0108B8  504F               	movf	_keyPressed,w,c
  2553  0108BA  EC5B  F099         	call	_LCD_Write_Char
  2554                           
  2555                           ;main.c: 370: cursorPos++;
  2556  0108BE  0100               	movlb	0	; () banked
  2557  0108C0  4B95               	infsnz	main@cursorPos& (0+255),f,b
  2558  0108C2  2B96               	incf	(main@cursorPos+1)& (0+255),f,b
  2559                           
  2560                           ; BSR set to: 0
  2561                           ;main.c: 371: if(cursorPos == 2 || cursorPos == 5){LCD_Cursor_Right();cursorPos++;}
  2562  0108C4  0E02               	movlw	2
  2563  0108C6  1995               	xorwf	main@cursorPos& (0+255),w,b
  2564  0108C8  1196               	iorwf	(main@cursorPos+1)& (0+255),w,b
  2565  0108CA  B4D8               	btfsc	16344,2,c
  2566  0108CC  D005               	goto	u8150
  2567                           
  2568                           ; BSR set to: 0
  2569  0108CE  0E05               	movlw	5
  2570  0108D0  1995               	xorwf	main@cursorPos& (0+255),w,b
  2571  0108D2  1196               	iorwf	(main@cursorPos+1)& (0+255),w,b
  2572  0108D4  A4D8               	btfss	16344,2,c
  2573  0108D6  D005               	goto	l846
  2574  0108D8                     u8150:
  2575                           
  2576                           ; BSR set to: 0
  2577                           
  2578                           ; BSR set to: 0
  2579  0108D8  EC5E  F09A         	call	_LCD_Cursor_Right	;wreg free
  2580  0108DC  0100               	movlb	0	; () banked
  2581  0108DE  4B95               	infsnz	main@cursorPos& (0+255),f,b
  2582  0108E0  2B96               	incf	(main@cursorPos+1)& (0+255),f,b
  2583  0108E2                     l846:
  2584                           
  2585                           ; BSR set to: 0
  2586                           ;main.c: 372: if(cursorPos == 8){LCD_Cursor_Left();cursorPos--;}
  2587                           
  2588                           ; BSR set to: 0
  2589  0108E2  0E08               	movlw	8
  2590  0108E4  1995               	xorwf	main@cursorPos& (0+255),w,b
  2591  0108E6  1196               	iorwf	(main@cursorPos+1)& (0+255),w,b
  2592  0108E8  A4D8               	btfss	16344,2,c
  2593  0108EA  D011               	goto	l851
  2594                           
  2595                           ; BSR set to: 0
  2596  0108EC  EC62  F09A         	call	_LCD_Cursor_Left	;wreg free
  2597  0108F0  D7A2               	goto	l7119
  2598  0108F2                     l845:
  2599  0108F2                     l7171:
  2600                           
  2601                           ; BSR set to: 0
  2602                           ;main.c: 375: else if (keyHeld == '*' && keyPressed == '*')
  2603  0108F2  0E2A               	movlw	42
  2604  0108F4  1850               	xorwf	_keyHeld,w,c
  2605  0108F6  A4D8               	btfss	16344,2,c
  2606  0108F8  D00A               	goto	l851
  2607                           
  2608                           ; BSR set to: 0
  2609  0108FA  0E2A               	movlw	42
  2610  0108FC  184F               	xorwf	_keyPressed,w,c
  2611  0108FE  A4D8               	btfss	16344,2,c
  2612  010900  D006               	goto	l851
  2613                           
  2614                           ; BSR set to: 0
  2615                           ;main.c: 376: {;main.c: 377: timerChange = FALSE;
  2616  010902  0060  F0FC  F049   	movff	_FALSE,_timerChange
  2617  010908  0060  F100  F04A   	movff	_FALSE+1,_timerChange+1
  2618  01090E                     l851:
  2619                           
  2620                           ; BSR set to: 0
  2621                           
  2622                           ; BSR set to: 0
  2623                           
  2624                           ; BSR set to: 0
  2625                           
  2626                           ; BSR set to: 0
  2627                           
  2628                           ; BSR set to: 0
  2629  01090E  500F               	movf	_TRUE,w,c
  2630  010910  1849               	xorwf	_timerChange,w,c
  2631  010912  E104               	bnz	l7179
  2632  010914  5010               	movf	_TRUE+1,w,c
  2633  010916  184A               	xorwf	_timerChange+1,w,c
  2634  010918  B4D8               	btfsc	16344,2,c
  2635  01091A  D728               	goto	l818
  2636  01091C                     l7179:
  2637                           
  2638                           ;main.c: 378: };main.c: 379: };main.c: 381: countdown_initial_str2num();
  2639  01091C  ECAC  F08A         	call	_countdown_initial_str2num	;wreg free
  2640                           
  2641                           ;main.c: 382: countdown_now_reset_to_initial();
  2642  010920  EC28  F093         	call	_countdown_now_reset_to_initial	;wreg free
  2643                           
  2644                           ;main.c: 383: LCD_printNowCountdown();
  2645  010924  EC2A  F097         	call	_LCD_printNowCountdown	;wreg free
  2646                           
  2647                           ;main.c: 384: LCD_resetPasswordEntry();
  2648  010928  EC95  F098         	call	_LCD_resetPasswordEntry	;wreg free
  2649                           
  2650                           ;main.c: 385: keyIterrator = 0;
  2651  01092C  0E00               	movlw	0
  2652  01092E  6E4E               	movwf	_keyIterrator+1,c
  2653  010930  0E00               	movlw	0
  2654  010932  6E4D               	movwf	_keyIterrator,c
  2655                           
  2656                           ;main.c: 387: }
  2657  010934  EF04  F080         	goto	l766
  2658  010938                     l816:
  2659                           
  2660                           ;main.c: 390: else if(keyPressed == '1' && keyHeld == '1')
  2661  010938  0E31               	movlw	49
  2662  01093A  184F               	xorwf	_keyPressed,w,c
  2663  01093C  A4D8               	btfss	16344,2,c
  2664  01093E  D046               	goto	l854
  2665  010940  0E31               	movlw	49
  2666  010942  1850               	xorwf	_keyHeld,w,c
  2667  010944  A4D8               	btfss	16344,2,c
  2668  010946  D042               	goto	l854
  2669                           
  2670                           ;main.c: 391: {;main.c: 392: keyBeepsMem = !keyBeepsMem;
  2671  010948  0100               	movlb	0	; () banked
  2672  01094A  5174               	movf	_keyBeepsMem& (0+255),w,b
  2673  01094C  1175               	iorwf	(_keyBeepsMem+1)& (0+255),w,b
  2674  01094E  A4D8               	btfss	16344,2,c
  2675  010950  D002               	goto	u8220
  2676  010952  0E01               	movlw	1
  2677  010954  D001               	goto	u8230
  2678  010956                     u8220:
  2679  010956  0E00               	movlw	0
  2680  010958                     u8230:
  2681  010958  6F74               	movwf	_keyBeepsMem& (0+255),b
  2682  01095A  6B75               	clrf	(_keyBeepsMem+1)& (0+255),b
  2683                           
  2684                           ;main.c: 393: keyBeeps = !keyBeeps;
  2685  01095C  5019               	movf	_keyBeeps,w,c
  2686  01095E  101A               	iorwf	_keyBeeps+1,w,c
  2687  010960  A4D8               	btfss	16344,2,c
  2688  010962  D002               	goto	u8240
  2689  010964  0E01               	movlw	1
  2690  010966  D001               	goto	u8250
  2691  010968                     u8240:
  2692  010968  0E00               	movlw	0
  2693  01096A                     u8250:
  2694  01096A  6E19               	movwf	_keyBeeps,c
  2695  01096C  6A1A               	clrf	_keyBeeps+1,c
  2696                           
  2697                           ; BSR set to: 0
  2698                           ;main.c: 395: LCD_Set_Cursor(2,1);
  2699  01096E  0E00               	movlw	0
  2700  010970  6E30               	movwf	LCD_Set_Cursor@c+1,c
  2701  010972  0E02               	movlw	2
  2702  010974  6E2F               	movwf	LCD_Set_Cursor@c,c
  2703  010976  0E00               	movlw	0
  2704  010978  6E32               	movwf	LCD_Set_Cursor@d+1,c
  2705  01097A  0E01               	movlw	1
  2706  01097C  6E31               	movwf	LCD_Set_Cursor@d,c
  2707  01097E  ECE1  F098         	call	_LCD_Set_Cursor	;wreg free
  2708                           
  2709                           ;main.c: 397: if(keyBeeps == ON)
  2710  010982  5011               	movf	_ON,w,c
  2711  010984  1819               	xorwf	_keyBeeps,w,c
  2712  010986  E10B               	bnz	l7201
  2713  010988  5012               	movf	_ON+1,w,c
  2714  01098A  181A               	xorwf	_keyBeeps+1,w,c
  2715  01098C  A4D8               	btfss	16344,2,c
  2716  01098E  D007               	goto	l855
  2717                           
  2718                           ;main.c: 398: {;main.c: 399: LCD_Write_String("Key Beep ON     ");
  2719  010990  0E04               	movlw	low STR_18
  2720  010992  6E2F               	movwf	LCD_Write_String@f,c
  2721  010994  0EFF               	movlw	high STR_18
  2722  010996  6E30               	movwf	LCD_Write_String@f+1,c
  2723  010998  ECD8  F096         	call	_LCD_Write_String	;wreg free
  2724                           
  2725                           ;main.c: 400: }
  2726  01099C  D006               	goto	l856
  2727  01099E                     l855:
  2728  01099E                     l7201:
  2729                           
  2730                           ;main.c: 402: else;main.c: 403: {;main.c: 404: LCD_Write_String("Key Beep OFF    ");
  2731  01099E  0E37               	movlw	low STR_19
  2732  0109A0  6E2F               	movwf	LCD_Write_String@f,c
  2733  0109A2  0EFF               	movlw	high STR_19
  2734  0109A4  6E30               	movwf	LCD_Write_String@f+1,c
  2735  0109A6  ECD8  F096         	call	_LCD_Write_String	;wreg free
  2736  0109AA                     l856:
  2737                           
  2738                           ;main.c: 405: };main.c: 407: _delay((unsigned long)((1500)*(8000000/4000.0)));
  2739  0109AA  0E10               	movlw	16
  2740  0109AC  0100               	movlb	0	; () banked
  2741  0109AE  6F90               	movwf	(??_main+1)& (0+255),b
  2742  0109B0  0E39               	movlw	57
  2743  0109B2  6F8F               	movwf	??_main& (0+255),b
  2744  0109B4  0E0D               	movlw	13
  2745  0109B6                     u9367:
  2746  0109B6  2EE8               	decfsz	16360,f,c
  2747  0109B8  D7FE               	bra	u9367
  2748  0109BA  2F8F               	decfsz	??_main& (0+255),f,b
  2749  0109BC  D7FC               	bra	u9367
  2750  0109BE  2F90               	decfsz	(??_main+1)& (0+255),f,b
  2751  0109C0  D7FA               	bra	u9367
  2752  0109C2  D000               	nop2	
  2753                           
  2754                           ;main.c: 408: stanbyPageReset();
  2755  0109C4  ECDF  F097         	call	_stanbyPageReset	;wreg free
  2756                           
  2757                           ;main.c: 410: }
  2758                           
  2759                           ;main.c: 409: continue;
  2760  0109C8  EF04  F080         	goto	l766
  2761  0109CC                     l854:
  2762                           
  2763                           ;main.c: 412: else if(keyPressed == '2' && keyHeld == '2')
  2764  0109CC  0E32               	movlw	50
  2765  0109CE  184F               	xorwf	_keyPressed,w,c
  2766  0109D0  A4D8               	btfss	16344,2,c
  2767  0109D2  D054               	goto	l858
  2768  0109D4  0E32               	movlw	50
  2769  0109D6  1850               	xorwf	_keyHeld,w,c
  2770  0109D8  A4D8               	btfss	16344,2,c
  2771  0109DA  D050               	goto	l858
  2772                           
  2773                           ;main.c: 413: {;main.c: 414: if(cursorBlinkMem == OFF)
  2774  0109DC  5041               	movf	_OFF,w,c
  2775  0109DE  1813               	xorwf	_cursorBlinkMem,w,c
  2776  0109E0  E11D               	bnz	l7223
  2777  0109E2  5042               	movf	_OFF+1,w,c
  2778  0109E4  1814               	xorwf	_cursorBlinkMem+1,w,c
  2779  0109E6  A4D8               	btfss	16344,2,c
  2780  0109E8  D019               	goto	l859
  2781                           
  2782                           ;main.c: 415: {;main.c: 416: cursorBlinkMem = ON;
  2783  0109EA  0060  F044  F013   	movff	_ON,_cursorBlinkMem
  2784  0109F0  0060  F048  F014   	movff	_ON+1,_cursorBlinkMem+1
  2785                           
  2786                           ;main.c: 417: LCD_Cursor_Blink_On();
  2787  0109F6  EC56  F09A         	call	_LCD_Cursor_Blink_On	;wreg free
  2788                           
  2789                           ;main.c: 418: LCD_Set_Cursor(2,1);
  2790  0109FA  0E00               	movlw	0
  2791  0109FC  6E30               	movwf	LCD_Set_Cursor@c+1,c
  2792  0109FE  0E02               	movlw	2
  2793  010A00  6E2F               	movwf	LCD_Set_Cursor@c,c
  2794  010A02  0E00               	movlw	0
  2795  010A04  6E32               	movwf	LCD_Set_Cursor@d+1,c
  2796  010A06  0E01               	movlw	1
  2797  010A08  6E31               	movwf	LCD_Set_Cursor@d,c
  2798  010A0A  ECE1  F098         	call	_LCD_Set_Cursor	;wreg free
  2799                           
  2800                           ;main.c: 419: LCD_Write_String("Cursor ON       ");
  2801  010A0E  0EE2               	movlw	low STR_20
  2802  010A10  6E2F               	movwf	LCD_Write_String@f,c
  2803  010A12  0EFE               	movlw	high STR_20
  2804  010A14  6E30               	movwf	LCD_Write_String@f+1,c
  2805  010A16  ECD8  F096         	call	_LCD_Write_String	;wreg free
  2806                           
  2807                           ;main.c: 420: }
  2808  010A1A  D01F               	goto	l861
  2809  010A1C                     l859:
  2810  010A1C                     l7223:
  2811                           
  2812                           ;main.c: 422: else if(cursorBlinkMem == ON)
  2813  010A1C  5011               	movf	_ON,w,c
  2814  010A1E  1813               	xorwf	_cursorBlinkMem,w,c
  2815  010A20  E11C               	bnz	l7233
  2816  010A22  5012               	movf	_ON+1,w,c
  2817  010A24  1814               	xorwf	_cursorBlinkMem+1,w,c
  2818  010A26  A4D8               	btfss	16344,2,c
  2819  010A28  D018               	goto	l861
  2820                           
  2821                           ;main.c: 423: {;main.c: 424: cursorBlinkMem = OFF;
  2822  010A2A  0060  F104  F013   	movff	_OFF,_cursorBlinkMem
  2823  010A30  0060  F108  F014   	movff	_OFF+1,_cursorBlinkMem+1
  2824                           
  2825                           ;main.c: 425: LCD_Cursor_Blink_Off();
  2826  010A36  EC5A  F09A         	call	_LCD_Cursor_Blink_Off	;wreg free
  2827                           
  2828                           ;main.c: 426: LCD_Set_Cursor(2,1);
  2829  010A3A  0E00               	movlw	0
  2830  010A3C  6E30               	movwf	LCD_Set_Cursor@c+1,c
  2831  010A3E  0E02               	movlw	2
  2832  010A40  6E2F               	movwf	LCD_Set_Cursor@c,c
  2833  010A42  0E00               	movlw	0
  2834  010A44  6E32               	movwf	LCD_Set_Cursor@d+1,c
  2835  010A46  0E01               	movlw	1
  2836  010A48  6E31               	movwf	LCD_Set_Cursor@d,c
  2837  010A4A  ECE1  F098         	call	_LCD_Set_Cursor	;wreg free
  2838                           
  2839                           ;main.c: 427: LCD_Write_String("Cursor OFF      ");
  2840  010A4E  0EF3               	movlw	low STR_21
  2841  010A50  6E2F               	movwf	LCD_Write_String@f,c
  2842  010A52  0EFE               	movlw	high STR_21
  2843  010A54  6E30               	movwf	LCD_Write_String@f+1,c
  2844  010A56  ECD8  F096         	call	_LCD_Write_String	;wreg free
  2845  010A5A                     l861:
  2846  010A5A                     l7233:
  2847                           
  2848                           ;main.c: 428: };main.c: 430: _delay((unsigned long)((1500)*(8000000/4000.0)));
  2849  010A5A  0E10               	movlw	16
  2850  010A5C  0100               	movlb	0	; () banked
  2851  010A5E  6F90               	movwf	(??_main+1)& (0+255),b
  2852  010A60  0E39               	movlw	57
  2853  010A62  6F8F               	movwf	??_main& (0+255),b
  2854  010A64  0E0D               	movlw	13
  2855  010A66                     u9377:
  2856  010A66  2EE8               	decfsz	16360,f,c
  2857  010A68  D7FE               	bra	u9377
  2858  010A6A  2F8F               	decfsz	??_main& (0+255),f,b
  2859  010A6C  D7FC               	bra	u9377
  2860  010A6E  2F90               	decfsz	(??_main+1)& (0+255),f,b
  2861  010A70  D7FA               	bra	u9377
  2862  010A72  D000               	nop2	
  2863                           
  2864                           ;main.c: 431: stanbyPageReset();
  2865  010A74  ECDF  F097         	call	_stanbyPageReset	;wreg free
  2866                           
  2867                           ;main.c: 433: }
  2868                           
  2869                           ;main.c: 432: continue;
  2870  010A78  EF04  F080         	goto	l766
  2871  010A7C                     l858:
  2872                           
  2873                           ;main.c: 435: else if(keyPressed == '3' && keyHeld == '3')
  2874  010A7C  0E33               	movlw	51
  2875  010A7E  184F               	xorwf	_keyPressed,w,c
  2876  010A80  A4D8               	btfss	16344,2,c
  2877  010A82  EF04  F080         	goto	l766
  2878  010A86  0E33               	movlw	51
  2879  010A88  1850               	xorwf	_keyHeld,w,c
  2880  010A8A  A4D8               	btfss	16344,2,c
  2881  010A8C  EF04  F080         	goto	l766
  2882                           
  2883                           ;main.c: 436: {;main.c: 437: countdownBeeps = !countdownBeeps;
  2884  010A90  5017               	movf	_countdownBeeps,w,c
  2885  010A92  1018               	iorwf	_countdownBeeps+1,w,c
  2886  010A94  A4D8               	btfss	16344,2,c
  2887  010A96  D002               	goto	u8330
  2888  010A98  0E01               	movlw	1
  2889  010A9A  D001               	goto	u8340
  2890  010A9C                     u8330:
  2891  010A9C  0E00               	movlw	0
  2892  010A9E                     u8340:
  2893  010A9E  6E17               	movwf	_countdownBeeps,c
  2894  010AA0  6A18               	clrf	_countdownBeeps+1,c
  2895                           
  2896                           ;main.c: 438: countdownBeepsMem = !countdownBeepsMem;
  2897  010AA2  5015               	movf	_countdownBeepsMem,w,c
  2898  010AA4  1016               	iorwf	_countdownBeepsMem+1,w,c
  2899  010AA6  A4D8               	btfss	16344,2,c
  2900  010AA8  D002               	goto	u8350
  2901  010AAA  0E01               	movlw	1
  2902  010AAC  D001               	goto	u8360
  2903  010AAE                     u8350:
  2904  010AAE  0E00               	movlw	0
  2905  010AB0                     u8360:
  2906  010AB0  6E15               	movwf	_countdownBeepsMem,c
  2907  010AB2  6A16               	clrf	_countdownBeepsMem+1,c
  2908                           
  2909                           ;main.c: 440: LCD_Set_Cursor(2,1);
  2910  010AB4  0E00               	movlw	0
  2911  010AB6  6E30               	movwf	LCD_Set_Cursor@c+1,c
  2912  010AB8  0E02               	movlw	2
  2913  010ABA  6E2F               	movwf	LCD_Set_Cursor@c,c
  2914  010ABC  0E00               	movlw	0
  2915  010ABE  6E32               	movwf	LCD_Set_Cursor@d+1,c
  2916  010AC0  0E01               	movlw	1
  2917  010AC2  6E31               	movwf	LCD_Set_Cursor@d,c
  2918  010AC4  ECE1  F098         	call	_LCD_Set_Cursor	;wreg free
  2919                           
  2920                           ;main.c: 442: if(countdownBeeps == ON)
  2921  010AC8  5011               	movf	_ON,w,c
  2922  010ACA  1817               	xorwf	_countdownBeeps,w,c
  2923  010ACC  E10B               	bnz	l7251
  2924  010ACE  5012               	movf	_ON+1,w,c
  2925  010AD0  1818               	xorwf	_countdownBeeps+1,w,c
  2926  010AD2  A4D8               	btfss	16344,2,c
  2927  010AD4  D007               	goto	l864
  2928                           
  2929                           ;main.c: 443: {;main.c: 444: LCD_Write_String("Timer Beep ON   ");
  2930  010AD6  0E59               	movlw	low STR_22
  2931  010AD8  6E2F               	movwf	LCD_Write_String@f,c
  2932  010ADA  0EFF               	movlw	high STR_22
  2933  010ADC  6E30               	movwf	LCD_Write_String@f+1,c
  2934  010ADE  ECD8  F096         	call	_LCD_Write_String	;wreg free
  2935                           
  2936                           ;main.c: 445: }
  2937  010AE2  D006               	goto	l865
  2938  010AE4                     l864:
  2939  010AE4                     l7251:
  2940                           
  2941                           ;main.c: 447: else;main.c: 448: {;main.c: 449: LCD_Write_String("Timer Beep OFF  ");
  2942  010AE4  0E6A               	movlw	low STR_23
  2943  010AE6  6E2F               	movwf	LCD_Write_String@f,c
  2944  010AE8  0EFF               	movlw	high STR_23
  2945  010AEA  6E30               	movwf	LCD_Write_String@f+1,c
  2946  010AEC  ECD8  F096         	call	_LCD_Write_String	;wreg free
  2947  010AF0                     l865:
  2948                           
  2949                           ;main.c: 450: };main.c: 452: _delay((unsigned long)((1500)*(8000000/4000.0)));
  2950  010AF0  0E10               	movlw	16
  2951  010AF2  0100               	movlb	0	; () banked
  2952  010AF4  6F90               	movwf	(??_main+1)& (0+255),b
  2953  010AF6  0E39               	movlw	57
  2954  010AF8  6F8F               	movwf	??_main& (0+255),b
  2955  010AFA  0E0D               	movlw	13
  2956  010AFC                     u9387:
  2957  010AFC  2EE8               	decfsz	16360,f,c
  2958  010AFE  D7FE               	bra	u9387
  2959  010B00  2F8F               	decfsz	??_main& (0+255),f,b
  2960  010B02  D7FC               	bra	u9387
  2961  010B04  2F90               	decfsz	(??_main+1)& (0+255),f,b
  2962  010B06  D7FA               	bra	u9387
  2963  010B08  D000               	nop2	
  2964                           
  2965                           ;main.c: 453: stanbyPageReset();
  2966  010B0A  ECDF  F097         	call	_stanbyPageReset	;wreg free
  2967                           
  2968                           ;main.c: 455: };main.c: 456: };main.c: 457: }
  2969                           
  2970                           ;main.c: 454: continue;
  2971  010B0E  EF04  F080         	goto	l766
  2972  010B12                     l768:
  2973                           
  2974                           ;main.c: 463: else if(status == armed)
  2975  010B12  501F               	movf	_armed,w,c
  2976  010B14  1845               	xorwf	_status,w,c
  2977  010B16  E103               	bnz	u8381
  2978  010B18  5020               	movf	_armed+1,w,c
  2979  010B1A  1846               	xorwf	_status+1,w,c
  2980  010B1C  A4D8               	btfss	16344,2,c
  2981  010B1E                     u8381:
  2982  010B1E  D16B               	goto	l867
  2983                           
  2984                           ;main.c: 464: {;main.c: 465: keyBeeps = OFF;
  2985  010B20  0060  F104  F019   	movff	_OFF,_keyBeeps
  2986  010B26  0060  F108  F01A   	movff	_OFF+1,_keyBeeps+1
  2987                           
  2988                           ;main.c: 467: if(keyPressed != NONE && keyHeld == NONE)
  2989  010B2C  504F               	movf	_keyPressed,w,c
  2990  010B2E  0100               	movlb	0	; () banked
  2991  010B30  6F8F               	movwf	??_main& (0+255),b
  2992  010B32  6B90               	clrf	(??_main+1)& (0+255),b
  2993  010B34  503D               	movf	_NONE,w,c
  2994  010B36  198F               	xorwf	??_main& (0+255),w,b
  2995  010B38  E104               	bnz	u8390
  2996  010B3A  503E               	movf	_NONE+1,w,c
  2997  010B3C  1990               	xorwf	(??_main+1)& (0+255),w,b
  2998  010B3E  B4D8               	btfsc	16344,2,c
  2999  010B40  D095               	goto	l868
  3000  010B42                     u8390:
  3001                           
  3002                           ; BSR set to: 0
  3003  010B42  5050               	movf	_keyHeld,w,c
  3004  010B44  6F8F               	movwf	??_main& (0+255),b
  3005  010B46  6B90               	clrf	(??_main+1)& (0+255),b
  3006  010B48  503D               	movf	_NONE,w,c
  3007  010B4A  198F               	xorwf	??_main& (0+255),w,b
  3008  010B4C  E103               	bnz	u8401
  3009  010B4E  503E               	movf	_NONE+1,w,c
  3010  010B50  1990               	xorwf	(??_main+1)& (0+255),w,b
  3011  010B52  A4D8               	btfss	16344,2,c
  3012  010B54                     u8401:
  3013  010B54  D08B               	goto	l868
  3014                           
  3015                           ; BSR set to: 0
  3016                           ;main.c: 468: {;main.c: 469: if(keyIterrator == 0 && keyBeeps == OFF)
  3017  010B56  504D               	movf	_keyIterrator,w,c
  3018  010B58  104E               	iorwf	_keyIterrator+1,w,c
  3019  010B5A  A4D8               	btfss	16344,2,c
  3020  010B5C  D008               	goto	l869
  3021                           
  3022                           ; BSR set to: 0
  3023  010B5E  5041               	movf	_OFF,w,c
  3024  010B60  1819               	xorwf	_keyBeeps,w,c
  3025  010B62  E105               	bnz	l7271
  3026  010B64  5042               	movf	_OFF+1,w,c
  3027  010B66  181A               	xorwf	_keyBeeps+1,w,c
  3028  010B68  B4D8               	btfsc	16344,2,c
  3029                           
  3030                           ; BSR set to: 0
  3031                           ;main.c: 470: {;main.c: 471: armBeep();
  3032  010B6A  EC9E  F099         	call	_armBeep	;wreg free
  3033  010B6E                     l869:
  3034  010B6E                     l7271:
  3035                           
  3036                           ;main.c: 472: };main.c: 473: if (keyPressed != '#' && keyPressed != '*' && keyIterrator<
      +                          7)
  3037  010B6E  0E23               	movlw	35
  3038  010B70  184F               	xorwf	_keyPressed,w,c
  3039  010B72  B4D8               	btfsc	16344,2,c
  3040  010B74  D02C               	goto	l870
  3041  010B76  0E2A               	movlw	42
  3042  010B78  184F               	xorwf	_keyPressed,w,c
  3043  010B7A  B4D8               	btfsc	16344,2,c
  3044  010B7C  D028               	goto	l870
  3045  010B7E  BE4E               	btfsc	_keyIterrator+1,7,c
  3046  010B80  D006               	goto	u8450
  3047  010B82  504E               	movf	_keyIterrator+1,w,c
  3048  010B84  E124               	bnz	l7289
  3049  010B86  0E07               	movlw	7
  3050  010B88  5C4D               	subwf	_keyIterrator,w,c
  3051  010B8A  B0D8               	btfsc	16344,0,c
  3052  010B8C  D020               	goto	l870
  3053  010B8E                     u8450:
  3054                           
  3055                           ;main.c: 474: {;main.c: 475: serialSend('U');
  3056  010B8E  0E55               	movlw	85
  3057  010B90  EC4C  F09A         	call	_serialSend
  3058                           
  3059                           ;main.c: 476: serialSend(keyPressed);
  3060  010B94  504F               	movf	_keyPressed,w,c
  3061  010B96  EC4C  F09A         	call	_serialSend
  3062                           
  3063                           ;main.c: 478: userPswdEntry[keyIterrator] = keyPressed;
  3064  010B9A  0E99               	movlw	low _userPswdEntry
  3065  010B9C  244D               	addwf	_keyIterrator,w,c
  3066  010B9E  6ED9               	movwf	16345,c
  3067  010BA0  0E00               	movlw	high _userPswdEntry
  3068  010BA2  204E               	addwfc	_keyIterrator+1,w,c
  3069  010BA4  6EDA               	movwf	16346,c
  3070  010BA6  0060  F13F  FFDF   	movff	_keyPressed,16351
  3071                           
  3072                           ;main.c: 479: keyIterrator++;
  3073  010BAC  4A4D               	infsnz	_keyIterrator,f,c
  3074  010BAE  2A4E               	incf	_keyIterrator+1,f,c
  3075                           
  3076                           ;main.c: 481: LCD_Set_Cursor(2,9+keyIterrator);
  3077  010BB0  0E00               	movlw	0
  3078  010BB2  6E30               	movwf	LCD_Set_Cursor@c+1,c
  3079  010BB4  0E02               	movlw	2
  3080  010BB6  6E2F               	movwf	LCD_Set_Cursor@c,c
  3081  010BB8  0E09               	movlw	9
  3082  010BBA  244D               	addwf	_keyIterrator,w,c
  3083  010BBC  6E31               	movwf	LCD_Set_Cursor@d,c
  3084  010BBE  0E00               	movlw	0
  3085  010BC0  204E               	addwfc	_keyIterrator+1,w,c
  3086  010BC2  6E32               	movwf	LCD_Set_Cursor@d+1,c
  3087  010BC4  ECE1  F098         	call	_LCD_Set_Cursor	;wreg free
  3088                           
  3089                           ;main.c: 483: LCD_Write_Char(keyPressed);
  3090  010BC8  504F               	movf	_keyPressed,w,c
  3091  010BCA  EC5B  F099         	call	_LCD_Write_Char
  3092  010BCE                     l870:
  3093  010BCE                     l7289:
  3094                           
  3095                           ;main.c: 484: };main.c: 486: if (keyPressed == '#' || keyPressed == '*'&& keyHeld == NON
      +                          E)
  3096  010BCE  0E23               	movlw	35
  3097  010BD0  184F               	xorwf	_keyPressed,w,c
  3098  010BD2  B4D8               	btfsc	16344,2,c
  3099  010BD4  D011               	goto	u8480
  3100  010BD6  0E2A               	movlw	42
  3101  010BD8  184F               	xorwf	_keyPressed,w,c
  3102  010BDA  A4D8               	btfss	16344,2,c
  3103  010BDC  EF04  F080         	goto	l766
  3104  010BE0  5050               	movf	_keyHeld,w,c
  3105  010BE2  0100               	movlb	0	; () banked
  3106  010BE4  6F8F               	movwf	??_main& (0+255),b
  3107  010BE6  6B90               	clrf	(??_main+1)& (0+255),b
  3108  010BE8  503D               	movf	_NONE,w,c
  3109  010BEA  198F               	xorwf	??_main& (0+255),w,b
  3110  010BEC  E103               	bnz	u8481
  3111  010BEE  503E               	movf	_NONE+1,w,c
  3112  010BF0  1990               	xorwf	(??_main+1)& (0+255),w,b
  3113  010BF2  A4D8               	btfss	16344,2,c
  3114  010BF4                     u8481:
  3115  010BF4  EF04  F080         	goto	l766
  3116  010BF8                     u8480:
  3117                           
  3118                           ;main.c: 487: {;main.c: 488: serialSend('U');
  3119                           
  3120                           ; BSR set to: 0
  3121  010BF8  0E55               	movlw	85
  3122  010BFA  EC4C  F09A         	call	_serialSend
  3123                           
  3124                           ;main.c: 489: serialSend('*');
  3125  010BFE  0E2A               	movlw	42
  3126  010C00  EC4C  F09A         	call	_serialSend
  3127                           
  3128                           ;main.c: 490: isPasswordTrue = verifyPassword(userPswdEntry,password);
  3129  010C04  0E99               	movlw	low _userPswdEntry
  3130  010C06  6E34               	movwf	verifyPassword@user,c
  3131  010C08  0E00               	movlw	high _userPswdEntry
  3132  010C0A  6E35               	movwf	verifyPassword@user+1,c
  3133  010C0C  0E7E               	movlw	low _password
  3134  010C0E  6E36               	movwf	verifyPassword@pass,c
  3135  010C10  0E00               	movlw	high _password
  3136  010C12  6E37               	movwf	verifyPassword@pass+1,c
  3137  010C14  EC79  F098         	call	_verifyPassword	;wreg free
  3138  010C18  0060  F0D0  F04B   	movff	?_verifyPassword,_isPasswordTrue
  3139  010C1E  0060  F0D4  F04C   	movff	?_verifyPassword+1,_isPasswordTrue+1
  3140                           
  3141                           ;main.c: 491: resetPasswordEntry();
  3142  010C24  ECC9  F098         	call	_resetPasswordEntry	;wreg free
  3143                           
  3144                           ;main.c: 493: if(isPasswordTrue == TRUE)
  3145  010C28  500F               	movf	_TRUE,w,c
  3146  010C2A  184B               	xorwf	_isPasswordTrue,w,c
  3147  010C2C  E11B               	bnz	l7317
  3148  010C2E  5010               	movf	_TRUE+1,w,c
  3149  010C30  184C               	xorwf	_isPasswordTrue+1,w,c
  3150  010C32  A4D8               	btfss	16344,2,c
  3151  010C34  D017               	goto	l874
  3152                           
  3153                           ;main.c: 494: {;main.c: 496: countdownStop();
  3154  010C36  EC66  F09A         	call	_countdownStop	;wreg free
  3155                           
  3156                           ;main.c: 497: serialSend('D');
  3157  010C3A  0E44               	movlw	68
  3158  010C3C  EC4C  F09A         	call	_serialSend
  3159                           
  3160                           ;main.c: 498: serialPrint(strCountdownNowTime);
  3161  010C40  0E76               	movlw	low _strCountdownNowTime
  3162  010C42  6E34               	movwf	serialPrint@string,c
  3163  010C44  0E00               	movlw	high _strCountdownNowTime
  3164  010C46  6E35               	movwf	serialPrint@string+1,c
  3165  010C48  EC7C  F096         	call	_serialPrint	;wreg free
  3166                           
  3167                           ;main.c: 499: disarmBeep();
  3168  010C4C  EC3F  F098         	call	_disarmBeep	;wreg free
  3169                           
  3170                           ;main.c: 501: status = disarmed;
  3171  010C50  0060  F074  F045   	movff	_disarmed,_status
  3172  010C56  0060  F078  F046   	movff	_disarmed+1,_status+1
  3173                           
  3174                           ;main.c: 502: disarmedPageReset();
  3175  010C5C  EC00  F098         	call	_disarmedPageReset	;wreg free
  3176                           
  3177                           ;main.c: 504: }
  3178                           
  3179                           ;main.c: 503: continue;
  3180  010C60  EF04  F080         	goto	l766
  3181  010C64                     l874:
  3182  010C64                     l7317:
  3183                           
  3184                           ;main.c: 506: else;main.c: 507: {;main.c: 508: armedPageReset();
  3185  010C64  EC5C  F098         	call	_armedPageReset	;wreg free
  3186                           
  3187                           ;main.c: 510: };main.c: 512: };main.c: 513: }
  3188                           
  3189                           ;main.c: 509: continue;
  3190  010C68  EF04  F080         	goto	l766
  3191  010C6C                     l868:
  3192                           
  3193                           ;main.c: 515: else if(keyHeld != NONE)
  3194  010C6C  5050               	movf	_keyHeld,w,c
  3195  010C6E  0100               	movlb	0	; () banked
  3196  010C70  6F8F               	movwf	??_main& (0+255),b
  3197  010C72  6B90               	clrf	(??_main+1)& (0+255),b
  3198  010C74  503D               	movf	_NONE,w,c
  3199  010C76  198F               	xorwf	??_main& (0+255),w,b
  3200  010C78  E105               	bnz	u8500
  3201  010C7A  503E               	movf	_NONE+1,w,c
  3202  010C7C  1990               	xorwf	(??_main+1)& (0+255),w,b
  3203  010C7E  B4D8               	btfsc	16344,2,c
  3204  010C80  EF04  F080         	goto	l766
  3205  010C84                     u8500:
  3206                           
  3207                           ; BSR set to: 0
  3208                           ;main.c: 516: {;main.c: 517: if (gameMode == 1)
  3209  010C84  040D               	decf	_gameMode,w,c
  3210  010C86  100E               	iorwf	_gameMode+1,w,c
  3211  010C88  A4D8               	btfss	16344,2,c
  3212  010C8A  D018               	goto	l879
  3213                           
  3214                           ; BSR set to: 0
  3215                           ;main.c: 518: {;main.c: 519: if(keyPressed == 'A' && keyHeld == 'A')
  3216  010C8C  0E41               	movlw	65
  3217  010C8E  184F               	xorwf	_keyPressed,w,c
  3218  010C90  A4D8               	btfss	16344,2,c
  3219  010C92  D014               	goto	l879
  3220                           
  3221                           ; BSR set to: 0
  3222  010C94  0E41               	movlw	65
  3223  010C96  1850               	xorwf	_keyHeld,w,c
  3224  010C98  A4D8               	btfss	16344,2,c
  3225  010C9A  D010               	goto	l879
  3226                           
  3227                           ; BSR set to: 0
  3228                           ;main.c: 520: {;main.c: 521: status = stanby;
  3229  010C9C  0060  F10C  F045   	movff	_stanby,_status
  3230  010CA2  0060  F110  F046   	movff	_stanby+1,_status+1
  3231                           
  3232                           ; BSR set to: 0
  3233                           ;main.c: 522: countdown_now_reset_to_initial();
  3234  010CA8  EC28  F093         	call	_countdown_now_reset_to_initial	;wreg free
  3235                           
  3236                           ;main.c: 523: countdown_initial_str2num();
  3237  010CAC  ECAC  F08A         	call	_countdown_initial_str2num	;wreg free
  3238                           
  3239                           ;main.c: 524: resetPasswordEntry();
  3240  010CB0  ECC9  F098         	call	_resetPasswordEntry	;wreg free
  3241                           
  3242                           ;main.c: 525: stanbyPageReset();
  3243  010CB4  ECDF  F097         	call	_stanbyPageReset	;wreg free
  3244                           
  3245                           ;main.c: 526: break;
  3246  010CB8  EF0D  F000         	goto	start
  3247  010CBC                     l879:
  3248                           
  3249                           ;main.c: 527: };main.c: 528: };main.c: 530: if(keyPressed == '1' && keyHeld == '1')
  3250  010CBC  0E31               	movlw	49
  3251  010CBE  184F               	xorwf	_keyPressed,w,c
  3252  010CC0  A4D8               	btfss	16344,2,c
  3253  010CC2  D025               	goto	l881
  3254  010CC4  0E31               	movlw	49
  3255  010CC6  1850               	xorwf	_keyHeld,w,c
  3256  010CC8  A4D8               	btfss	16344,2,c
  3257  010CCA  D021               	goto	l881
  3258                           
  3259                           ;main.c: 531: {;main.c: 532: LCD_Set_Cursor(2,1);
  3260  010CCC  0E00               	movlw	0
  3261  010CCE  6E30               	movwf	LCD_Set_Cursor@c+1,c
  3262  010CD0  0E02               	movlw	2
  3263  010CD2  6E2F               	movwf	LCD_Set_Cursor@c,c
  3264  010CD4  0E00               	movlw	0
  3265  010CD6  6E32               	movwf	LCD_Set_Cursor@d+1,c
  3266  010CD8  0E01               	movlw	1
  3267  010CDA  6E31               	movwf	LCD_Set_Cursor@d,c
  3268  010CDC  ECE1  F098         	call	_LCD_Set_Cursor	;wreg free
  3269                           
  3270                           ;main.c: 533: LCD_Write_String("NOT AVAILABLE   ");
  3271  010CE0  0E48               	movlw	low STR_24
  3272  010CE2  6E2F               	movwf	LCD_Write_String@f,c
  3273  010CE4  0EFF               	movlw	high STR_24
  3274  010CE6  6E30               	movwf	LCD_Write_String@f+1,c
  3275  010CE8  ECD8  F096         	call	_LCD_Write_String	;wreg free
  3276                           
  3277                           ;main.c: 534: _delay((unsigned long)((1500)*(8000000/4000.0)));
  3278  010CEC  0E10               	movlw	16
  3279  010CEE  0100               	movlb	0	; () banked
  3280  010CF0  6F90               	movwf	(??_main+1)& (0+255),b
  3281  010CF2  0E39               	movlw	57
  3282  010CF4  6F8F               	movwf	??_main& (0+255),b
  3283  010CF6  0E0D               	movlw	13
  3284  010CF8                     u9397:
  3285  010CF8  2EE8               	decfsz	16360,f,c
  3286  010CFA  D7FE               	bra	u9397
  3287  010CFC  2F8F               	decfsz	??_main& (0+255),f,b
  3288  010CFE  D7FC               	bra	u9397
  3289  010D00  2F90               	decfsz	(??_main+1)& (0+255),f,b
  3290  010D02  D7FA               	bra	u9397
  3291  010D04  D000               	nop2	
  3292                           
  3293                           ;main.c: 535: armedPageReset();
  3294  010D06  EC5C  F098         	call	_armedPageReset	;wreg free
  3295                           
  3296                           ;main.c: 537: }
  3297                           
  3298                           ;main.c: 536: continue;
  3299  010D0A  EF04  F080         	goto	l766
  3300  010D0E                     l881:
  3301                           
  3302                           ;main.c: 539: else if(keyPressed == '2' && keyHeld == '2')
  3303  010D0E  0E32               	movlw	50
  3304  010D10  184F               	xorwf	_keyPressed,w,c
  3305  010D12  A4D8               	btfss	16344,2,c
  3306  010D14  D025               	goto	l883
  3307  010D16  0E32               	movlw	50
  3308  010D18  1850               	xorwf	_keyHeld,w,c
  3309  010D1A  A4D8               	btfss	16344,2,c
  3310  010D1C  D021               	goto	l883
  3311                           
  3312                           ;main.c: 540: {;main.c: 541: LCD_Set_Cursor(2,1);
  3313  010D1E  0E00               	movlw	0
  3314  010D20  6E30               	movwf	LCD_Set_Cursor@c+1,c
  3315  010D22  0E02               	movlw	2
  3316  010D24  6E2F               	movwf	LCD_Set_Cursor@c,c
  3317  010D26  0E00               	movlw	0
  3318  010D28  6E32               	movwf	LCD_Set_Cursor@d+1,c
  3319  010D2A  0E01               	movlw	1
  3320  010D2C  6E31               	movwf	LCD_Set_Cursor@d,c
  3321  010D2E  ECE1  F098         	call	_LCD_Set_Cursor	;wreg free
  3322                           
  3323                           ;main.c: 542: LCD_Write_String("NOT AVAILABLE   ");
  3324  010D32  0E48               	movlw	low STR_24
  3325  010D34  6E2F               	movwf	LCD_Write_String@f,c
  3326  010D36  0EFF               	movlw	high STR_24
  3327  010D38  6E30               	movwf	LCD_Write_String@f+1,c
  3328  010D3A  ECD8  F096         	call	_LCD_Write_String	;wreg free
  3329                           
  3330                           ;main.c: 543: _delay((unsigned long)((1500)*(8000000/4000.0)));
  3331  010D3E  0E10               	movlw	16
  3332  010D40  0100               	movlb	0	; () banked
  3333  010D42  6F90               	movwf	(??_main+1)& (0+255),b
  3334  010D44  0E39               	movlw	57
  3335  010D46  6F8F               	movwf	??_main& (0+255),b
  3336  010D48  0E0D               	movlw	13
  3337  010D4A                     u9407:
  3338  010D4A  2EE8               	decfsz	16360,f,c
  3339  010D4C  D7FE               	bra	u9407
  3340  010D4E  2F8F               	decfsz	??_main& (0+255),f,b
  3341  010D50  D7FC               	bra	u9407
  3342  010D52  2F90               	decfsz	(??_main+1)& (0+255),f,b
  3343  010D54  D7FA               	bra	u9407
  3344  010D56  D000               	nop2	
  3345                           
  3346                           ;main.c: 544: armedPageReset();
  3347  010D58  EC5C  F098         	call	_armedPageReset	;wreg free
  3348                           
  3349                           ;main.c: 546: }
  3350                           
  3351                           ;main.c: 545: continue;
  3352  010D5C  EF04  F080         	goto	l766
  3353  010D60                     l883:
  3354                           
  3355                           ;main.c: 548: else if(keyPressed == '3' && keyHeld == '3')
  3356  010D60  0E33               	movlw	51
  3357  010D62  184F               	xorwf	_keyPressed,w,c
  3358  010D64  A4D8               	btfss	16344,2,c
  3359  010D66  EF04  F080         	goto	l766
  3360  010D6A  0E33               	movlw	51
  3361  010D6C  1850               	xorwf	_keyHeld,w,c
  3362  010D6E  A4D8               	btfss	16344,2,c
  3363  010D70  EF04  F080         	goto	l766
  3364                           
  3365                           ;main.c: 549: {;main.c: 550: countdownBeeps = !countdownBeeps;
  3366  010D74  5017               	movf	_countdownBeeps,w,c
  3367  010D76  1018               	iorwf	_countdownBeeps+1,w,c
  3368  010D78  A4D8               	btfss	16344,2,c
  3369  010D7A  D002               	goto	u8600
  3370  010D7C  0E01               	movlw	1
  3371  010D7E  D001               	goto	u8610
  3372  010D80                     u8600:
  3373  010D80  0E00               	movlw	0
  3374  010D82                     u8610:
  3375  010D82  6E17               	movwf	_countdownBeeps,c
  3376  010D84  6A18               	clrf	_countdownBeeps+1,c
  3377                           
  3378                           ;main.c: 551: countdownBeepsMem = !countdownBeepsMem;
  3379  010D86  5015               	movf	_countdownBeepsMem,w,c
  3380  010D88  1016               	iorwf	_countdownBeepsMem+1,w,c
  3381  010D8A  A4D8               	btfss	16344,2,c
  3382  010D8C  D002               	goto	u8620
  3383  010D8E  0E01               	movlw	1
  3384  010D90  D001               	goto	u8630
  3385  010D92                     u8620:
  3386  010D92  0E00               	movlw	0
  3387  010D94                     u8630:
  3388  010D94  6E15               	movwf	_countdownBeepsMem,c
  3389  010D96  6A16               	clrf	_countdownBeepsMem+1,c
  3390                           
  3391                           ;main.c: 553: LCD_Set_Cursor(2,1);
  3392  010D98  0E00               	movlw	0
  3393  010D9A  6E30               	movwf	LCD_Set_Cursor@c+1,c
  3394  010D9C  0E02               	movlw	2
  3395  010D9E  6E2F               	movwf	LCD_Set_Cursor@c,c
  3396  010DA0  0E00               	movlw	0
  3397  010DA2  6E32               	movwf	LCD_Set_Cursor@d+1,c
  3398  010DA4  0E01               	movlw	1
  3399  010DA6  6E31               	movwf	LCD_Set_Cursor@d,c
  3400  010DA8  ECE1  F098         	call	_LCD_Set_Cursor	;wreg free
  3401                           
  3402                           ;main.c: 555: if(countdownBeeps == ON)
  3403  010DAC  5011               	movf	_ON,w,c
  3404  010DAE  1817               	xorwf	_countdownBeeps,w,c
  3405  010DB0  E10B               	bnz	l7377
  3406  010DB2  5012               	movf	_ON+1,w,c
  3407  010DB4  1818               	xorwf	_countdownBeeps+1,w,c
  3408  010DB6  A4D8               	btfss	16344,2,c
  3409  010DB8  D007               	goto	l886
  3410                           
  3411                           ;main.c: 556: {;main.c: 557: LCD_Write_String("Timer Beep ON   ");
  3412  010DBA  0E59               	movlw	low STR_22
  3413  010DBC  6E2F               	movwf	LCD_Write_String@f,c
  3414  010DBE  0EFF               	movlw	high STR_22
  3415  010DC0  6E30               	movwf	LCD_Write_String@f+1,c
  3416  010DC2  ECD8  F096         	call	_LCD_Write_String	;wreg free
  3417                           
  3418                           ;main.c: 558: }
  3419  010DC6  D006               	goto	l887
  3420  010DC8                     l886:
  3421  010DC8                     l7377:
  3422                           
  3423                           ;main.c: 560: else;main.c: 561: {;main.c: 562: LCD_Write_String("Timer Beep OFF  ");
  3424  010DC8  0E6A               	movlw	low STR_23
  3425  010DCA  6E2F               	movwf	LCD_Write_String@f,c
  3426  010DCC  0EFF               	movlw	high STR_23
  3427  010DCE  6E30               	movwf	LCD_Write_String@f+1,c
  3428  010DD0  ECD8  F096         	call	_LCD_Write_String	;wreg free
  3429  010DD4                     l887:
  3430                           
  3431                           ;main.c: 563: };main.c: 565: _delay((unsigned long)((1500)*(8000000/4000.0)));
  3432  010DD4  0E10               	movlw	16
  3433  010DD6  0100               	movlb	0	; () banked
  3434  010DD8  6F90               	movwf	(??_main+1)& (0+255),b
  3435  010DDA  0E39               	movlw	57
  3436  010DDC  6F8F               	movwf	??_main& (0+255),b
  3437  010DDE  0E0D               	movlw	13
  3438  010DE0                     u9417:
  3439  010DE0  2EE8               	decfsz	16360,f,c
  3440  010DE2  D7FE               	bra	u9417
  3441  010DE4  2F8F               	decfsz	??_main& (0+255),f,b
  3442  010DE6  D7FC               	bra	u9417
  3443  010DE8  2F90               	decfsz	(??_main+1)& (0+255),f,b
  3444  010DEA  D7FA               	bra	u9417
  3445  010DEC  D000               	nop2	
  3446                           
  3447                           ;main.c: 566: armedPageReset();
  3448  010DEE  EC5C  F098         	call	_armedPageReset	;wreg free
  3449                           
  3450                           ;main.c: 568: };main.c: 569: };main.c: 571: }
  3451                           
  3452                           ;main.c: 567: continue;
  3453  010DF2  EF04  F080         	goto	l766
  3454  010DF6                     l867:
  3455                           
  3456                           ;main.c: 577: else if(status == disarmed)
  3457  010DF6  501D               	movf	_disarmed,w,c
  3458  010DF8  1845               	xorwf	_status,w,c
  3459  010DFA  E103               	bnz	u8651
  3460  010DFC  501E               	movf	_disarmed+1,w,c
  3461  010DFE  1846               	xorwf	_status+1,w,c
  3462  010E00  A4D8               	btfss	16344,2,c
  3463  010E02                     u8651:
  3464  010E02  D32A               	goto	l889
  3465                           
  3466                           ;main.c: 578: {;main.c: 579: if(keyPressed != NONE && keyHeld == NONE)
  3467  010E04  504F               	movf	_keyPressed,w,c
  3468  010E06  0100               	movlb	0	; () banked
  3469  010E08  6F8F               	movwf	??_main& (0+255),b
  3470  010E0A  6B90               	clrf	(??_main+1)& (0+255),b
  3471  010E0C  503D               	movf	_NONE,w,c
  3472  010E0E  198F               	xorwf	??_main& (0+255),w,b
  3473  010E10  E104               	bnz	u8660
  3474  010E12  503E               	movf	_NONE+1,w,c
  3475  010E14  1990               	xorwf	(??_main+1)& (0+255),w,b
  3476  010E16  B4D8               	btfsc	16344,2,c
  3477  010E18  D095               	goto	l890
  3478  010E1A                     u8660:
  3479                           
  3480                           ; BSR set to: 0
  3481  010E1A  5050               	movf	_keyHeld,w,c
  3482  010E1C  6F8F               	movwf	??_main& (0+255),b
  3483  010E1E  6B90               	clrf	(??_main+1)& (0+255),b
  3484  010E20  503D               	movf	_NONE,w,c
  3485  010E22  198F               	xorwf	??_main& (0+255),w,b
  3486  010E24  E103               	bnz	u8671
  3487  010E26  503E               	movf	_NONE+1,w,c
  3488  010E28  1990               	xorwf	(??_main+1)& (0+255),w,b
  3489  010E2A  A4D8               	btfss	16344,2,c
  3490  010E2C                     u8671:
  3491  010E2C  D08B               	goto	l890
  3492                           
  3493                           ; BSR set to: 0
  3494                           ;main.c: 580: {;main.c: 581: if(keyIterrator == 0 && keyBeeps == OFF)
  3495  010E2E  504D               	movf	_keyIterrator,w,c
  3496  010E30  104E               	iorwf	_keyIterrator+1,w,c
  3497  010E32  A4D8               	btfss	16344,2,c
  3498  010E34  D008               	goto	l891
  3499                           
  3500                           ; BSR set to: 0
  3501  010E36  5041               	movf	_OFF,w,c
  3502  010E38  1819               	xorwf	_keyBeeps,w,c
  3503  010E3A  E105               	bnz	l7395
  3504  010E3C  5042               	movf	_OFF+1,w,c
  3505  010E3E  181A               	xorwf	_keyBeeps+1,w,c
  3506  010E40  B4D8               	btfsc	16344,2,c
  3507                           
  3508                           ; BSR set to: 0
  3509                           ;main.c: 582: {;main.c: 583: armBeep();
  3510  010E42  EC9E  F099         	call	_armBeep	;wreg free
  3511  010E46                     l891:
  3512  010E46                     l7395:
  3513                           
  3514                           ;main.c: 584: };main.c: 585: if (keyPressed != '#' && keyPressed != '*' && keyIterrator<
      +                          7)
  3515  010E46  0E23               	movlw	35
  3516  010E48  184F               	xorwf	_keyPressed,w,c
  3517  010E4A  B4D8               	btfsc	16344,2,c
  3518  010E4C  D026               	goto	l892
  3519  010E4E  0E2A               	movlw	42
  3520  010E50  184F               	xorwf	_keyPressed,w,c
  3521  010E52  B4D8               	btfsc	16344,2,c
  3522  010E54  D022               	goto	l892
  3523  010E56  BE4E               	btfsc	_keyIterrator+1,7,c
  3524  010E58  D006               	goto	u8720
  3525  010E5A  504E               	movf	_keyIterrator+1,w,c
  3526  010E5C  E11E               	bnz	l7409
  3527  010E5E  0E07               	movlw	7
  3528  010E60  5C4D               	subwf	_keyIterrator,w,c
  3529  010E62  B0D8               	btfsc	16344,0,c
  3530  010E64  D01A               	goto	l892
  3531  010E66                     u8720:
  3532                           
  3533                           ;main.c: 586: {;main.c: 587: userPswdEntry[keyIterrator] = keyPressed;
  3534  010E66  0E99               	movlw	low _userPswdEntry
  3535  010E68  244D               	addwf	_keyIterrator,w,c
  3536  010E6A  6ED9               	movwf	16345,c
  3537  010E6C  0E00               	movlw	high _userPswdEntry
  3538  010E6E  204E               	addwfc	_keyIterrator+1,w,c
  3539  010E70  6EDA               	movwf	16346,c
  3540  010E72  0060  F13F  FFDF   	movff	_keyPressed,16351
  3541                           
  3542                           ;main.c: 588: keyIterrator++;
  3543  010E78  4A4D               	infsnz	_keyIterrator,f,c
  3544  010E7A  2A4E               	incf	_keyIterrator+1,f,c
  3545                           
  3546                           ;main.c: 589: LCD_Set_Cursor(2,9+keyIterrator);
  3547  010E7C  0E00               	movlw	0
  3548  010E7E  6E30               	movwf	LCD_Set_Cursor@c+1,c
  3549  010E80  0E02               	movlw	2
  3550  010E82  6E2F               	movwf	LCD_Set_Cursor@c,c
  3551  010E84  0E09               	movlw	9
  3552  010E86  244D               	addwf	_keyIterrator,w,c
  3553  010E88  6E31               	movwf	LCD_Set_Cursor@d,c
  3554  010E8A  0E00               	movlw	0
  3555  010E8C  204E               	addwfc	_keyIterrator+1,w,c
  3556  010E8E  6E32               	movwf	LCD_Set_Cursor@d+1,c
  3557  010E90  ECE1  F098         	call	_LCD_Set_Cursor	;wreg free
  3558                           
  3559                           ;main.c: 590: LCD_Write_Char(keyPressed);
  3560  010E94  504F               	movf	_keyPressed,w,c
  3561  010E96  EC5B  F099         	call	_LCD_Write_Char
  3562  010E9A                     l892:
  3563  010E9A                     l7409:
  3564                           
  3565                           ;main.c: 591: };main.c: 593: if (keyPressed != '#' && keyPressed != '*' && keyIterrator<
      +                          7)
  3566  010E9A  0E23               	movlw	35
  3567  010E9C  184F               	xorwf	_keyPressed,w,c
  3568  010E9E  B4D8               	btfsc	16344,2,c
  3569  010EA0  EF04  F080         	goto	l766
  3570  010EA4  0E2A               	movlw	42
  3571  010EA6  184F               	xorwf	_keyPressed,w,c
  3572  010EA8  B4D8               	btfsc	16344,2,c
  3573  010EAA  EF04  F080         	goto	l766
  3574  010EAE  BE4E               	btfsc	_keyIterrator+1,7,c
  3575  010EB0  D007               	goto	u8750
  3576  010EB2  504E               	movf	_keyIterrator+1,w,c
  3577  010EB4  E103               	bnz	u8751
  3578  010EB6  0E07               	movlw	7
  3579  010EB8  5C4D               	subwf	_keyIterrator,w,c
  3580  010EBA  B0D8               	btfsc	16344,0,c
  3581  010EBC                     u8751:
  3582  010EBC  EF04  F080         	goto	l766
  3583  010EC0                     u8750:
  3584                           
  3585                           ;main.c: 594: {;main.c: 595: _delay((unsigned long)((250)*(8000000/4000.0)));
  3586  010EC0  0E03               	movlw	3
  3587  010EC2  0100               	movlb	0	; () banked
  3588  010EC4  6F90               	movwf	(??_main+1)& (0+255),b
  3589  010EC6  0E8A               	movlw	138
  3590  010EC8  6F8F               	movwf	??_main& (0+255),b
  3591  010ECA  0E55               	movlw	85
  3592  010ECC                     u9427:
  3593  010ECC  2EE8               	decfsz	16360,f,c
  3594  010ECE  D7FE               	bra	u9427
  3595  010ED0  2F8F               	decfsz	??_main& (0+255),f,b
  3596  010ED2  D7FC               	bra	u9427
  3597  010ED4  2F90               	decfsz	(??_main+1)& (0+255),f,b
  3598  010ED6  D7FA               	bra	u9427
  3599  010ED8  D000               	nop2	
  3600                           
  3601                           ;main.c: 596: isPasswordTrue = verifyPassword(userPswdEntry,password);
  3602  010EDA  0E99               	movlw	low _userPswdEntry
  3603  010EDC  6E34               	movwf	verifyPassword@user,c
  3604  010EDE  0E00               	movlw	high _userPswdEntry
  3605  010EE0  6E35               	movwf	verifyPassword@user+1,c
  3606  010EE2  0E7E               	movlw	low _password
  3607  010EE4  6E36               	movwf	verifyPassword@pass,c
  3608  010EE6  0E00               	movlw	high _password
  3609  010EE8  6E37               	movwf	verifyPassword@pass+1,c
  3610  010EEA  EC79  F098         	call	_verifyPassword	;wreg free
  3611  010EEE  0060  F0D0  F04B   	movff	?_verifyPassword,_isPasswordTrue
  3612  010EF4  0060  F0D4  F04C   	movff	?_verifyPassword+1,_isPasswordTrue+1
  3613                           
  3614                           ;main.c: 597: resetPasswordEntry();
  3615  010EFA  ECC9  F098         	call	_resetPasswordEntry	;wreg free
  3616                           
  3617                           ;main.c: 599: if(isPasswordTrue == TRUE)
  3618  010EFE  500F               	movf	_TRUE,w,c
  3619  010F00  184B               	xorwf	_isPasswordTrue,w,c
  3620  010F02  E112               	bnz	l7433
  3621  010F04  5010               	movf	_TRUE+1,w,c
  3622  010F06  184C               	xorwf	_isPasswordTrue+1,w,c
  3623  010F08  A4D8               	btfss	16344,2,c
  3624  010F0A  D00E               	goto	l894
  3625                           
  3626                           ;main.c: 600: {;main.c: 601: LCD_printAccepted();
  3627  010F0C  EC14  F095         	call	_LCD_printAccepted	;wreg free
  3628                           
  3629                           ;main.c: 603: armedPageReset();
  3630  010F10  EC5C  F098         	call	_armedPageReset	;wreg free
  3631                           
  3632                           ;main.c: 604: countdownStart();
  3633  010F14  EC3F  F09A         	call	_countdownStart	;wreg free
  3634  010F18                     l7429:
  3635                           
  3636                           ;main.c: 605: status = armed;
  3637  010F18  0060  F07C  F045   	movff	_armed,_status
  3638  010F1E  0060  F080  F046   	movff	_armed+1,_status+1
  3639                           
  3640                           ;main.c: 607: }
  3641                           
  3642                           ;main.c: 606: continue;
  3643  010F24  EF04  F080         	goto	l766
  3644  010F28                     l894:
  3645  010F28                     l7433:
  3646                           
  3647                           ;main.c: 609: else if (isPasswordTrue == FALSE)
  3648  010F28  503F               	movf	_FALSE,w,c
  3649  010F2A  184B               	xorwf	_isPasswordTrue,w,c
  3650  010F2C  E103               	bnz	u8771
  3651  010F2E  5040               	movf	_FALSE+1,w,c
  3652  010F30  184C               	xorwf	_isPasswordTrue+1,w,c
  3653  010F32  A4D8               	btfss	16344,2,c
  3654  010F34                     u8771:
  3655  010F34  EF04  F080         	goto	l766
  3656                           
  3657                           ;main.c: 610: {;main.c: 611: LCD_printDeclined();
  3658  010F38  ECB8  F094         	call	_LCD_printDeclined	;wreg free
  3659                           
  3660                           ;main.c: 612: disarmedPageReset();
  3661  010F3C  EC00  F098         	call	_disarmedPageReset	;wreg free
  3662                           
  3663                           ;main.c: 614: };main.c: 615: };main.c: 616: }
  3664                           
  3665                           ;main.c: 613: continue;
  3666  010F40  EF04  F080         	goto	l766
  3667  010F44                     l890:
  3668                           
  3669                           ;main.c: 619: else if(keyHeld != NONE)
  3670  010F44  5050               	movf	_keyHeld,w,c
  3671  010F46  0100               	movlb	0	; () banked
  3672  010F48  6F8F               	movwf	??_main& (0+255),b
  3673  010F4A  6B90               	clrf	(??_main+1)& (0+255),b
  3674  010F4C  503D               	movf	_NONE,w,c
  3675  010F4E  198F               	xorwf	??_main& (0+255),w,b
  3676  010F50  E105               	bnz	u8780
  3677  010F52  503E               	movf	_NONE+1,w,c
  3678  010F54  1990               	xorwf	(??_main+1)& (0+255),w,b
  3679  010F56  B4D8               	btfsc	16344,2,c
  3680  010F58  EF04  F080         	goto	l766
  3681  010F5C                     u8780:
  3682                           
  3683                           ; BSR set to: 0
  3684                           ;main.c: 620: {;main.c: 622: if (gameMode == 1)
  3685  010F5C  040D               	decf	_gameMode,w,c
  3686  010F5E  100E               	iorwf	_gameMode+1,w,c
  3687  010F60  A4D8               	btfss	16344,2,c
  3688  010F62  D018               	goto	l900
  3689                           
  3690                           ; BSR set to: 0
  3691                           ;main.c: 623: {;main.c: 624: if(keyPressed == 'A' && keyHeld == 'A')
  3692  010F64  0E41               	movlw	65
  3693  010F66  184F               	xorwf	_keyPressed,w,c
  3694  010F68  A4D8               	btfss	16344,2,c
  3695  010F6A  D014               	goto	l900
  3696                           
  3697                           ; BSR set to: 0
  3698  010F6C  0E41               	movlw	65
  3699  010F6E  1850               	xorwf	_keyHeld,w,c
  3700  010F70  A4D8               	btfss	16344,2,c
  3701  010F72  D010               	goto	l900
  3702                           
  3703                           ; BSR set to: 0
  3704                           ;main.c: 625: {;main.c: 626: status = stanby;
  3705  010F74  0060  F10C  F045   	movff	_stanby,_status
  3706  010F7A  0060  F110  F046   	movff	_stanby+1,_status+1
  3707                           
  3708                           ; BSR set to: 0
  3709                           ;main.c: 627: countdown_now_reset_to_initial();
  3710  010F80  EC28  F093         	call	_countdown_now_reset_to_initial	;wreg free
  3711                           
  3712                           ;main.c: 628: countdown_initial_str2num();
  3713  010F84  ECAC  F08A         	call	_countdown_initial_str2num	;wreg free
  3714                           
  3715                           ;main.c: 629: resetPasswordEntry();
  3716  010F88  ECC9  F098         	call	_resetPasswordEntry	;wreg free
  3717                           
  3718                           ;main.c: 630: stanbyPageReset();
  3719  010F8C  ECDF  F097         	call	_stanbyPageReset	;wreg free
  3720                           
  3721                           ;main.c: 631: break;
  3722  010F90  EF0D  F000         	goto	start
  3723  010F94                     l900:
  3724                           
  3725                           ;main.c: 632: };main.c: 633: };main.c: 635: if(keyPressed == '*' && keyHeld == '*')
  3726  010F94  0E2A               	movlw	42
  3727  010F96  184F               	xorwf	_keyPressed,w,c
  3728  010F98  A4D8               	btfss	16344,2,c
  3729  010F9A  D10E               	goto	l901
  3730  010F9C  0E2A               	movlw	42
  3731  010F9E  1850               	xorwf	_keyHeld,w,c
  3732  010FA0  A4D8               	btfss	16344,2,c
  3733  010FA2  D10A               	goto	l901
  3734                           
  3735                           ;main.c: 636: {;main.c: 637: timerChange = TRUE;
  3736  010FA4  0060  F03C  F049   	movff	_TRUE,_timerChange
  3737  010FAA  0060  F040  F04A   	movff	_TRUE+1,_timerChange+1
  3738                           
  3739                           ;main.c: 638: LCD_Set_Cursor(2,1);
  3740  010FB0  0E00               	movlw	0
  3741  010FB2  6E30               	movwf	LCD_Set_Cursor@c+1,c
  3742  010FB4  0E02               	movlw	2
  3743  010FB6  6E2F               	movwf	LCD_Set_Cursor@c,c
  3744  010FB8  0E00               	movlw	0
  3745  010FBA  6E32               	movwf	LCD_Set_Cursor@d+1,c
  3746  010FBC  0E01               	movlw	1
  3747  010FBE  6E31               	movwf	LCD_Set_Cursor@d,c
  3748  010FC0  ECE1  F098         	call	_LCD_Set_Cursor	;wreg free
  3749                           
  3750                           ;main.c: 639: LCD_Write_String("TIMER CHANGE    ");
  3751  010FC4  0E26               	movlw	low STR_28
  3752  010FC6  6E2F               	movwf	LCD_Write_String@f,c
  3753  010FC8  0EFF               	movlw	high STR_28
  3754  010FCA  6E30               	movwf	LCD_Write_String@f+1,c
  3755  010FCC  ECD8  F096         	call	_LCD_Write_String	;wreg free
  3756                           
  3757                           ;main.c: 641: int cursorPos = 0;
  3758  010FD0  0E00               	movlw	0
  3759  010FD2  0100               	movlb	0	; () banked
  3760  010FD4  6F98               	movwf	(main@cursorPos_1259+1)& (0+255),b
  3761  010FD6  0E00               	movlw	0
  3762  010FD8  6F97               	movwf	main@cursorPos_1259& (0+255),b
  3763                           
  3764                           ; BSR set to: 0
  3765                           ;main.c: 642: LCD_printInitialCountdown();
  3766  010FDA  EC4F  F097         	call	_LCD_printInitialCountdown	;wreg free
  3767                           
  3768                           ;main.c: 643: LCD_Set_Cursor(1,9);
  3769  010FDE  0E00               	movlw	0
  3770  010FE0  6E30               	movwf	LCD_Set_Cursor@c+1,c
  3771  010FE2  0E01               	movlw	1
  3772  010FE4  6E2F               	movwf	LCD_Set_Cursor@c,c
  3773  010FE6  0E00               	movlw	0
  3774  010FE8  6E32               	movwf	LCD_Set_Cursor@d+1,c
  3775  010FEA  0E09               	movlw	9
  3776  010FEC  6E31               	movwf	LCD_Set_Cursor@d,c
  3777  010FEE  ECE1  F098         	call	_LCD_Set_Cursor	;wreg free
  3778                           
  3779                           ;main.c: 644: LCD_Cursor_Blink_On();
  3780  010FF2  EC56  F09A         	call	_LCD_Cursor_Blink_On	;wreg free
  3781                           
  3782                           ;main.c: 646: while(timerChange == TRUE)
  3783  010FF6  D0D1               	goto	l936
  3784  010FF8                     
  3785                           ;main.c: 647: {;main.c: 648: keypadOutput = keypadRead();
  3786  010FF8  ECE0  F091         	call	_keypadRead	;wreg free
  3787  010FFC  0060  F0C4  F03B   	movff	?_keypadRead,_keypadOutput
  3788  011002  0060  F0C8  F03C   	movff	?_keypadRead+1,_keypadOutput+1
  3789                           
  3790                           ;main.c: 649: keyPressed = keypadOutput.keyPressed;
  3791  011008  0060  F0EC  F04F   	movff	_keypadOutput,_keyPressed
  3792                           
  3793                           ;main.c: 650: keyHeld = keypadOutput.keyHeld;
  3794  01100E  0060  F0F0  F050   	movff	_keypadOutput+1,_keyHeld
  3795                           
  3796                           ;main.c: 652: if(keyHeld == NONE && keyPressed == '#')
  3797  011014  5050               	movf	_keyHeld,w,c
  3798  011016  0100               	movlb	0	; () banked
  3799  011018  6F8F               	movwf	??_main& (0+255),b
  3800  01101A  6B90               	clrf	(??_main+1)& (0+255),b
  3801  01101C  503D               	movf	_NONE,w,c
  3802  01101E  198F               	xorwf	??_main& (0+255),w,b
  3803  011020  E138               	bnz	l7521
  3804  011022  503E               	movf	_NONE+1,w,c
  3805  011024  1990               	xorwf	(??_main+1)& (0+255),w,b
  3806  011026  A4D8               	btfss	16344,2,c
  3807  011028  D034               	goto	l904
  3808                           
  3809                           ; BSR set to: 0
  3810  01102A  0E23               	movlw	35
  3811  01102C  184F               	xorwf	_keyPressed,w,c
  3812  01102E  A4D8               	btfss	16344,2,c
  3813  011030  D030               	goto	l904
  3814                           
  3815                           ; BSR set to: 0
  3816                           ;main.c: 653: {;main.c: 654: if(cursorPos==0){LCD_Cursor_Right();cursorPos++;}
  3817  011032  5197               	movf	main@cursorPos_1259& (0+255),w,b
  3818  011034  1198               	iorwf	(main@cursorPos_1259+1)& (0+255),w,b
  3819  011036  A4D8               	btfss	16344,2,c
  3820  011038  D003               	goto	l905
  3821                           
  3822                           ; BSR set to: 0
  3823  01103A  EC5E  F09A         	call	_LCD_Cursor_Right	;wreg free
  3824  01103E  D025               	goto	l7517
  3825  011040                     l905:
  3826                           
  3827                           ; BSR set to: 0
  3828                           ;main.c: 655: else if(cursorPos==1){LCD_Cursor_Right();LCD_Cursor_Right();cursorPos++;cu
      +                          rsorPos++;}
  3829                           
  3830                           ; BSR set to: 0
  3831  011040  0597               	decf	main@cursorPos_1259& (0+255),w,b
  3832  011042  1198               	iorwf	(main@cursorPos_1259+1)& (0+255),w,b
  3833  011044  A4D8               	btfss	16344,2,c
  3834  011046  D008               	goto	l907
  3835                           
  3836                           ; BSR set to: 0
  3837  011048  EC5E  F09A         	call	_LCD_Cursor_Right	;wreg free
  3838  01104C  EC5E  F09A         	call	_LCD_Cursor_Right	;wreg free
  3839  011050                     l7495:
  3840  011050  0100               	movlb	0	; () banked
  3841  011052  4B97               	infsnz	main@cursorPos_1259& (0+255),f,b
  3842  011054  2B98               	incf	(main@cursorPos_1259+1)& (0+255),f,b
  3843  011056  D01A               	goto	L8
  3844  011058                     l907:
  3845                           
  3846                           ; BSR set to: 0
  3847                           ;main.c: 656: else if(cursorPos==3){LCD_Cursor_Right();cursorPos++;}
  3848                           
  3849                           ; BSR set to: 0
  3850  011058  0E03               	movlw	3
  3851  01105A  1997               	xorwf	main@cursorPos_1259& (0+255),w,b
  3852  01105C  1198               	iorwf	(main@cursorPos_1259+1)& (0+255),w,b
  3853  01105E  A4D8               	btfss	16344,2,c
  3854  011060  D003               	goto	l909
  3855                           
  3856                           ; BSR set to: 0
  3857  011062  EC5E  F09A         	call	_LCD_Cursor_Right	;wreg free
  3858  011066  D011               	goto	l7517
  3859  011068                     l909:
  3860                           
  3861                           ; BSR set to: 0
  3862                           ;main.c: 657: else if(cursorPos==4){LCD_Cursor_Right();LCD_Cursor_Right();cursorPos++;cu
      +                          rsorPos++;}
  3863                           
  3864                           ; BSR set to: 0
  3865  011068  0E04               	movlw	4
  3866  01106A  1997               	xorwf	main@cursorPos_1259& (0+255),w,b
  3867  01106C  1198               	iorwf	(main@cursorPos_1259+1)& (0+255),w,b
  3868  01106E  A4D8               	btfss	16344,2,c
  3869  011070  D005               	goto	l911
  3870                           
  3871                           ; BSR set to: 0
  3872  011072  EC5E  F09A         	call	_LCD_Cursor_Right	;wreg free
  3873  011076  EC5E  F09A         	call	_LCD_Cursor_Right	;wreg free
  3874  01107A  D7EA               	goto	l7495
  3875  01107C                     l911:
  3876                           
  3877                           ; BSR set to: 0
  3878                           ;main.c: 658: else if(cursorPos==6){LCD_Cursor_Right();cursorPos++;}
  3879                           
  3880                           ; BSR set to: 0
  3881  01107C  0E06               	movlw	6
  3882  01107E  1997               	xorwf	main@cursorPos_1259& (0+255),w,b
  3883  011080  1198               	iorwf	(main@cursorPos_1259+1)& (0+255),w,b
  3884  011082  A4D8               	btfss	16344,2,c
  3885  011084  D08A               	goto	l936
  3886                           
  3887                           ; BSR set to: 0
  3888  011086  EC5E  F09A         	call	_LCD_Cursor_Right	;wreg free
  3889  01108A                     l7517:
  3890  01108A  0100               	movlb	0	; () banked
  3891  01108C                     L8:
  3892  01108C  4B97               	infsnz	main@cursorPos_1259& (0+255),f,b
  3893  01108E  2B98               	incf	(main@cursorPos_1259+1)& (0+255),f,b
  3894                           
  3895                           ; BSR set to: 0
  3896                           ;main.c: 660: }
  3897                           
  3898                           ; BSR set to: 0
  3899                           
  3900                           ; BSR set to: 0
  3901                           
  3902                           ; BSR set to: 0
  3903                           
  3904                           ; BSR set to: 0
  3905                           
  3906                           ; BSR set to: 0
  3907                           
  3908                           ; BSR set to: 0
  3909                           
  3910                           ; BSR set to: 0
  3911  011090  D084               	goto	l936
  3912  011092                     l904:
  3913  011092                     l7521:
  3914                           
  3915                           ; BSR set to: 0
  3916                           ;main.c: 662: else if (keyHeld == NONE && keyPressed == '*')
  3917  011092  5050               	movf	_keyHeld,w,c
  3918  011094  6F8F               	movwf	??_main& (0+255),b
  3919  011096  6B90               	clrf	(??_main+1)& (0+255),b
  3920  011098  503D               	movf	_NONE,w,c
  3921  01109A  198F               	xorwf	??_main& (0+255),w,b
  3922  01109C  E140               	bnz	l7563
  3923  01109E  503E               	movf	_NONE+1,w,c
  3924  0110A0  1990               	xorwf	(??_main+1)& (0+255),w,b
  3925  0110A2  A4D8               	btfss	16344,2,c
  3926  0110A4  D03C               	goto	l917
  3927                           
  3928                           ; BSR set to: 0
  3929  0110A6  0E2A               	movlw	42
  3930  0110A8  184F               	xorwf	_keyPressed,w,c
  3931  0110AA  A4D8               	btfss	16344,2,c
  3932  0110AC  D038               	goto	l917
  3933                           
  3934                           ; BSR set to: 0
  3935                           ;main.c: 663: {;main.c: 664: if(cursorPos==0){}
  3936  0110AE  5197               	movf	main@cursorPos_1259& (0+255),w,b
  3937  0110B0  1198               	iorwf	(main@cursorPos_1259+1)& (0+255),w,b
  3938  0110B2  B4D8               	btfsc	16344,2,c
  3939  0110B4  D072               	goto	l936
  3940                           
  3941                           ; BSR set to: 0
  3942                           ;main.c: 665: else if(cursorPos==1){LCD_Cursor_Left();cursorPos--;}
  3943                           
  3944                           ; BSR set to: 0
  3945                           
  3946                           ; BSR set to: 0
  3947  0110B6  0597               	decf	main@cursorPos_1259& (0+255),w,b
  3948  0110B8  1198               	iorwf	(main@cursorPos_1259+1)& (0+255),w,b
  3949  0110BA  A4D8               	btfss	16344,2,c
  3950  0110BC  D004               	goto	l920
  3951                           
  3952                           ; BSR set to: 0
  3953  0110BE  EC62  F09A         	call	_LCD_Cursor_Left	;wreg free
  3954  0110C2                     l7533:
  3955  0110C2  0100               	movlb	0	; () banked
  3956  0110C4  D028               	goto	L10
  3957  0110C6                     l920:
  3958                           
  3959                           ; BSR set to: 0
  3960                           ;main.c: 666: else if(cursorPos==3){LCD_Cursor_Left();LCD_Cursor_Left();cursorPos--;curs
      +                          orPos--;}
  3961                           
  3962                           ; BSR set to: 0
  3963  0110C6  0E03               	movlw	3
  3964  0110C8  1997               	xorwf	main@cursorPos_1259& (0+255),w,b
  3965  0110CA  1198               	iorwf	(main@cursorPos_1259+1)& (0+255),w,b
  3966  0110CC  A4D8               	btfss	16344,2,c
  3967  0110CE  D009               	goto	l922
  3968                           
  3969                           ; BSR set to: 0
  3970  0110D0  EC62  F09A         	call	_LCD_Cursor_Left	;wreg free
  3971  0110D4  EC62  F09A         	call	_LCD_Cursor_Left	;wreg free
  3972  0110D8                     l7539:
  3973  0110D8  0100               	movlb	0	; () banked
  3974  0110DA  0797               	decf	main@cursorPos_1259& (0+255),f,b
  3975  0110DC  A0D8               	btfss	16344,0,c
  3976  0110DE  0798               	decf	(main@cursorPos_1259+1)& (0+255),f,b
  3977  0110E0  D01A               	goto	L10
  3978  0110E2                     l922:
  3979                           
  3980                           ; BSR set to: 0
  3981                           ;main.c: 667: else if(cursorPos==4){LCD_Cursor_Left();cursorPos--;}
  3982                           
  3983                           ; BSR set to: 0
  3984  0110E2  0E04               	movlw	4
  3985  0110E4  1997               	xorwf	main@cursorPos_1259& (0+255),w,b
  3986  0110E6  1198               	iorwf	(main@cursorPos_1259+1)& (0+255),w,b
  3987  0110E8  A4D8               	btfss	16344,2,c
  3988  0110EA  D003               	goto	l924
  3989                           
  3990                           ; BSR set to: 0
  3991  0110EC  EC62  F09A         	call	_LCD_Cursor_Left	;wreg free
  3992  0110F0  D7E8               	goto	l7533
  3993  0110F2                     l924:
  3994                           
  3995                           ; BSR set to: 0
  3996                           ;main.c: 668: else if(cursorPos==6){LCD_Cursor_Left();LCD_Cursor_Left();cursorPos--;curs
      +                          orPos--;}
  3997                           
  3998                           ; BSR set to: 0
  3999  0110F2  0E06               	movlw	6
  4000  0110F4  1997               	xorwf	main@cursorPos_1259& (0+255),w,b
  4001  0110F6  1198               	iorwf	(main@cursorPos_1259+1)& (0+255),w,b
  4002  0110F8  A4D8               	btfss	16344,2,c
  4003  0110FA  D005               	goto	l926
  4004                           
  4005                           ; BSR set to: 0
  4006  0110FC  EC62  F09A         	call	_LCD_Cursor_Left	;wreg free
  4007  011100  EC62  F09A         	call	_LCD_Cursor_Left	;wreg free
  4008  011104  D7E9               	goto	l7539
  4009  011106                     l926:
  4010                           
  4011                           ; BSR set to: 0
  4012                           ;main.c: 669: else if(cursorPos==7){LCD_Cursor_Left();cursorPos--;}
  4013                           
  4014                           ; BSR set to: 0
  4015  011106  0E07               	movlw	7
  4016  011108  1997               	xorwf	main@cursorPos_1259& (0+255),w,b
  4017  01110A  1198               	iorwf	(main@cursorPos_1259+1)& (0+255),w,b
  4018  01110C  A4D8               	btfss	16344,2,c
  4019  01110E  D045               	goto	l936
  4020                           
  4021                           ; BSR set to: 0
  4022  011110  EC62  F09A         	call	_LCD_Cursor_Left	;wreg free
  4023  011114  D7D6               	goto	l7533
  4024  011116                     L10:
  4025  011116  0797               	decf	main@cursorPos_1259& (0+255),f,b
  4026  011118  A0D8               	btfss	16344,0,c
  4027  01111A  0798               	decf	(main@cursorPos_1259+1)& (0+255),f,b
  4028                           
  4029                           ; BSR set to: 0
  4030                           ;main.c: 670: }
  4031                           
  4032                           ; BSR set to: 0
  4033                           
  4034                           ; BSR set to: 0
  4035                           
  4036                           ; BSR set to: 0
  4037                           
  4038                           ; BSR set to: 0
  4039                           
  4040                           ; BSR set to: 0
  4041  01111C  D03E               	goto	l936
  4042  01111E                     l917:
  4043  01111E                     l7563:
  4044                           
  4045                           ; BSR set to: 0
  4046                           ;main.c: 672: else if (keyHeld == NONE)
  4047  01111E  5050               	movf	_keyHeld,w,c
  4048  011120  6F8F               	movwf	??_main& (0+255),b
  4049  011122  6B90               	clrf	(??_main+1)& (0+255),b
  4050  011124  503D               	movf	_NONE,w,c
  4051  011126  198F               	xorwf	??_main& (0+255),w,b
  4052  011128  E12A               	bnz	l7585
  4053  01112A  503E               	movf	_NONE+1,w,c
  4054  01112C  1990               	xorwf	(??_main+1)& (0+255),w,b
  4055  01112E  A4D8               	btfss	16344,2,c
  4056  011130  D026               	goto	l930
  4057                           
  4058                           ; BSR set to: 0
  4059                           ;main.c: 673: {;main.c: 674: strCountdownInitialTime[cursorPos] = keyPressed;
  4060  011132  0E6C               	movlw	low _strCountdownInitialTime
  4061  011134  2597               	addwf	main@cursorPos_1259& (0+255),w,b
  4062  011136  6ED9               	movwf	16345,c
  4063  011138  0E00               	movlw	high _strCountdownInitialTime
  4064  01113A  2198               	addwfc	(main@cursorPos_1259+1)& (0+255),w,b
  4065  01113C  6EDA               	movwf	16346,c
  4066  01113E  0060  F13F  FFDF   	movff	_keyPressed,16351
  4067                           
  4068                           ; BSR set to: 0
  4069                           ;main.c: 675: LCD_Write_Char(keyPressed);
  4070  011144  504F               	movf	_keyPressed,w,c
  4071  011146  EC5B  F099         	call	_LCD_Write_Char
  4072                           
  4073                           ;main.c: 676: cursorPos++;
  4074  01114A  0100               	movlb	0	; () banked
  4075  01114C  4B97               	infsnz	main@cursorPos_1259& (0+255),f,b
  4076  01114E  2B98               	incf	(main@cursorPos_1259+1)& (0+255),f,b
  4077                           
  4078                           ; BSR set to: 0
  4079                           ;main.c: 677: if(cursorPos == 2 || cursorPos == 5){LCD_Cursor_Right();cursorPos++;}
  4080  011150  0E02               	movlw	2
  4081  011152  1997               	xorwf	main@cursorPos_1259& (0+255),w,b
  4082  011154  1198               	iorwf	(main@cursorPos_1259+1)& (0+255),w,b
  4083  011156  B4D8               	btfsc	16344,2,c
  4084  011158  D005               	goto	u9010
  4085                           
  4086                           ; BSR set to: 0
  4087  01115A  0E05               	movlw	5
  4088  01115C  1997               	xorwf	main@cursorPos_1259& (0+255),w,b
  4089  01115E  1198               	iorwf	(main@cursorPos_1259+1)& (0+255),w,b
  4090  011160  A4D8               	btfss	16344,2,c
  4091  011162  D005               	goto	l931
  4092  011164                     u9010:
  4093                           
  4094                           ; BSR set to: 0
  4095                           
  4096                           ; BSR set to: 0
  4097  011164  EC5E  F09A         	call	_LCD_Cursor_Right	;wreg free
  4098  011168  0100               	movlb	0	; () banked
  4099  01116A  4B97               	infsnz	main@cursorPos_1259& (0+255),f,b
  4100  01116C  2B98               	incf	(main@cursorPos_1259+1)& (0+255),f,b
  4101  01116E                     l931:
  4102                           
  4103                           ; BSR set to: 0
  4104                           ;main.c: 678: if(cursorPos == 8){LCD_Cursor_Left();cursorPos--;}
  4105                           
  4106                           ; BSR set to: 0
  4107  01116E  0E08               	movlw	8
  4108  011170  1997               	xorwf	main@cursorPos_1259& (0+255),w,b
  4109  011172  1198               	iorwf	(main@cursorPos_1259+1)& (0+255),w,b
  4110  011174  A4D8               	btfss	16344,2,c
  4111  011176  D011               	goto	l936
  4112                           
  4113                           ; BSR set to: 0
  4114  011178  EC62  F09A         	call	_LCD_Cursor_Left	;wreg free
  4115  01117C  D7A2               	goto	l7533
  4116  01117E                     l930:
  4117  01117E                     l7585:
  4118                           
  4119                           ; BSR set to: 0
  4120                           ;main.c: 680: else if (keyHeld == '*' && keyPressed == '*')
  4121  01117E  0E2A               	movlw	42
  4122  011180  1850               	xorwf	_keyHeld,w,c
  4123  011182  A4D8               	btfss	16344,2,c
  4124  011184  D00A               	goto	l936
  4125                           
  4126                           ; BSR set to: 0
  4127  011186  0E2A               	movlw	42
  4128  011188  184F               	xorwf	_keyPressed,w,c
  4129  01118A  A4D8               	btfss	16344,2,c
  4130  01118C  D006               	goto	l936
  4131                           
  4132                           ; BSR set to: 0
  4133                           ;main.c: 681: {;main.c: 682: timerChange = FALSE;
  4134  01118E  0060  F0FC  F049   	movff	_FALSE,_timerChange
  4135  011194  0060  F100  F04A   	movff	_FALSE+1,_timerChange+1
  4136  01119A                     l936:
  4137                           
  4138                           ; BSR set to: 0
  4139                           
  4140                           ; BSR set to: 0
  4141                           
  4142                           ; BSR set to: 0
  4143                           
  4144                           ; BSR set to: 0
  4145                           
  4146                           ; BSR set to: 0
  4147  01119A  500F               	movf	_TRUE,w,c
  4148  01119C  1849               	xorwf	_timerChange,w,c
  4149  01119E  E104               	bnz	l7593
  4150  0111A0  5010               	movf	_TRUE+1,w,c
  4151  0111A2  184A               	xorwf	_timerChange+1,w,c
  4152  0111A4  B4D8               	btfsc	16344,2,c
  4153  0111A6  D728               	goto	l903
  4154  0111A8                     l7593:
  4155                           
  4156                           ;main.c: 683: };main.c: 685: };main.c: 686: countdown_initial_str2num();
  4157  0111A8  ECAC  F08A         	call	_countdown_initial_str2num	;wreg free
  4158                           
  4159                           ;main.c: 687: LCD_printNowCountdown();
  4160  0111AC  EC2A  F097         	call	_LCD_printNowCountdown	;wreg free
  4161                           
  4162                           ;main.c: 688: LCD_resetPasswordEntry();
  4163  0111B0  EC95  F098         	call	_LCD_resetPasswordEntry	;wreg free
  4164                           
  4165                           ;main.c: 689: }
  4166  0111B4  EF04  F080         	goto	l766
  4167  0111B8                     l901:
  4168                           
  4169                           ;main.c: 691: else if(keyPressed == '0' && keyHeld == '0')
  4170  0111B8  0E30               	movlw	48
  4171  0111BA  184F               	xorwf	_keyPressed,w,c
  4172  0111BC  A4D8               	btfss	16344,2,c
  4173  0111BE  D069               	goto	l939
  4174  0111C0  0E30               	movlw	48
  4175  0111C2  1850               	xorwf	_keyHeld,w,c
  4176  0111C4  A4D8               	btfss	16344,2,c
  4177  0111C6  D065               	goto	l939
  4178                           
  4179                           ;main.c: 692: {;main.c: 693: status = stanby;
  4180  0111C8  0060  F10C  F045   	movff	_stanby,_status
  4181  0111CE  0060  F110  F046   	movff	_stanby+1,_status+1
  4182                           
  4183                           ;main.c: 695: LCD_Set_Cursor(2,1);
  4184  0111D4  0E00               	movlw	0
  4185  0111D6  6E30               	movwf	LCD_Set_Cursor@c+1,c
  4186  0111D8  0E02               	movlw	2
  4187  0111DA  6E2F               	movwf	LCD_Set_Cursor@c,c
  4188  0111DC  0E00               	movlw	0
  4189  0111DE  6E32               	movwf	LCD_Set_Cursor@d+1,c
  4190  0111E0  0E01               	movlw	1
  4191  0111E2  6E31               	movwf	LCD_Set_Cursor@d,c
  4192  0111E4  ECE1  F098         	call	_LCD_Set_Cursor	;wreg free
  4193                           
  4194                           ;main.c: 696: LCD_Write_String("RESETTING       ");
  4195  0111E8  0ED1               	movlw	low STR_29
  4196  0111EA  6E2F               	movwf	LCD_Write_String@f,c
  4197  0111EC  0EFE               	movlw	high STR_29
  4198  0111EE  6E30               	movwf	LCD_Write_String@f+1,c
  4199  0111F0  ECD8  F096         	call	_LCD_Write_String	;wreg free
  4200                           
  4201                           ;main.c: 697: LCD_Set_Cursor(2,10);
  4202  0111F4  0E00               	movlw	0
  4203  0111F6  6E30               	movwf	LCD_Set_Cursor@c+1,c
  4204  0111F8  0E02               	movlw	2
  4205  0111FA  6E2F               	movwf	LCD_Set_Cursor@c,c
  4206  0111FC  0E00               	movlw	0
  4207  0111FE  6E32               	movwf	LCD_Set_Cursor@d+1,c
  4208  011200  0E0A               	movlw	10
  4209  011202  6E31               	movwf	LCD_Set_Cursor@d,c
  4210  011204  ECE1  F098         	call	_LCD_Set_Cursor	;wreg free
  4211                           
  4212                           ;main.c: 698: _delay((unsigned long)((800)*(8000000/4000.0)));
  4213  011208  0E09               	movlw	9
  4214  01120A  0100               	movlb	0	; () banked
  4215  01120C  6F90               	movwf	(??_main+1)& (0+255),b
  4216  01120E  0E1E               	movlw	30
  4217  011210  6F8F               	movwf	??_main& (0+255),b
  4218  011212  0EE4               	movlw	228
  4219  011214                     u9437:
  4220  011214  2EE8               	decfsz	16360,f,c
  4221  011216  D7FE               	bra	u9437
  4222  011218  2F8F               	decfsz	??_main& (0+255),f,b
  4223  01121A  D7FC               	bra	u9437
  4224  01121C  2F90               	decfsz	(??_main+1)& (0+255),f,b
  4225  01121E  D7FA               	bra	u9437
  4226  011220  F000               	nop	
  4227                           
  4228                           ;main.c: 699: LCD_Write_Char('.');
  4229  011222  0E2E               	movlw	46
  4230  011224  EC5B  F099         	call	_LCD_Write_Char
  4231                           
  4232                           ;main.c: 700: _delay((unsigned long)((800)*(8000000/4000.0)));
  4233  011228  0E09               	movlw	9
  4234  01122A  0100               	movlb	0	; () banked
  4235  01122C  6F90               	movwf	(??_main+1)& (0+255),b
  4236  01122E  0E1E               	movlw	30
  4237  011230  6F8F               	movwf	??_main& (0+255),b
  4238  011232  0EE4               	movlw	228
  4239  011234                     u9447:
  4240  011234  2EE8               	decfsz	16360,f,c
  4241  011236  D7FE               	bra	u9447
  4242  011238  2F8F               	decfsz	??_main& (0+255),f,b
  4243  01123A  D7FC               	bra	u9447
  4244  01123C  2F90               	decfsz	(??_main+1)& (0+255),f,b
  4245  01123E  D7FA               	bra	u9447
  4246  011240  F000               	nop	
  4247                           
  4248                           ;main.c: 701: LCD_Write_Char('.');
  4249  011242  0E2E               	movlw	46
  4250  011244  EC5B  F099         	call	_LCD_Write_Char
  4251                           
  4252                           ;main.c: 702: _delay((unsigned long)((800)*(8000000/4000.0)));
  4253  011248  0E09               	movlw	9
  4254  01124A  0100               	movlb	0	; () banked
  4255  01124C  6F90               	movwf	(??_main+1)& (0+255),b
  4256  01124E  0E1E               	movlw	30
  4257  011250  6F8F               	movwf	??_main& (0+255),b
  4258  011252  0EE4               	movlw	228
  4259  011254                     u9457:
  4260  011254  2EE8               	decfsz	16360,f,c
  4261  011256  D7FE               	bra	u9457
  4262  011258  2F8F               	decfsz	??_main& (0+255),f,b
  4263  01125A  D7FC               	bra	u9457
  4264  01125C  2F90               	decfsz	(??_main+1)& (0+255),f,b
  4265  01125E  D7FA               	bra	u9457
  4266  011260  F000               	nop	
  4267                           
  4268                           ;main.c: 703: LCD_Write_Char('.');
  4269  011262  0E2E               	movlw	46
  4270  011264  EC5B  F099         	call	_LCD_Write_Char
  4271                           
  4272                           ;main.c: 704: _delay((unsigned long)((800)*(8000000/4000.0)));
  4273  011268  0E09               	movlw	9
  4274  01126A  0100               	movlb	0	; () banked
  4275  01126C  6F90               	movwf	(??_main+1)& (0+255),b
  4276  01126E  0E1E               	movlw	30
  4277  011270  6F8F               	movwf	??_main& (0+255),b
  4278  011272  0EE4               	movlw	228
  4279  011274                     u9467:
  4280  011274  2EE8               	decfsz	16360,f,c
  4281  011276  D7FE               	bra	u9467
  4282  011278  2F8F               	decfsz	??_main& (0+255),f,b
  4283  01127A  D7FC               	bra	u9467
  4284  01127C  2F90               	decfsz	(??_main+1)& (0+255),f,b
  4285  01127E  D7FA               	bra	u9467
  4286  011280  F000               	nop	
  4287                           
  4288                           ;main.c: 706: countdown_now_reset_to_initial();
  4289  011282  EC28  F093         	call	_countdown_now_reset_to_initial	;wreg free
  4290                           
  4291                           ;main.c: 707: countdown_initial_str2num();
  4292  011286  ECAC  F08A         	call	_countdown_initial_str2num	;wreg free
  4293                           
  4294                           ;main.c: 708: stanbyPageReset();
  4295  01128A  ECDF  F097         	call	_stanbyPageReset	;wreg free
  4296                           
  4297                           ;main.c: 710: }
  4298                           
  4299                           ;main.c: 709: continue;
  4300  01128E  EF04  F080         	goto	l766
  4301  011292                     l939:
  4302                           
  4303                           ;main.c: 712: else if(keyPressed == '1' && keyHeld == '1')
  4304  011292  0E31               	movlw	49
  4305  011294  184F               	xorwf	_keyPressed,w,c
  4306  011296  A4D8               	btfss	16344,2,c
  4307  011298  D03C               	goto	l941
  4308  01129A  0E31               	movlw	49
  4309  01129C  1850               	xorwf	_keyHeld,w,c
  4310  01129E  A4D8               	btfss	16344,2,c
  4311  0112A0  D038               	goto	l941
  4312                           
  4313                           ;main.c: 713: {;main.c: 714: keyBeeps = !keyBeeps;
  4314  0112A2  5019               	movf	_keyBeeps,w,c
  4315  0112A4  101A               	iorwf	_keyBeeps+1,w,c
  4316  0112A6  A4D8               	btfss	16344,2,c
  4317  0112A8  D002               	goto	u9100
  4318  0112AA  0E01               	movlw	1
  4319  0112AC  D001               	goto	u9110
  4320  0112AE                     u9100:
  4321  0112AE  0E00               	movlw	0
  4322  0112B0                     u9110:
  4323  0112B0  6E19               	movwf	_keyBeeps,c
  4324  0112B2  6A1A               	clrf	_keyBeeps+1,c
  4325                           
  4326                           ;main.c: 716: LCD_Set_Cursor(2,1);
  4327  0112B4  0E00               	movlw	0
  4328  0112B6  6E30               	movwf	LCD_Set_Cursor@c+1,c
  4329  0112B8  0E02               	movlw	2
  4330  0112BA  6E2F               	movwf	LCD_Set_Cursor@c,c
  4331  0112BC  0E00               	movlw	0
  4332  0112BE  6E32               	movwf	LCD_Set_Cursor@d+1,c
  4333  0112C0  0E01               	movlw	1
  4334  0112C2  6E31               	movwf	LCD_Set_Cursor@d,c
  4335  0112C4  ECE1  F098         	call	_LCD_Set_Cursor	;wreg free
  4336                           
  4337                           ;main.c: 718: if(keyBeeps == ON)
  4338  0112C8  5011               	movf	_ON,w,c
  4339  0112CA  1819               	xorwf	_keyBeeps,w,c
  4340  0112CC  E10B               	bnz	l7643
  4341  0112CE  5012               	movf	_ON+1,w,c
  4342  0112D0  181A               	xorwf	_keyBeeps+1,w,c
  4343  0112D2  A4D8               	btfss	16344,2,c
  4344  0112D4  D007               	goto	l942
  4345                           
  4346                           ;main.c: 719: {;main.c: 720: LCD_Write_String("Key Beep ON     ");
  4347  0112D6  0E04               	movlw	low STR_18
  4348  0112D8  6E2F               	movwf	LCD_Write_String@f,c
  4349  0112DA  0EFF               	movlw	high STR_18
  4350  0112DC  6E30               	movwf	LCD_Write_String@f+1,c
  4351  0112DE  ECD8  F096         	call	_LCD_Write_String	;wreg free
  4352                           
  4353                           ;main.c: 721: }
  4354  0112E2  D006               	goto	l943
  4355  0112E4                     l942:
  4356  0112E4                     l7643:
  4357                           
  4358                           ;main.c: 723: else;main.c: 724: {;main.c: 725: LCD_Write_String("Key Beep OFF    ");
  4359  0112E4  0E37               	movlw	low STR_19
  4360  0112E6  6E2F               	movwf	LCD_Write_String@f,c
  4361  0112E8  0EFF               	movlw	high STR_19
  4362  0112EA  6E30               	movwf	LCD_Write_String@f+1,c
  4363  0112EC  ECD8  F096         	call	_LCD_Write_String	;wreg free
  4364  0112F0                     l943:
  4365                           
  4366                           ;main.c: 726: };main.c: 728: _delay((unsigned long)((1500)*(8000000/4000.0)));
  4367  0112F0  0E10               	movlw	16
  4368  0112F2  0100               	movlb	0	; () banked
  4369  0112F4  6F90               	movwf	(??_main+1)& (0+255),b
  4370  0112F6  0E39               	movlw	57
  4371  0112F8  6F8F               	movwf	??_main& (0+255),b
  4372  0112FA  0E0D               	movlw	13
  4373  0112FC                     u9477:
  4374  0112FC  2EE8               	decfsz	16360,f,c
  4375  0112FE  D7FE               	bra	u9477
  4376  011300  2F8F               	decfsz	??_main& (0+255),f,b
  4377  011302  D7FC               	bra	u9477
  4378  011304  2F90               	decfsz	(??_main+1)& (0+255),f,b
  4379  011306  D7FA               	bra	u9477
  4380  011308  D000               	nop2	
  4381                           
  4382                           ;main.c: 729: disarmedPageReset();
  4383  01130A  EC00  F098         	call	_disarmedPageReset	;wreg free
  4384                           
  4385                           ;main.c: 731: }
  4386                           
  4387                           ;main.c: 730: continue;
  4388  01130E  EF04  F080         	goto	l766
  4389  011312                     l941:
  4390                           
  4391                           ;main.c: 733: else if(keyPressed == '2' && keyHeld == '2')
  4392  011312  0E32               	movlw	50
  4393  011314  184F               	xorwf	_keyPressed,w,c
  4394  011316  A4D8               	btfss	16344,2,c
  4395  011318  D054               	goto	l945
  4396  01131A  0E32               	movlw	50
  4397  01131C  1850               	xorwf	_keyHeld,w,c
  4398  01131E  A4D8               	btfss	16344,2,c
  4399  011320  D050               	goto	l945
  4400                           
  4401                           ;main.c: 734: {;main.c: 735: if(cursorBlinkMem == OFF)
  4402  011322  5041               	movf	_OFF,w,c
  4403  011324  1813               	xorwf	_cursorBlinkMem,w,c
  4404  011326  E11D               	bnz	l7665
  4405  011328  5042               	movf	_OFF+1,w,c
  4406  01132A  1814               	xorwf	_cursorBlinkMem+1,w,c
  4407  01132C  A4D8               	btfss	16344,2,c
  4408  01132E  D019               	goto	l946
  4409                           
  4410                           ;main.c: 736: {;main.c: 737: cursorBlinkMem = ON;
  4411  011330  0060  F044  F013   	movff	_ON,_cursorBlinkMem
  4412  011336  0060  F048  F014   	movff	_ON+1,_cursorBlinkMem+1
  4413                           
  4414                           ;main.c: 738: LCD_Cursor_Blink_On();
  4415  01133C  EC56  F09A         	call	_LCD_Cursor_Blink_On	;wreg free
  4416                           
  4417                           ;main.c: 739: LCD_Set_Cursor(2,1);
  4418  011340  0E00               	movlw	0
  4419  011342  6E30               	movwf	LCD_Set_Cursor@c+1,c
  4420  011344  0E02               	movlw	2
  4421  011346  6E2F               	movwf	LCD_Set_Cursor@c,c
  4422  011348  0E00               	movlw	0
  4423  01134A  6E32               	movwf	LCD_Set_Cursor@d+1,c
  4424  01134C  0E01               	movlw	1
  4425  01134E  6E31               	movwf	LCD_Set_Cursor@d,c
  4426  011350  ECE1  F098         	call	_LCD_Set_Cursor	;wreg free
  4427                           
  4428                           ;main.c: 740: LCD_Write_String("Cursor ON       ");
  4429  011354  0EE2               	movlw	low STR_20
  4430  011356  6E2F               	movwf	LCD_Write_String@f,c
  4431  011358  0EFE               	movlw	high STR_20
  4432  01135A  6E30               	movwf	LCD_Write_String@f+1,c
  4433  01135C  ECD8  F096         	call	_LCD_Write_String	;wreg free
  4434                           
  4435                           ;main.c: 741: }
  4436  011360  D01F               	goto	l948
  4437  011362                     l946:
  4438  011362                     l7665:
  4439                           
  4440                           ;main.c: 743: else if(cursorBlinkMem == ON)
  4441  011362  5011               	movf	_ON,w,c
  4442  011364  1813               	xorwf	_cursorBlinkMem,w,c
  4443  011366  E11C               	bnz	l7675
  4444  011368  5012               	movf	_ON+1,w,c
  4445  01136A  1814               	xorwf	_cursorBlinkMem+1,w,c
  4446  01136C  A4D8               	btfss	16344,2,c
  4447  01136E  D018               	goto	l948
  4448                           
  4449                           ;main.c: 744: {;main.c: 745: cursorBlinkMem = OFF;
  4450  011370  0060  F104  F013   	movff	_OFF,_cursorBlinkMem
  4451  011376  0060  F108  F014   	movff	_OFF+1,_cursorBlinkMem+1
  4452                           
  4453                           ;main.c: 746: LCD_Cursor_Blink_Off();
  4454  01137C  EC5A  F09A         	call	_LCD_Cursor_Blink_Off	;wreg free
  4455                           
  4456                           ;main.c: 747: LCD_Set_Cursor(2,1);
  4457  011380  0E00               	movlw	0
  4458  011382  6E30               	movwf	LCD_Set_Cursor@c+1,c
  4459  011384  0E02               	movlw	2
  4460  011386  6E2F               	movwf	LCD_Set_Cursor@c,c
  4461  011388  0E00               	movlw	0
  4462  01138A  6E32               	movwf	LCD_Set_Cursor@d+1,c
  4463  01138C  0E01               	movlw	1
  4464  01138E  6E31               	movwf	LCD_Set_Cursor@d,c
  4465  011390  ECE1  F098         	call	_LCD_Set_Cursor	;wreg free
  4466                           
  4467                           ;main.c: 748: LCD_Write_String("Cursor OFF      ");
  4468  011394  0EF3               	movlw	low STR_21
  4469  011396  6E2F               	movwf	LCD_Write_String@f,c
  4470  011398  0EFE               	movlw	high STR_21
  4471  01139A  6E30               	movwf	LCD_Write_String@f+1,c
  4472  01139C  ECD8  F096         	call	_LCD_Write_String	;wreg free
  4473  0113A0                     l948:
  4474  0113A0                     l7675:
  4475                           
  4476                           ;main.c: 749: };main.c: 751: _delay((unsigned long)((1500)*(8000000/4000.0)));
  4477  0113A0  0E10               	movlw	16
  4478  0113A2  0100               	movlb	0	; () banked
  4479  0113A4  6F90               	movwf	(??_main+1)& (0+255),b
  4480  0113A6  0E39               	movlw	57
  4481  0113A8  6F8F               	movwf	??_main& (0+255),b
  4482  0113AA  0E0D               	movlw	13
  4483  0113AC                     u9487:
  4484  0113AC  2EE8               	decfsz	16360,f,c
  4485  0113AE  D7FE               	bra	u9487
  4486  0113B0  2F8F               	decfsz	??_main& (0+255),f,b
  4487  0113B2  D7FC               	bra	u9487
  4488  0113B4  2F90               	decfsz	(??_main+1)& (0+255),f,b
  4489  0113B6  D7FA               	bra	u9487
  4490  0113B8  D000               	nop2	
  4491                           
  4492                           ;main.c: 752: disarmedPageReset();
  4493  0113BA  EC00  F098         	call	_disarmedPageReset	;wreg free
  4494                           
  4495                           ;main.c: 754: }
  4496                           
  4497                           ;main.c: 753: continue;
  4498  0113BE  EF04  F080         	goto	l766
  4499  0113C2                     l945:
  4500                           
  4501                           ;main.c: 756: else if(keyPressed == '3' && keyHeld == '3')
  4502  0113C2  0E33               	movlw	51
  4503  0113C4  184F               	xorwf	_keyPressed,w,c
  4504  0113C6  A4D8               	btfss	16344,2,c
  4505  0113C8  EF04  F080         	goto	l766
  4506  0113CC  0E33               	movlw	51
  4507  0113CE  1850               	xorwf	_keyHeld,w,c
  4508  0113D0  A4D8               	btfss	16344,2,c
  4509  0113D2  EF04  F080         	goto	l766
  4510                           
  4511                           ;main.c: 757: {;main.c: 758: countdownBeepsMem = !countdownBeepsMem;
  4512  0113D6  5015               	movf	_countdownBeepsMem,w,c
  4513  0113D8  1016               	iorwf	_countdownBeepsMem+1,w,c
  4514  0113DA  A4D8               	btfss	16344,2,c
  4515  0113DC  D002               	goto	u9190
  4516  0113DE  0E01               	movlw	1
  4517  0113E0  D001               	goto	u9200
  4518  0113E2                     u9190:
  4519  0113E2  0E00               	movlw	0
  4520  0113E4                     u9200:
  4521  0113E4  6E15               	movwf	_countdownBeepsMem,c
  4522  0113E6  6A16               	clrf	_countdownBeepsMem+1,c
  4523                           
  4524                           ;main.c: 759: countdownBeeps = !countdownBeeps;
  4525  0113E8  5017               	movf	_countdownBeeps,w,c
  4526  0113EA  1018               	iorwf	_countdownBeeps+1,w,c
  4527  0113EC  A4D8               	btfss	16344,2,c
  4528  0113EE  D002               	goto	u9210
  4529  0113F0  0E01               	movlw	1
  4530  0113F2  D001               	goto	u9220
  4531  0113F4                     u9210:
  4532  0113F4  0E00               	movlw	0
  4533  0113F6                     u9220:
  4534  0113F6  6E17               	movwf	_countdownBeeps,c
  4535  0113F8  6A18               	clrf	_countdownBeeps+1,c
  4536                           
  4537                           ;main.c: 761: LCD_Set_Cursor(2,1);
  4538  0113FA  0E00               	movlw	0
  4539  0113FC  6E30               	movwf	LCD_Set_Cursor@c+1,c
  4540  0113FE  0E02               	movlw	2
  4541  011400  6E2F               	movwf	LCD_Set_Cursor@c,c
  4542  011402  0E00               	movlw	0
  4543  011404  6E32               	movwf	LCD_Set_Cursor@d+1,c
  4544  011406  0E01               	movlw	1
  4545  011408  6E31               	movwf	LCD_Set_Cursor@d,c
  4546  01140A  ECE1  F098         	call	_LCD_Set_Cursor	;wreg free
  4547                           
  4548                           ;main.c: 763: if(countdownBeeps == ON)
  4549  01140E  5011               	movf	_ON,w,c
  4550  011410  1817               	xorwf	_countdownBeeps,w,c
  4551  011412  E10B               	bnz	l7693
  4552  011414  5012               	movf	_ON+1,w,c
  4553  011416  1818               	xorwf	_countdownBeeps+1,w,c
  4554  011418  A4D8               	btfss	16344,2,c
  4555  01141A  D007               	goto	l951
  4556                           
  4557                           ;main.c: 764: {;main.c: 765: LCD_Write_String("Timer Beep ON   ");
  4558  01141C  0E59               	movlw	low STR_22
  4559  01141E  6E2F               	movwf	LCD_Write_String@f,c
  4560  011420  0EFF               	movlw	high STR_22
  4561  011422  6E30               	movwf	LCD_Write_String@f+1,c
  4562  011424  ECD8  F096         	call	_LCD_Write_String	;wreg free
  4563                           
  4564                           ;main.c: 766: }
  4565  011428  D006               	goto	l952
  4566  01142A                     l951:
  4567  01142A                     l7693:
  4568                           
  4569                           ;main.c: 768: else;main.c: 769: {;main.c: 770: LCD_Write_String("Timer Beep OFF  ");
  4570  01142A  0E6A               	movlw	low STR_23
  4571  01142C  6E2F               	movwf	LCD_Write_String@f,c
  4572  01142E  0EFF               	movlw	high STR_23
  4573  011430  6E30               	movwf	LCD_Write_String@f+1,c
  4574  011432  ECD8  F096         	call	_LCD_Write_String	;wreg free
  4575  011436                     l952:
  4576                           
  4577                           ;main.c: 771: };main.c: 773: _delay((unsigned long)((1500)*(8000000/4000.0)));
  4578  011436  0E10               	movlw	16
  4579  011438  0100               	movlb	0	; () banked
  4580  01143A  6F90               	movwf	(??_main+1)& (0+255),b
  4581  01143C  0E39               	movlw	57
  4582  01143E  6F8F               	movwf	??_main& (0+255),b
  4583  011440  0E0D               	movlw	13
  4584  011442                     u9497:
  4585  011442  2EE8               	decfsz	16360,f,c
  4586  011444  D7FE               	bra	u9497
  4587  011446  2F8F               	decfsz	??_main& (0+255),f,b
  4588  011448  D7FC               	bra	u9497
  4589  01144A  2F90               	decfsz	(??_main+1)& (0+255),f,b
  4590  01144C  D7FA               	bra	u9497
  4591  01144E  D000               	nop2	
  4592                           
  4593                           ;main.c: 774: disarmedPageReset();
  4594  011450  EC00  F098         	call	_disarmedPageReset	;wreg free
  4595                           
  4596                           ;main.c: 776: };main.c: 777: };main.c: 778: }
  4597                           
  4598                           ;main.c: 775: continue;
  4599  011454  EF04  F080         	goto	l766
  4600  011458                     l889:
  4601                           
  4602                           ;main.c: 782: else if(status == exploded)
  4603  011458  501B               	movf	_exploded,w,c
  4604  01145A  1845               	xorwf	_status,w,c
  4605  01145C  E103               	bnz	u9241
  4606  01145E  501C               	movf	_exploded+1,w,c
  4607  011460  1846               	xorwf	_status+1,w,c
  4608  011462  A4D8               	btfss	16344,2,c
  4609  011464                     u9241:
  4610  011464  EF04  F080         	goto	l766
  4611                           
  4612                           ;main.c: 783: {;main.c: 784: serialSend('E');
  4613  011468  0E45               	movlw	69
  4614  01146A  EC4C  F09A         	call	_serialSend
  4615                           
  4616                           ;main.c: 785: verifyInterfaceOptions();
  4617  01146E  ECBC  F095         	call	_verifyInterfaceOptions	;wreg free
  4618                           
  4619                           ;main.c: 787: if(keyHeld != 0)
  4620  011472  5050               	movf	_keyHeld,w,c
  4621  011474  B4D8               	btfsc	16344,2,c
  4622  011476  EF04  F080         	goto	l766
  4623                           
  4624                           ;main.c: 788: {;main.c: 789: if(keyPressed == '0' && keyHeld == '0')
  4625  01147A  0E30               	movlw	48
  4626  01147C  184F               	xorwf	_keyPressed,w,c
  4627  01147E  A4D8               	btfss	16344,2,c
  4628  011480  EF04  F080         	goto	l766
  4629  011484  0E30               	movlw	48
  4630  011486  1850               	xorwf	_keyHeld,w,c
  4631  011488  A4D8               	btfss	16344,2,c
  4632  01148A  EF04  F080         	goto	l766
  4633                           
  4634                           ;main.c: 790: {;main.c: 791: status = stanby;
  4635  01148E  0060  F10C  F045   	movff	_stanby,_status
  4636  011494  0060  F110  F046   	movff	_stanby+1,_status+1
  4637                           
  4638                           ;main.c: 793: LCD_Set_Cursor(2,1);
  4639  01149A  0E00               	movlw	0
  4640  01149C  6E30               	movwf	LCD_Set_Cursor@c+1,c
  4641  01149E  0E02               	movlw	2
  4642  0114A0  6E2F               	movwf	LCD_Set_Cursor@c,c
  4643  0114A2  0E00               	movlw	0
  4644  0114A4  6E32               	movwf	LCD_Set_Cursor@d+1,c
  4645  0114A6  0E01               	movlw	1
  4646  0114A8  6E31               	movwf	LCD_Set_Cursor@d,c
  4647  0114AA  ECE1  F098         	call	_LCD_Set_Cursor	;wreg free
  4648                           
  4649                           ;main.c: 794: LCD_Write_String("RESETTING       ");
  4650  0114AE  0ED1               	movlw	low STR_29
  4651  0114B0  6E2F               	movwf	LCD_Write_String@f,c
  4652  0114B2  0EFE               	movlw	high STR_29
  4653  0114B4  6E30               	movwf	LCD_Write_String@f+1,c
  4654  0114B6  ECD8  F096         	call	_LCD_Write_String	;wreg free
  4655                           
  4656                           ;main.c: 795: LCD_Set_Cursor(2,10);
  4657  0114BA  0E00               	movlw	0
  4658  0114BC  6E30               	movwf	LCD_Set_Cursor@c+1,c
  4659  0114BE  0E02               	movlw	2
  4660  0114C0  6E2F               	movwf	LCD_Set_Cursor@c,c
  4661  0114C2  0E00               	movlw	0
  4662  0114C4  6E32               	movwf	LCD_Set_Cursor@d+1,c
  4663  0114C6  0E0A               	movlw	10
  4664  0114C8  6E31               	movwf	LCD_Set_Cursor@d,c
  4665  0114CA  ECE1  F098         	call	_LCD_Set_Cursor	;wreg free
  4666                           
  4667                           ;main.c: 796: _delay((unsigned long)((800)*(8000000/4000.0)));
  4668  0114CE  0E09               	movlw	9
  4669  0114D0  0100               	movlb	0	; () banked
  4670  0114D2  6F90               	movwf	(??_main+1)& (0+255),b
  4671  0114D4  0E1E               	movlw	30
  4672  0114D6  6F8F               	movwf	??_main& (0+255),b
  4673  0114D8  0EE4               	movlw	228
  4674  0114DA                     u9507:
  4675  0114DA  2EE8               	decfsz	16360,f,c
  4676  0114DC  D7FE               	bra	u9507
  4677  0114DE  2F8F               	decfsz	??_main& (0+255),f,b
  4678  0114E0  D7FC               	bra	u9507
  4679  0114E2  2F90               	decfsz	(??_main+1)& (0+255),f,b
  4680  0114E4  D7FA               	bra	u9507
  4681  0114E6  F000               	nop	
  4682                           
  4683                           ;main.c: 797: LCD_Write_Char('.');
  4684  0114E8  0E2E               	movlw	46
  4685  0114EA  EC5B  F099         	call	_LCD_Write_Char
  4686                           
  4687                           ;main.c: 798: _delay((unsigned long)((800)*(8000000/4000.0)));
  4688  0114EE  0E09               	movlw	9
  4689  0114F0  0100               	movlb	0	; () banked
  4690  0114F2  6F90               	movwf	(??_main+1)& (0+255),b
  4691  0114F4  0E1E               	movlw	30
  4692  0114F6  6F8F               	movwf	??_main& (0+255),b
  4693  0114F8  0EE4               	movlw	228
  4694  0114FA                     u9517:
  4695  0114FA  2EE8               	decfsz	16360,f,c
  4696  0114FC  D7FE               	bra	u9517
  4697  0114FE  2F8F               	decfsz	??_main& (0+255),f,b
  4698  011500  D7FC               	bra	u9517
  4699  011502  2F90               	decfsz	(??_main+1)& (0+255),f,b
  4700  011504  D7FA               	bra	u9517
  4701  011506  F000               	nop	
  4702                           
  4703                           ;main.c: 799: LCD_Write_Char('.');
  4704  011508  0E2E               	movlw	46
  4705  01150A  EC5B  F099         	call	_LCD_Write_Char
  4706                           
  4707                           ;main.c: 800: _delay((unsigned long)((800)*(8000000/4000.0)));
  4708  01150E  0E09               	movlw	9
  4709  011510  0100               	movlb	0	; () banked
  4710  011512  6F90               	movwf	(??_main+1)& (0+255),b
  4711  011514  0E1E               	movlw	30
  4712  011516  6F8F               	movwf	??_main& (0+255),b
  4713  011518  0EE4               	movlw	228
  4714  01151A                     u9527:
  4715  01151A  2EE8               	decfsz	16360,f,c
  4716  01151C  D7FE               	bra	u9527
  4717  01151E  2F8F               	decfsz	??_main& (0+255),f,b
  4718  011520  D7FC               	bra	u9527
  4719  011522  2F90               	decfsz	(??_main+1)& (0+255),f,b
  4720  011524  D7FA               	bra	u9527
  4721  011526  F000               	nop	
  4722                           
  4723                           ;main.c: 801: LCD_Write_Char('.');
  4724  011528  0E2E               	movlw	46
  4725  01152A  EC5B  F099         	call	_LCD_Write_Char
  4726                           
  4727                           ;main.c: 802: _delay((unsigned long)((800)*(8000000/4000.0)));
  4728  01152E  0E09               	movlw	9
  4729  011530  0100               	movlb	0	; () banked
  4730  011532  6F90               	movwf	(??_main+1)& (0+255),b
  4731  011534  0E1E               	movlw	30
  4732  011536  6F8F               	movwf	??_main& (0+255),b
  4733  011538  0EE4               	movlw	228
  4734  01153A                     u9537:
  4735  01153A  2EE8               	decfsz	16360,f,c
  4736  01153C  D7FE               	bra	u9537
  4737  01153E  2F8F               	decfsz	??_main& (0+255),f,b
  4738  011540  D7FC               	bra	u9537
  4739  011542  2F90               	decfsz	(??_main+1)& (0+255),f,b
  4740  011544  D7FA               	bra	u9537
  4741  011546  F000               	nop	
  4742                           
  4743                           ;main.c: 803: countdown_now_reset_to_initial();
  4744  011548  EC28  F093         	call	_countdown_now_reset_to_initial	;wreg free
  4745                           
  4746                           ;main.c: 804: countdown_initial_str2num();
  4747  01154C  ECAC  F08A         	call	_countdown_initial_str2num	;wreg free
  4748                           
  4749                           ;main.c: 805: stanbyPageReset();
  4750  011550  ECDF  F097         	call	_stanbyPageReset	;wreg free
  4751                           
  4752                           ;main.c: 815: {
  4753                           
  4754                           ;main.c: 806: continue;
  4755  011554  EF04  F080         	goto	l766
  4756  011558                     __end_of_main:
  4757                           	opt stack 0
  4758                           
  4759 ;; *************** function _verifyPassword *****************
  4760 ;; Defined at:
  4761 ;;		line 51 in file "main.c"
  4762 ;; Parameters:    Size  Location     Type
  4763 ;;  user            2   18[COMRAM] PTR unsigned char 
  4764 ;;		 -> userPswdEntry(8), 
  4765 ;;  pass            2   20[COMRAM] PTR unsigned char 
  4766 ;;		 -> password(8), 
  4767 ;; Auto vars:     Size  Location     Type
  4768 ;;		None
  4769 ;; Return value:  Size  Location     Type
  4770 ;;                  2   18[COMRAM] int 
  4771 ;; Registers used:
  4772 ;;		wreg, fsr2l, fsr2h, status,2, status,0, cstack
  4773 ;; Tracked objects:
  4774 ;;		On entry : 0/0
  4775 ;;		On exit  : 0/0
  4776 ;;		Unchanged: 0/0
  4777 ;; Data sizes:     COMRAM   BANK0   BANK1   BANK2   BANK3   BANK4   BANK5   BANK6   BANK7   BANK8   BANK9  BANK10  BANK1
      +1  BANK12  BANK13  BANK14  BANK15  BANK16  BANK17  BANK18  BANK19  BANK20  BANK21  BANK22  BANK23  BANK24  BANK25  BANK2
      +6  BANK27  BANK28  BANK29  BANK30  BANK31
  4778 ;;      Params:         4       0       0       0       0       0       0       0       0       0       0       0       
      +0       0       0       0       0       0       0       0       0       0       0       0       0       0       0       
      +0       0       0       0       0       0
  4779 ;;      Locals:         0       0       0       0       0       0       0       0       0       0       0       0       
      +0       0       0       0       0       0       0       0       0       0       0       0       0       0       0       
      +0       0       0       0       0       0
  4780 ;;      Temps:          0       0       0       0       0       0       0       0       0       0       0       0       
      +0       0       0       0       0       0       0       0       0       0       0       0       0       0       0       
      +0       0       0       0       0       0
  4781 ;;      Totals:         4       0       0       0       0       0       0       0       0       0       0       0       
      +0       0       0       0       0       0       0       0       0       0       0       0       0       0       0       
      +0       0       0       0       0       0
  4782 ;;Total ram usage:        4 bytes
  4783 ;; Hardware stack levels used:    1
  4784 ;; Hardware stack levels required when called:    6
  4785 ;; This function calls:
  4786 ;;		_strcmp
  4787 ;; This function is called by:
  4788 ;;		_main
  4789 ;; This function uses a non-reentrant model
  4790 ;;
  4791                           
  4792                           	psect	text1
  4793  0130F2                     __ptext1:
  4794                           	opt stack 0
  4795  0130F2                     _verifyPassword:
  4796                           	opt stack 24
  4797                           
  4798                           ;main.c: 53: if (strcmp(user, pass) == 0){return 1;}
  4799                           
  4800                           ;incstack = 0
  4801  0130F2  0060  F0D0  F02E   	movff	verifyPassword@user,strcmp@s1
  4802  0130F8  0060  F0D4  F02F   	movff	verifyPassword@user+1,strcmp@s1+1
  4803  0130FE  0060  F0D8  F030   	movff	verifyPassword@pass,strcmp@s2
  4804  013104  0060  F0DC  F031   	movff	verifyPassword@pass+1,strcmp@s2+1
  4805  01310A  ECAF  F096         	call	_strcmp	;wreg free
  4806  01310E  502E               	movf	?_strcmp,w,c
  4807  013110  102F               	iorwf	?_strcmp+1,w,c
  4808  013112  A4D8               	btfss	16344,2,c
  4809  013114  D005               	goto	l741
  4810  013116  0E00               	movlw	0
  4811  013118  6E35               	movwf	?_verifyPassword+1,c
  4812  01311A  0E01               	movlw	1
  4813  01311C  6E34               	movwf	?_verifyPassword,c
  4814  01311E  0012               	return	
  4815  013120                     l741:
  4816                           
  4817                           ;main.c: 54: else {return 0;}
  4818  013120  0E00               	movlw	0
  4819  013122  6E35               	movwf	?_verifyPassword+1,c
  4820  013124  0E00               	movlw	0
  4821  013126  6E34               	movwf	?_verifyPassword,c
  4822  013128  0012               	return	
  4823  01312A                     __end_of_verifyPassword:
  4824                           	opt stack 0
  4825                           
  4826 ;; *************** function _strcmp *****************
  4827 ;; Defined at:
  4828 ;;		line 33 in file "C:\Program Files (x86)\Microchip\xc8\v2.00\pic\sources\c90\common\strcmp.c"
  4829 ;; Parameters:    Size  Location     Type
  4830 ;;  s1              2   12[COMRAM] PTR const unsigned char 
  4831 ;;		 -> userPswdEntry(8), 
  4832 ;;  s2              2   14[COMRAM] PTR const unsigned char 
  4833 ;;		 -> password(8), 
  4834 ;; Auto vars:     Size  Location     Type
  4835 ;;  r               1   17[COMRAM] char 
  4836 ;; Return value:  Size  Location     Type
  4837 ;;                  2   12[COMRAM] int 
  4838 ;; Registers used:
  4839 ;;		wreg, fsr2l, fsr2h, status,2, status,0
  4840 ;; Tracked objects:
  4841 ;;		On entry : 0/0
  4842 ;;		On exit  : 0/0
  4843 ;;		Unchanged: 0/0
  4844 ;; Data sizes:     COMRAM   BANK0   BANK1   BANK2   BANK3   BANK4   BANK5   BANK6   BANK7   BANK8   BANK9  BANK10  BANK1
      +1  BANK12  BANK13  BANK14  BANK15  BANK16  BANK17  BANK18  BANK19  BANK20  BANK21  BANK22  BANK23  BANK24  BANK25  BANK2
      +6  BANK27  BANK28  BANK29  BANK30  BANK31
  4845 ;;      Params:         4       0       0       0       0       0       0       0       0       0       0       0       
      +0       0       0       0       0       0       0       0       0       0       0       0       0       0       0       
      +0       0       0       0       0       0
  4846 ;;      Locals:         1       0       0       0       0       0       0       0       0       0       0       0       
      +0       0       0       0       0       0       0       0       0       0       0       0       0       0       0       
      +0       0       0       0       0       0
  4847 ;;      Temps:          1       0       0       0       0       0       0       0       0       0       0       0       
      +0       0       0       0       0       0       0       0       0       0       0       0       0       0       0       
      +0       0       0       0       0       0
  4848 ;;      Totals:         6       0       0       0       0       0       0       0       0       0       0       0       
      +0       0       0       0       0       0       0       0       0       0       0       0       0       0       0       
      +0       0       0       0       0       0
  4849 ;;Total ram usage:        6 bytes
  4850 ;; Hardware stack levels used:    1
  4851 ;; Hardware stack levels required when called:    5
  4852 ;; This function calls:
  4853 ;;		Nothing
  4854 ;; This function is called by:
  4855 ;;		_verifyPassword
  4856 ;; This function uses a non-reentrant model
  4857 ;;
  4858                           
  4859                           	psect	text2
  4860  012D5E                     __ptext2:
  4861                           	opt stack 0
  4862  012D5E                     _strcmp:
  4863                           	opt stack 24
  4864                           
  4865                           ;incstack = 0
  4866  012D5E  D004               	goto	l1830
  4867  012D60  4A2E               	infsnz	strcmp@s1,f,c
  4868  012D62  2A2F               	incf	strcmp@s1+1,f,c
  4869  012D64  4A30               	infsnz	strcmp@s2,f,c
  4870  012D66  2A31               	incf	strcmp@s2+1,f,c
  4871  012D68                     l1830:
  4872  012D68  0060  F0BB  FFD9   	movff	strcmp@s1,16345
  4873  012D6E  0060  F0BF  FFDA   	movff	strcmp@s1+1,16346
  4874  012D74  50DF               	movf	16351,w,c
  4875  012D76  6E32               	movwf	??_strcmp& (0+255),c
  4876  012D78  0060  F0C3  FFD9   	movff	strcmp@s2,16345
  4877  012D7E  0060  F0C7  FFDA   	movff	strcmp@s2+1,16346
  4878  012D84  50DF               	movf	16351,w,c
  4879  012D86  0800               	sublw	0
  4880  012D88  2432               	addwf	??_strcmp,w,c
  4881  012D8A  6E33               	movwf	strcmp@r,c
  4882  012D8C  5033               	movf	strcmp@r,w,c
  4883  012D8E  A4D8               	btfss	16344,2,c
  4884  012D90  D009               	goto	u6810
  4885  012D92  0060  F0BB  FFD9   	movff	strcmp@s1,16345
  4886  012D98  0060  F0BF  FFDA   	movff	strcmp@s1+1,16346
  4887  012D9E  50DF               	movf	16351,w,c
  4888  012DA0  A4D8               	btfss	16344,2,c
  4889  012DA2  D7DE               	goto	l1831
  4890  012DA4                     u6810:
  4891  012DA4  5033               	movf	strcmp@r,w,c
  4892  012DA6  6E2E               	movwf	?_strcmp,c
  4893  012DA8  6A2F               	clrf	?_strcmp+1,c
  4894  012DAA  BE2E               	btfsc	?_strcmp,7,c
  4895  012DAC  062F               	decf	?_strcmp+1,f,c
  4896  012DAE  0012               	return	
  4897  012DB0                     __end_of_strcmp:
  4898                           	opt stack 0
  4899                           
  4900 ;; *************** function _verifyInterfaceOptions *****************
  4901 ;; Defined at:
  4902 ;;		line 89 in file "main.c"
  4903 ;; Parameters:    Size  Location     Type
  4904 ;;		None
  4905 ;; Auto vars:     Size  Location     Type
  4906 ;;		None
  4907 ;; Return value:  Size  Location     Type
  4908 ;;                  1    wreg      void 
  4909 ;; Registers used:
  4910 ;;		wreg, status,2, status,0, cstack
  4911 ;; Tracked objects:
  4912 ;;		On entry : 0/0
  4913 ;;		On exit  : 0/0
  4914 ;;		Unchanged: 0/0
  4915 ;; Data sizes:     COMRAM   BANK0   BANK1   BANK2   BANK3   BANK4   BANK5   BANK6   BANK7   BANK8   BANK9  BANK10  BANK1
      +1  BANK12  BANK13  BANK14  BANK15  BANK16  BANK17  BANK18  BANK19  BANK20  BANK21  BANK22  BANK23  BANK24  BANK25  BANK2
      +6  BANK27  BANK28  BANK29  BANK30  BANK31
  4916 ;;      Params:         0       0       0       0       0       0       0       0       0       0       0       0       
      +0       0       0       0       0       0       0       0       0       0       0       0       0       0       0       
      +0       0       0       0       0       0
  4917 ;;      Locals:         0       0       0       0       0       0       0       0       0       0       0       0       
      +0       0       0       0       0       0       0       0       0       0       0       0       0       0       0       
      +0       0       0       0       0       0
  4918 ;;      Temps:          0       0       0       0       0       0       0       0       0       0       0       0       
      +0       0       0       0       0       0       0       0       0       0       0       0       0       0       0       
      +0       0       0       0       0       0
  4919 ;;      Totals:         0       0       0       0       0       0       0       0       0       0       0       0       
      +0       0       0       0       0       0       0       0       0       0       0       0       0       0       0       
      +0       0       0       0       0       0
  4920 ;;Total ram usage:        0 bytes
  4921 ;; Hardware stack levels used:    1
  4922 ;; Hardware stack levels required when called:    7
  4923 ;; This function calls:
  4924 ;;		_LCD_Cursor_Blink_Off
  4925 ;;		_LCD_Cursor_Blink_On
  4926 ;; This function is called by:
  4927 ;;		_main
  4928 ;; This function uses a non-reentrant model
  4929 ;;
  4930                           
  4931                           	psect	text3
  4932  012B78                     __ptext3:
  4933                           	opt stack 0
  4934  012B78                     _verifyInterfaceOptions:
  4935                           	opt stack 23
  4936                           
  4937                           ;main.c: 91: if (keyBeepsMem == ON && status != armed){keyBeeps = ON;}
  4938                           
  4939                           ;incstack = 0
  4940  012B78  5011               	movf	_ON,w,c
  4941  012B7A  0100               	movlb	0	; () banked
  4942  012B7C  1974               	xorwf	_keyBeepsMem& (0+255),w,b
  4943  012B7E  E112               	bnz	l755
  4944  012B80  5012               	movf	_ON+1,w,c
  4945  012B82  1975               	xorwf	(_keyBeepsMem+1)& (0+255),w,b
  4946  012B84  A4D8               	btfss	16344,2,c
  4947  012B86  D00E               	goto	l755
  4948                           
  4949                           ; BSR set to: 0
  4950  012B88  501F               	movf	_armed,w,c
  4951  012B8A  1845               	xorwf	_status,w,c
  4952  012B8C  E104               	bnz	u7440
  4953  012B8E  5020               	movf	_armed+1,w,c
  4954  012B90  1846               	xorwf	_status+1,w,c
  4955  012B92  B4D8               	btfsc	16344,2,c
  4956  012B94  D007               	goto	l755
  4957  012B96                     u7440:
  4958                           
  4959                           ; BSR set to: 0
  4960  012B96  0060  F044  F019   	movff	_ON,_keyBeeps
  4961  012B9C  0060  F048  F01A   	movff	_ON+1,_keyBeeps+1
  4962  012BA2  D006               	goto	l756
  4963  012BA4                     l755:
  4964                           
  4965                           ; BSR set to: 0
  4966                           ;main.c: 92: else {keyBeeps = OFF;}
  4967  012BA4  0060  F104  F019   	movff	_OFF,_keyBeeps
  4968  012BAA  0060  F108  F01A   	movff	_OFF+1,_keyBeeps+1
  4969  012BB0                     l756:
  4970                           
  4971                           ; BSR set to: 0
  4972                           ;main.c: 93: if (countdownBeepsMem == ON){countdownBeeps = ON;}
  4973                           
  4974                           ; BSR set to: 0
  4975  012BB0  5011               	movf	_ON,w,c
  4976  012BB2  1815               	xorwf	_countdownBeepsMem,w,c
  4977  012BB4  E10B               	bnz	l757
  4978  012BB6  5012               	movf	_ON+1,w,c
  4979  012BB8  1816               	xorwf	_countdownBeepsMem+1,w,c
  4980  012BBA  A4D8               	btfss	16344,2,c
  4981  012BBC  D007               	goto	l757
  4982                           
  4983                           ; BSR set to: 0
  4984  012BBE  0060  F044  F017   	movff	_ON,_countdownBeeps
  4985  012BC4  0060  F048  F018   	movff	_ON+1,_countdownBeeps+1
  4986  012BCA  D006               	goto	l758
  4987  012BCC                     l757:
  4988                           
  4989                           ; BSR set to: 0
  4990                           ;main.c: 94: else {countdownBeeps = OFF;}
  4991  012BCC  0060  F104  F017   	movff	_OFF,_countdownBeeps
  4992  012BD2  0060  F108  F018   	movff	_OFF+1,_countdownBeeps+1
  4993  012BD8                     l758:
  4994                           
  4995                           ; BSR set to: 0
  4996                           ;main.c: 95: if (cursorBlinkMem == ON && status != armed){LCD_Cursor_Blink_On();}
  4997                           
  4998                           ; BSR set to: 0
  4999  012BD8  5011               	movf	_ON,w,c
  5000  012BDA  1813               	xorwf	_cursorBlinkMem,w,c
  5001  012BDC  E10E               	bnz	l6721
  5002  012BDE  5012               	movf	_ON+1,w,c
  5003  012BE0  1814               	xorwf	_cursorBlinkMem+1,w,c
  5004  012BE2  A4D8               	btfss	16344,2,c
  5005  012BE4  D00A               	goto	l759
  5006                           
  5007                           ; BSR set to: 0
  5008  012BE6  501F               	movf	_armed,w,c
  5009  012BE8  1845               	xorwf	_status,w,c
  5010  012BEA  E104               	bnz	u7470
  5011  012BEC  5020               	movf	_armed+1,w,c
  5012  012BEE  1846               	xorwf	_status+1,w,c
  5013  012BF0  B4D8               	btfsc	16344,2,c
  5014  012BF2  D003               	goto	l759
  5015  012BF4                     u7470:
  5016                           
  5017                           ; BSR set to: 0
  5018  012BF4  EC56  F09A         	call	_LCD_Cursor_Blink_On	;wreg free
  5019  012BF8  0012               	return	
  5020  012BFA                     l759:
  5021  012BFA                     l6721:
  5022                           
  5023                           ;main.c: 96: else {LCD_Cursor_Blink_Off();}
  5024  012BFA  EC5A  F09A         	call	_LCD_Cursor_Blink_Off	;wreg free
  5025  012BFE  0012               	return	
  5026  012C00                     __end_of_verifyInterfaceOptions:
  5027                           	opt stack 0
  5028                           
  5029 ;; *************** function _LCD_Cursor_Blink_On *****************
  5030 ;; Defined at:
  5031 ;;		line 96 in file "lcd.c"
  5032 ;; Parameters:    Size  Location     Type
  5033 ;;		None
  5034 ;; Auto vars:     Size  Location     Type
  5035 ;;		None
  5036 ;; Return value:  Size  Location     Type
  5037 ;;                  1    wreg      void 
  5038 ;; Registers used:
  5039 ;;		wreg, status,2, cstack
  5040 ;; Tracked objects:
  5041 ;;		On entry : 0/0
  5042 ;;		On exit  : 0/0
  5043 ;;		Unchanged: 0/0
  5044 ;; Data sizes:     COMRAM   BANK0   BANK1   BANK2   BANK3   BANK4   BANK5   BANK6   BANK7   BANK8   BANK9  BANK10  BANK1
      +1  BANK12  BANK13  BANK14  BANK15  BANK16  BANK17  BANK18  BANK19  BANK20  BANK21  BANK22  BANK23  BANK24  BANK25  BANK2
      +6  BANK27  BANK28  BANK29  BANK30  BANK31
  5045 ;;      Params:         0       0       0       0       0       0       0       0       0       0       0       0       
      +0       0       0       0       0       0       0       0       0       0       0       0       0       0       0       
      +0       0       0       0       0       0
  5046 ;;      Locals:         0       0       0       0       0       0       0       0       0       0       0       0       
      +0       0       0       0       0       0       0       0       0       0       0       0       0       0       0       
      +0       0       0       0       0       0
  5047 ;;      Temps:          0       0       0       0       0       0       0       0       0       0       0       0       
      +0       0       0       0       0       0       0       0       0       0       0       0       0       0       0       
      +0       0       0       0       0       0
  5048 ;;      Totals:         0       0       0       0       0       0       0       0       0       0       0       0       
      +0       0       0       0       0       0       0       0       0       0       0       0       0       0       0       
      +0       0       0       0       0       0
  5049 ;;Total ram usage:        0 bytes
  5050 ;; Hardware stack levels used:    1
  5051 ;; Hardware stack levels required when called:    6
  5052 ;; This function calls:
  5053 ;;		_LCD_Cmd
  5054 ;; This function is called by:
  5055 ;;		_verifyInterfaceOptions
  5056 ;;		_main
  5057 ;; This function uses a non-reentrant model
  5058 ;;
  5059                           
  5060                           	psect	text4
  5061  0134AC                     __ptext4:
  5062                           	opt stack 0
  5063  0134AC                     _LCD_Cursor_Blink_On:
  5064                           	opt stack 23
  5065                           
  5066                           ;lcd.c: 98: LCD_Cmd(0x0F);
  5067                           
  5068                           ;incstack = 0
  5069  0134AC  0E0F               	movlw	15
  5070  0134AE  ECBD  F099         	call	_LCD_Cmd
  5071  0134B2  0012               	return		;funcret
  5072  0134B4                     __end_of_LCD_Cursor_Blink_On:
  5073                           	opt stack 0
  5074                           
  5075 ;; *************** function _stanbyPageReset *****************
  5076 ;; Defined at:
  5077 ;;		line 57 in file "main.c"
  5078 ;; Parameters:    Size  Location     Type
  5079 ;;		None
  5080 ;; Auto vars:     Size  Location     Type
  5081 ;;		None
  5082 ;; Return value:  Size  Location     Type
  5083 ;;                  1    wreg      void 
  5084 ;; Registers used:
  5085 ;;		wreg, fsr2l, fsr2h, status,2, status,0, tblptrl, tblptrh, tblptru, cstack
  5086 ;; Tracked objects:
  5087 ;;		On entry : 0/0
  5088 ;;		On exit  : 0/0
  5089 ;;		Unchanged: 0/0
  5090 ;; Data sizes:     COMRAM   BANK0   BANK1   BANK2   BANK3   BANK4   BANK5   BANK6   BANK7   BANK8   BANK9  BANK10  BANK1
      +1  BANK12  BANK13  BANK14  BANK15  BANK16  BANK17  BANK18  BANK19  BANK20  BANK21  BANK22  BANK23  BANK24  BANK25  BANK2
      +6  BANK27  BANK28  BANK29  BANK30  BANK31
  5091 ;;      Params:         0       0       0       0       0       0       0       0       0       0       0       0       
      +0       0       0       0       0       0       0       0       0       0       0       0       0       0       0       
      +0       0       0       0       0       0
  5092 ;;      Locals:         0       0       0       0       0       0       0       0       0       0       0       0       
      +0       0       0       0       0       0       0       0       0       0       0       0       0       0       0       
      +0       0       0       0       0       0
  5093 ;;      Temps:          0       0       0       0       0       0       0       0       0       0       0       0       
      +0       0       0       0       0       0       0       0       0       0       0       0       0       0       0       
      +0       0       0       0       0       0
  5094 ;;      Totals:         0       0       0       0       0       0       0       0       0       0       0       0       
      +0       0       0       0       0       0       0       0       0       0       0       0       0       0       0       
      +0       0       0       0       0       0
  5095 ;;Total ram usage:        0 bytes
  5096 ;; Hardware stack levels used:    1
  5097 ;; Hardware stack levels required when called:    8
  5098 ;; This function calls:
  5099 ;;		_LCD_Clear
  5100 ;;		_LCD_Set_Cursor
  5101 ;;		_LCD_Write_String
  5102 ;;		_LCD_printNowCountdown
  5103 ;;		_LCD_resetPasswordEntry
  5104 ;;		_resetEntry
  5105 ;; This function is called by:
  5106 ;;		_main
  5107 ;; This function uses a non-reentrant model
  5108 ;;
  5109                           
  5110                           	psect	text5
  5111  012FBE                     __ptext5:
  5112                           	opt stack 0
  5113  012FBE                     _stanbyPageReset:
  5114                           	opt stack 22
  5115                           
  5116                           ;main.c: 59: keyIterrator = 0;
  5117                           
  5118                           ;incstack = 0
  5119  012FBE  0E00               	movlw	0
  5120  012FC0  6E4E               	movwf	_keyIterrator+1,c
  5121  012FC2  0E00               	movlw	0
  5122  012FC4  6E4D               	movwf	_keyIterrator,c
  5123                           
  5124                           ;main.c: 60: resetEntry(userPswdEntry);
  5125  012FC6  0E99               	movlw	low _userPswdEntry
  5126  012FC8  6E34               	movwf	resetEntry@str,c
  5127  012FCA  0E00               	movlw	high _userPswdEntry
  5128  012FCC  6E35               	movwf	resetEntry@str+1,c
  5129  012FCE  EC21  F098         	call	_resetEntry	;wreg free
  5130                           
  5131                           ;main.c: 62: LCD_Clear();
  5132  012FD2  EC8E  F099         	call	_LCD_Clear	;wreg free
  5133                           
  5134                           ;main.c: 63: LCD_Set_Cursor(1,1);
  5135  012FD6  0E00               	movlw	0
  5136  012FD8  6E30               	movwf	LCD_Set_Cursor@c+1,c
  5137  012FDA  0E01               	movlw	1
  5138  012FDC  6E2F               	movwf	LCD_Set_Cursor@c,c
  5139  012FDE  0E00               	movlw	0
  5140  012FE0  6E32               	movwf	LCD_Set_Cursor@d+1,c
  5141  012FE2  0E01               	movlw	1
  5142  012FE4  6E31               	movwf	LCD_Set_Cursor@d,c
  5143  012FE6  ECE1  F098         	call	_LCD_Set_Cursor	;wreg free
  5144                           
  5145                           ;main.c: 64: LCD_Write_String("STANBY  ");
  5146  012FEA  0ED5               	movlw	low STR_10
  5147  012FEC  6E2F               	movwf	LCD_Write_String@f,c
  5148  012FEE  0EFF               	movlw	high STR_10
  5149  012FF0  6E30               	movwf	LCD_Write_String@f+1,c
  5150  012FF2  ECD8  F096         	call	_LCD_Write_String	;wreg free
  5151                           
  5152                           ;main.c: 65: LCD_printNowCountdown();
  5153  012FF6  EC2A  F097         	call	_LCD_printNowCountdown	;wreg free
  5154                           
  5155                           ;main.c: 66: LCD_resetPasswordEntry();
  5156  012FFA  EC95  F098         	call	_LCD_resetPasswordEntry	;wreg free
  5157  012FFE  0012               	return		;funcret
  5158  013000                     __end_of_stanbyPageReset:
  5159                           	opt stack 0
  5160                           
  5161 ;; *************** function _setup *****************
  5162 ;; Defined at:
  5163 ;;		line 21 in file "main.c"
  5164 ;; Parameters:    Size  Location     Type
  5165 ;;		None
  5166 ;; Auto vars:     Size  Location     Type
  5167 ;;		None
  5168 ;; Return value:  Size  Location     Type
  5169 ;;                  1    wreg      void 
  5170 ;; Registers used:
  5171 ;;		wreg, status,2, status,0, cstack
  5172 ;; Tracked objects:
  5173 ;;		On entry : 0/0
  5174 ;;		On exit  : 0/0
  5175 ;;		Unchanged: 0/0
  5176 ;; Data sizes:     COMRAM   BANK0   BANK1   BANK2   BANK3   BANK4   BANK5   BANK6   BANK7   BANK8   BANK9  BANK10  BANK1
      +1  BANK12  BANK13  BANK14  BANK15  BANK16  BANK17  BANK18  BANK19  BANK20  BANK21  BANK22  BANK23  BANK24  BANK25  BANK2
      +6  BANK27  BANK28  BANK29  BANK30  BANK31
  5177 ;;      Params:         0       0       0       0       0       0       0       0       0       0       0       0       
      +0       0       0       0       0       0       0       0       0       0       0       0       0       0       0       
      +0       0       0       0       0       0
  5178 ;;      Locals:         0       0       0       0       0       0       0       0       0       0       0       0       
      +0       0       0       0       0       0       0       0       0       0       0       0       0       0       0       
      +0       0       0       0       0       0
  5179 ;;      Temps:          0       0       0       0       0       0       0       0       0       0       0       0       
      +0       0       0       0       0       0       0       0       0       0       0       0       0       0       0       
      +0       0       0       0       0       0
  5180 ;;      Totals:         0       0       0       0       0       0       0       0       0       0       0       0       
      +0       0       0       0       0       0       0       0       0       0       0       0       0       0       0       
      +0       0       0       0       0       0
  5181 ;;Total ram usage:        0 bytes
  5182 ;; Hardware stack levels used:    1
  5183 ;; Hardware stack levels required when called:    7
  5184 ;; This function calls:
  5185 ;;		_BEEPER_Initialize
  5186 ;;		_COUNTDOWN_Initialize
  5187 ;;		_KEYPAD_Initialize
  5188 ;;		_LCD_Initialize
  5189 ;;		_SYSTEM_Initialize
  5190 ;;		_UART1_Initialize
  5191 ;; This function is called by:
  5192 ;;		_main
  5193 ;; This function uses a non-reentrant model
  5194 ;;
  5195                           
  5196                           	psect	text6
  5197  0133B2                     __ptext6:
  5198                           	opt stack 0
  5199  0133B2                     _setup:
  5200                           	opt stack 23
  5201                           
  5202                           ;main.c: 23: UART1_Initialize();
  5203                           
  5204                           ;incstack = 0
  5205  0133B2  EC0F  F099         	call	_UART1_Initialize	;wreg free
  5206                           
  5207                           ;main.c: 24: SYSTEM_Initialize();
  5208  0133B6  ECE6  F099         	call	_SYSTEM_Initialize	;wreg free
  5209                           
  5210                           ;main.c: 25: BEEPER_Initialize();
  5211  0133BA  EC99  F097         	call	_BEEPER_Initialize	;wreg free
  5212                           
  5213                           ;main.c: 26: KEYPAD_Initialize();
  5214  0133BE  ECAE  F099         	call	_KEYPAD_Initialize	;wreg free
  5215                           
  5216                           ;main.c: 27: COUNTDOWN_Initialize();
  5217  0133C2  EC4A  F099         	call	_COUNTDOWN_Initialize	;wreg free
  5218                           
  5219                           ;main.c: 28: LCD_Initialize();
  5220  0133C6  EC00  F096         	call	_LCD_Initialize	;wreg free
  5221  0133CA  0012               	return		;funcret
  5222  0133CC                     __end_of_setup:
  5223                           	opt stack 0
  5224                           
  5225 ;; *************** function _UART1_Initialize *****************
  5226 ;; Defined at:
  5227 ;;		line 8 in file "UART.c"
  5228 ;; Parameters:    Size  Location     Type
  5229 ;;		None
  5230 ;; Auto vars:     Size  Location     Type
  5231 ;;		None
  5232 ;; Return value:  Size  Location     Type
  5233 ;;                  1    wreg      void 
  5234 ;; Registers used:
  5235 ;;		wreg, status,2
  5236 ;; Tracked objects:
  5237 ;;		On entry : 0/0
  5238 ;;		On exit  : 0/0
  5239 ;;		Unchanged: 0/0
  5240 ;; Data sizes:     COMRAM   BANK0   BANK1   BANK2   BANK3   BANK4   BANK5   BANK6   BANK7   BANK8   BANK9  BANK10  BANK1
      +1  BANK12  BANK13  BANK14  BANK15  BANK16  BANK17  BANK18  BANK19  BANK20  BANK21  BANK22  BANK23  BANK24  BANK25  BANK2
      +6  BANK27  BANK28  BANK29  BANK30  BANK31
  5241 ;;      Params:         0       0       0       0       0       0       0       0       0       0       0       0       
      +0       0       0       0       0       0       0       0       0       0       0       0       0       0       0       
      +0       0       0       0       0       0
  5242 ;;      Locals:         0       0       0       0       0       0       0       0       0       0       0       0       
      +0       0       0       0       0       0       0       0       0       0       0       0       0       0       0       
      +0       0       0       0       0       0
  5243 ;;      Temps:          0       0       0       0       0       0       0       0       0       0       0       0       
      +0       0       0       0       0       0       0       0       0       0       0       0       0       0       0       
      +0       0       0       0       0       0
  5244 ;;      Totals:         0       0       0       0       0       0       0       0       0       0       0       0       
      +0       0       0       0       0       0       0       0       0       0       0       0       0       0       0       
      +0       0       0       0       0       0
  5245 ;;Total ram usage:        0 bytes
  5246 ;; Hardware stack levels used:    1
  5247 ;; Hardware stack levels required when called:    5
  5248 ;; This function calls:
  5249 ;;		Nothing
  5250 ;; This function is called by:
  5251 ;;		_setup
  5252 ;; This function uses a non-reentrant model
  5253 ;;
  5254                           
  5255                           	psect	text7
  5256  01321E                     __ptext7:
  5257                           	opt stack 0
  5258  01321E                     _UART1_Initialize:
  5259                           	opt stack 24
  5260                           
  5261                           ;UART.c: 11: U1CON0bits.BRGS = 0;
  5262                           
  5263                           ;incstack = 0
  5264  01321E  013D               	movlb	61	; () banked
  5265  013220  9FF2               	bcf	242,7,b	;volatile
  5266                           
  5267                           ;UART.c: 12: U1CON0bits.ABDEN = 0;
  5268  013222  9DF2               	bcf	242,6,b	;volatile
  5269                           
  5270                           ;UART.c: 13: U1CON0bits.TXEN = 1;
  5271  013224  8BF2               	bsf	242,5,b	;volatile
  5272                           
  5273                           ;UART.c: 14: U1CON0bits.MODE = 0b0000;
  5274  013226  91F2               	bcf	242,0,b	;volatile
  5275  013228  93F2               	bcf	242,1,b	;volatile
  5276  01322A  95F2               	bcf	242,2,b	;volatile
  5277  01322C  97F2               	bcf	242,3,b	;volatile
  5278                           
  5279                           ;UART.c: 16: U1CON1bits.ON = 1;
  5280  01322E  8FF3               	bsf	243,7,b	;volatile
  5281                           
  5282                           ; BSR set to: 61
  5283                           ;UART.c: 20: U1BRGH = 0b0000;
  5284  013230  0E00               	movlw	0
  5285  013232  6FF6               	movwf	246,b	;volatile
  5286                           
  5287                           ;UART.c: 21: U1BRGL = 0b0011;
  5288  013234  0E03               	movlw	3
  5289  013236  6FF5               	movwf	245,b	;volatile
  5290                           
  5291                           ;UART.c: 23: U1RXPPS = 0b010000;
  5292  013238  0E10               	movlw	16
  5293  01323A  013A               	movlb	58	; () banked
  5294  01323C  6FE5               	movwf	229,b	;volatile
  5295                           
  5296                           ;UART.c: 24: RC1PPS = 0b010011;
  5297  01323E  0E13               	movlw	19
  5298  013240  6F11               	movwf	17,b	;volatile
  5299                           
  5300                           ; BSR set to: 58
  5301                           ;UART.c: 26: TRISCbits.TRISC1 = 0;
  5302  013242  013F               	movlb	63	; () banked
  5303  013244  93C4               	bcf	196,1,b	;volatile
  5304                           
  5305                           ; BSR set to: 63
  5306                           ;UART.c: 27: TRISCbits.TRISC0 = 1;
  5307  013246  81C4               	bsf	196,0,b	;volatile
  5308                           
  5309                           ; BSR set to: 63
  5310  013248  0012               	return		;funcret
  5311  01324A                     __end_of_UART1_Initialize:
  5312                           	opt stack 0
  5313                           
  5314 ;; *************** function _SYSTEM_Initialize *****************
  5315 ;; Defined at:
  5316 ;;		line 7 in file "mcc.c"
  5317 ;; Parameters:    Size  Location     Type
  5318 ;;		None
  5319 ;; Auto vars:     Size  Location     Type
  5320 ;;		None
  5321 ;; Return value:  Size  Location     Type
  5322 ;;                  1    wreg      void 
  5323 ;; Registers used:
  5324 ;;		wreg, status,2, cstack
  5325 ;; Tracked objects:
  5326 ;;		On entry : 0/0
  5327 ;;		On exit  : 0/0
  5328 ;;		Unchanged: 0/0
  5329 ;; Data sizes:     COMRAM   BANK0   BANK1   BANK2   BANK3   BANK4   BANK5   BANK6   BANK7   BANK8   BANK9  BANK10  BANK1
      +1  BANK12  BANK13  BANK14  BANK15  BANK16  BANK17  BANK18  BANK19  BANK20  BANK21  BANK22  BANK23  BANK24  BANK25  BANK2
      +6  BANK27  BANK28  BANK29  BANK30  BANK31
  5330 ;;      Params:         0       0       0       0       0       0       0       0       0       0       0       0       
      +0       0       0       0       0       0       0       0       0       0       0       0       0       0       0       
      +0       0       0       0       0       0
  5331 ;;      Locals:         0       0       0       0       0       0       0       0       0       0       0       0       
      +0       0       0       0       0       0       0       0       0       0       0       0       0       0       0       
      +0       0       0       0       0       0
  5332 ;;      Temps:          0       0       0       0       0       0       0       0       0       0       0       0       
      +0       0       0       0       0       0       0       0       0       0       0       0       0       0       0       
      +0       0       0       0       0       0
  5333 ;;      Totals:         0       0       0       0       0       0       0       0       0       0       0       0       
      +0       0       0       0       0       0       0       0       0       0       0       0       0       0       0       
      +0       0       0       0       0       0
  5334 ;;Total ram usage:        0 bytes
  5335 ;; Hardware stack levels used:    1
  5336 ;; Hardware stack levels required when called:    6
  5337 ;; This function calls:
  5338 ;;		_ADC_MANAGER_Initialize
  5339 ;;		_CONFIGURATION_Initialize
  5340 ;;		_INTERRUPT_Initialize
  5341 ;;		_OSCILLATOR_Initialize
  5342 ;;		_PIN_MANAGER_Initialize
  5343 ;;		_PMD_Initialize
  5344 ;; This function is called by:
  5345 ;;		_setup
  5346 ;; This function uses a non-reentrant model
  5347 ;;
  5348                           
  5349                           	psect	text8
  5350  0133CC                     __ptext8:
  5351                           	opt stack 0
  5352  0133CC                     _SYSTEM_Initialize:
  5353                           	opt stack 23
  5354                           
  5355                           ;mcc.c: 9: CONFIGURATION_Initialize();
  5356                           
  5357                           ; BSR set to: 63
  5358                           ;incstack = 0
  5359  0133CC  EC6C  F09A         	call	_CONFIGURATION_Initialize	;wreg free
  5360                           
  5361                           ;mcc.c: 10: INTERRUPT_Initialize();
  5362  0133D0  EC46  F09A         	call	_INTERRUPT_Initialize	;wreg free
  5363                           
  5364                           ;mcc.c: 11: PMD_Initialize();
  5365  0133D4  EC38  F099         	call	_PMD_Initialize	;wreg free
  5366                           
  5367                           ;mcc.c: 12: PIN_MANAGER_Initialize();
  5368  0133D8  ECB0  F098         	call	_PIN_MANAGER_Initialize	;wreg free
  5369                           
  5370                           ;mcc.c: 13: OSCILLATOR_Initialize();
  5371  0133DC  ECF3  F099         	call	_OSCILLATOR_Initialize	;wreg free
  5372                           
  5373                           ;mcc.c: 14: ADC_MANAGER_Initialize();
  5374  0133E0  EC6D  F09A         	call	_ADC_MANAGER_Initialize	;wreg free
  5375  0133E4  0012               	return		;funcret
  5376  0133E6                     __end_of_SYSTEM_Initialize:
  5377                           	opt stack 0
  5378                           
  5379 ;; *************** function _PMD_Initialize *****************
  5380 ;; Defined at:
  5381 ;;		line 48 in file "mcc.c"
  5382 ;; Parameters:    Size  Location     Type
  5383 ;;		None
  5384 ;; Auto vars:     Size  Location     Type
  5385 ;;		None
  5386 ;; Return value:  Size  Location     Type
  5387 ;;                  1    wreg      void 
  5388 ;; Registers used:
  5389 ;;		wreg, status,2
  5390 ;; Tracked objects:
  5391 ;;		On entry : 0/0
  5392 ;;		On exit  : 0/0
  5393 ;;		Unchanged: 0/0
  5394 ;; Data sizes:     COMRAM   BANK0   BANK1   BANK2   BANK3   BANK4   BANK5   BANK6   BANK7   BANK8   BANK9  BANK10  BANK1
      +1  BANK12  BANK13  BANK14  BANK15  BANK16  BANK17  BANK18  BANK19  BANK20  BANK21  BANK22  BANK23  BANK24  BANK25  BANK2
      +6  BANK27  BANK28  BANK29  BANK30  BANK31
  5395 ;;      Params:         0       0       0       0       0       0       0       0       0       0       0       0       
      +0       0       0       0       0       0       0       0       0       0       0       0       0       0       0       
      +0       0       0       0       0       0
  5396 ;;      Locals:         0       0       0       0       0       0       0       0       0       0       0       0       
      +0       0       0       0       0       0       0       0       0       0       0       0       0       0       0       
      +0       0       0       0       0       0
  5397 ;;      Temps:          0       0       0       0       0       0       0       0       0       0       0       0       
      +0       0       0       0       0       0       0       0       0       0       0       0       0       0       0       
      +0       0       0       0       0       0
  5398 ;;      Totals:         0       0       0       0       0       0       0       0       0       0       0       0       
      +0       0       0       0       0       0       0       0       0       0       0       0       0       0       0       
      +0       0       0       0       0       0
  5399 ;;Total ram usage:        0 bytes
  5400 ;; Hardware stack levels used:    1
  5401 ;; Hardware stack levels required when called:    5
  5402 ;; This function calls:
  5403 ;;		Nothing
  5404 ;; This function is called by:
  5405 ;;		_SYSTEM_Initialize
  5406 ;; This function uses a non-reentrant model
  5407 ;;
  5408                           
  5409                           	psect	text9
  5410  013270                     __ptext9:
  5411                           	opt stack 0
  5412  013270                     _PMD_Initialize:
  5413                           	opt stack 23
  5414                           
  5415                           ;mcc.c: 51: PMD0 = 0x00;
  5416                           
  5417                           ;incstack = 0
  5418  013270  0E00               	movlw	0
  5419  013272  0139               	movlb	57	; () banked
  5420  013274  6FC0               	movwf	192,b	;volatile
  5421                           
  5422                           ;mcc.c: 53: PMD1 = 0x00;
  5423  013276  0E00               	movlw	0
  5424  013278  6FC1               	movwf	193,b	;volatile
  5425                           
  5426                           ;mcc.c: 55: PMD2 = 0x00;
  5427  01327A  0E00               	movlw	0
  5428  01327C  6FC2               	movwf	194,b	;volatile
  5429                           
  5430                           ;mcc.c: 57: PMD3 = 0x00;
  5431  01327E  0E00               	movlw	0
  5432  013280  6FC3               	movwf	195,b	;volatile
  5433                           
  5434                           ;mcc.c: 59: PMD4 = 0x00;
  5435  013282  0E00               	movlw	0
  5436  013284  6FC4               	movwf	196,b	;volatile
  5437                           
  5438                           ;mcc.c: 61: PMD5 = 0x00;
  5439  013286  0E00               	movlw	0
  5440  013288  6FC5               	movwf	197,b	;volatile
  5441                           
  5442                           ;mcc.c: 63: PMD6 = 0x00;
  5443  01328A  0E00               	movlw	0
  5444  01328C  6FC6               	movwf	198,b	;volatile
  5445                           
  5446                           ;mcc.c: 65: PMD7 = 0x00;
  5447  01328E  0E00               	movlw	0
  5448  013290  6FC7               	movwf	199,b	;volatile
  5449                           
  5450                           ; BSR set to: 57
  5451  013292  0012               	return		;funcret
  5452  013294                     __end_of_PMD_Initialize:
  5453                           	opt stack 0
  5454                           
  5455 ;; *************** function _PIN_MANAGER_Initialize *****************
  5456 ;; Defined at:
  5457 ;;		line 68 in file "mcc.c"
  5458 ;; Parameters:    Size  Location     Type
  5459 ;;		None
  5460 ;; Auto vars:     Size  Location     Type
  5461 ;;		None
  5462 ;; Return value:  Size  Location     Type
  5463 ;;                  1    wreg      void 
  5464 ;; Registers used:
  5465 ;;		wreg, status,2
  5466 ;; Tracked objects:
  5467 ;;		On entry : 0/0
  5468 ;;		On exit  : 0/0
  5469 ;;		Unchanged: 0/0
  5470 ;; Data sizes:     COMRAM   BANK0   BANK1   BANK2   BANK3   BANK4   BANK5   BANK6   BANK7   BANK8   BANK9  BANK10  BANK1
      +1  BANK12  BANK13  BANK14  BANK15  BANK16  BANK17  BANK18  BANK19  BANK20  BANK21  BANK22  BANK23  BANK24  BANK25  BANK2
      +6  BANK27  BANK28  BANK29  BANK30  BANK31
  5471 ;;      Params:         0       0       0       0       0       0       0       0       0       0       0       0       
      +0       0       0       0       0       0       0       0       0       0       0       0       0       0       0       
      +0       0       0       0       0       0
  5472 ;;      Locals:         0       0       0       0       0       0       0       0       0       0       0       0       
      +0       0       0       0       0       0       0       0       0       0       0       0       0       0       0       
      +0       0       0       0       0       0
  5473 ;;      Temps:          0       0       0       0       0       0       0       0       0       0       0       0       
      +0       0       0       0       0       0       0       0       0       0       0       0       0       0       0       
      +0       0       0       0       0       0
  5474 ;;      Totals:         0       0       0       0       0       0       0       0       0       0       0       0       
      +0       0       0       0       0       0       0       0       0       0       0       0       0       0       0       
      +0       0       0       0       0       0
  5475 ;;Total ram usage:        0 bytes
  5476 ;; Hardware stack levels used:    1
  5477 ;; Hardware stack levels required when called:    5
  5478 ;; This function calls:
  5479 ;;		Nothing
  5480 ;; This function is called by:
  5481 ;;		_SYSTEM_Initialize
  5482 ;; This function uses a non-reentrant model
  5483 ;;
  5484                           
  5485                           	psect	text10
  5486  013160                     __ptext10:
  5487                           	opt stack 0
  5488  013160                     _PIN_MANAGER_Initialize:
  5489                           	opt stack 23
  5490                           
  5491                           ;mcc.c: 71: LATE = 0x00;
  5492                           
  5493                           ; BSR set to: 57
  5494                           ;incstack = 0
  5495  013160  0E00               	movlw	0
  5496  013162  013F               	movlb	63	; () banked
  5497  013164  6FBE               	movwf	190,b	;volatile
  5498                           
  5499                           ;mcc.c: 72: LATD = 0x00;
  5500  013166  0E00               	movlw	0
  5501  013168  6FBD               	movwf	189,b	;volatile
  5502                           
  5503                           ;mcc.c: 73: LATA = 0x00;
  5504  01316A  0E00               	movlw	0
  5505  01316C  6FBA               	movwf	186,b	;volatile
  5506                           
  5507                           ;mcc.c: 74: LATB = 0x00;
  5508  01316E  0E00               	movlw	0
  5509  013170  6FBB               	movwf	187,b	;volatile
  5510                           
  5511                           ;mcc.c: 75: LATC = 0x00;
  5512  013172  0E00               	movlw	0
  5513  013174  6FBC               	movwf	188,b	;volatile
  5514                           
  5515                           ;mcc.c: 81: ANSELD = 0x00;
  5516  013176  0E00               	movlw	0
  5517  013178  013A               	movlb	58	; () banked
  5518  01317A  6F70               	movwf	112,b	;volatile
  5519                           
  5520                           ;mcc.c: 84: WPUD = 0x00;
  5521  01317C  0E00               	movlw	0
  5522  01317E  6F71               	movwf	113,b	;volatile
  5523                           
  5524                           ;mcc.c: 85: WPUA = 0x00;
  5525  013180  0E00               	movlw	0
  5526  013182  6F41               	movwf	65,b	;volatile
  5527                           
  5528                           ;mcc.c: 88: ODCONA = 0x00;
  5529  013184  0E00               	movlw	0
  5530  013186  6F42               	movwf	66,b	;volatile
  5531                           
  5532                           ;mcc.c: 89: ODCOND = 0x00;
  5533  013188  0E00               	movlw	0
  5534  01318A  6F72               	movwf	114,b	;volatile
  5535                           
  5536                           ; BSR set to: 58
  5537                           ;mcc.c: 92: PIE0bits.IOCIE = 1;
  5538  01318C  0139               	movlb	57	; () banked
  5539  01318E  8F90               	bsf	144,7,b	;volatile
  5540                           
  5541                           ; BSR set to: 57
  5542  013190  0012               	return		;funcret
  5543  013192                     __end_of_PIN_MANAGER_Initialize:
  5544                           	opt stack 0
  5545                           
  5546 ;; *************** function _OSCILLATOR_Initialize *****************
  5547 ;; Defined at:
  5548 ;;		line 34 in file "mcc.c"
  5549 ;; Parameters:    Size  Location     Type
  5550 ;;		None
  5551 ;; Auto vars:     Size  Location     Type
  5552 ;;		None
  5553 ;; Return value:  Size  Location     Type
  5554 ;;                  1    wreg      void 
  5555 ;; Registers used:
  5556 ;;		wreg, status,2
  5557 ;; Tracked objects:
  5558 ;;		On entry : 0/0
  5559 ;;		On exit  : 0/0
  5560 ;;		Unchanged: 0/0
  5561 ;; Data sizes:     COMRAM   BANK0   BANK1   BANK2   BANK3   BANK4   BANK5   BANK6   BANK7   BANK8   BANK9  BANK10  BANK1
      +1  BANK12  BANK13  BANK14  BANK15  BANK16  BANK17  BANK18  BANK19  BANK20  BANK21  BANK22  BANK23  BANK24  BANK25  BANK2
      +6  BANK27  BANK28  BANK29  BANK30  BANK31
  5562 ;;      Params:         0       0       0       0       0       0       0       0       0       0       0       0       
      +0       0       0       0       0       0       0       0       0       0       0       0       0       0       0       
      +0       0       0       0       0       0
  5563 ;;      Locals:         0       0       0       0       0       0       0       0       0       0       0       0       
      +0       0       0       0       0       0       0       0       0       0       0       0       0       0       0       
      +0       0       0       0       0       0
  5564 ;;      Temps:          0       0       0       0       0       0       0       0       0       0       0       0       
      +0       0       0       0       0       0       0       0       0       0       0       0       0       0       0       
      +0       0       0       0       0       0
  5565 ;;      Totals:         0       0       0       0       0       0       0       0       0       0       0       0       
      +0       0       0       0       0       0       0       0       0       0       0       0       0       0       0       
      +0       0       0       0       0       0
  5566 ;;Total ram usage:        0 bytes
  5567 ;; Hardware stack levels used:    1
  5568 ;; Hardware stack levels required when called:    5
  5569 ;; This function calls:
  5570 ;;		Nothing
  5571 ;; This function is called by:
  5572 ;;		_SYSTEM_Initialize
  5573 ;; This function uses a non-reentrant model
  5574 ;;
  5575                           
  5576                           	psect	text11
  5577  0133E6                     __ptext11:
  5578                           	opt stack 0
  5579  0133E6                     _OSCILLATOR_Initialize:
  5580                           	opt stack 23
  5581                           
  5582                           ;mcc.c: 37: OSCCON1 = 0x60;
  5583                           
  5584                           ; BSR set to: 57
  5585                           ;incstack = 0
  5586  0133E6  0E60               	movlw	96
  5587  0133E8  0139               	movlb	57	; () banked
  5588  0133EA  6FD9               	movwf	217,b	;volatile
  5589                           
  5590                           ;mcc.c: 39: OSCCON3 = 0x00;
  5591  0133EC  0E00               	movlw	0
  5592  0133EE  6FDB               	movwf	219,b	;volatile
  5593                           
  5594                           ;mcc.c: 41: OSCEN = 0x00;
  5595  0133F0  0E00               	movlw	0
  5596  0133F2  6FDD               	movwf	221,b	;volatile
  5597                           
  5598                           ;mcc.c: 43: OSCFRQ = 0x03;
  5599  0133F4  0E03               	movlw	3
  5600  0133F6  6FDF               	movwf	223,b	;volatile
  5601                           
  5602                           ;mcc.c: 45: OSCTUNE = 0x00;
  5603  0133F8  0E00               	movlw	0
  5604  0133FA  6FDE               	movwf	222,b	;volatile
  5605                           
  5606                           ; BSR set to: 57
  5607  0133FC  0012               	return		;funcret
  5608  0133FE                     __end_of_OSCILLATOR_Initialize:
  5609                           	opt stack 0
  5610                           
  5611 ;; *************** function _INTERRUPT_Initialize *****************
  5612 ;; Defined at:
  5613 ;;		line 17 in file "mcc.c"
  5614 ;; Parameters:    Size  Location     Type
  5615 ;;		None
  5616 ;; Auto vars:     Size  Location     Type
  5617 ;;		None
  5618 ;; Return value:  Size  Location     Type
  5619 ;;                  1    wreg      void 
  5620 ;; Registers used:
  5621 ;;		None
  5622 ;; Tracked objects:
  5623 ;;		On entry : 0/0
  5624 ;;		On exit  : 0/0
  5625 ;;		Unchanged: 0/0
  5626 ;; Data sizes:     COMRAM   BANK0   BANK1   BANK2   BANK3   BANK4   BANK5   BANK6   BANK7   BANK8   BANK9  BANK10  BANK1
      +1  BANK12  BANK13  BANK14  BANK15  BANK16  BANK17  BANK18  BANK19  BANK20  BANK21  BANK22  BANK23  BANK24  BANK25  BANK2
      +6  BANK27  BANK28  BANK29  BANK30  BANK31
  5627 ;;      Params:         0       0       0       0       0       0       0       0       0       0       0       0       
      +0       0       0       0       0       0       0       0       0       0       0       0       0       0       0       
      +0       0       0       0       0       0
  5628 ;;      Locals:         0       0       0       0       0       0       0       0       0       0       0       0       
      +0       0       0       0       0       0       0       0       0       0       0       0       0       0       0       
      +0       0       0       0       0       0
  5629 ;;      Temps:          0       0       0       0       0       0       0       0       0       0       0       0       
      +0       0       0       0       0       0       0       0       0       0       0       0       0       0       0       
      +0       0       0       0       0       0
  5630 ;;      Totals:         0       0       0       0       0       0       0       0       0       0       0       0       
      +0       0       0       0       0       0       0       0       0       0       0       0       0       0       0       
      +0       0       0       0       0       0
  5631 ;;Total ram usage:        0 bytes
  5632 ;; Hardware stack levels used:    1
  5633 ;; Hardware stack levels required when called:    5
  5634 ;; This function calls:
  5635 ;;		Nothing
  5636 ;; This function is called by:
  5637 ;;		_SYSTEM_Initialize
  5638 ;; This function uses a non-reentrant model
  5639 ;;
  5640                           
  5641                           	psect	text12
  5642  01348C                     __ptext12:
  5643                           	opt stack 0
  5644  01348C                     _INTERRUPT_Initialize:
  5645                           	opt stack 23
  5646                           
  5647                           ;mcc.c: 28: (INTCON0bits.GIE = 1);
  5648                           
  5649                           ; BSR set to: 57
  5650                           ;incstack = 0
  5651  01348C  013F               	movlb	63	; () banked
  5652  01348E  8FD2               	bsf	210,7,b	;volatile
  5653                           
  5654                           ;mcc.c: 29: (INTCON0bits.GIEL = 1);
  5655  013490  8DD2               	bsf	210,6,b	;volatile
  5656                           
  5657                           ;mcc.c: 30: (INTCON0bits.GIEH = 1);
  5658  013492  8FD2               	bsf	210,7,b	;volatile
  5659                           
  5660                           ;mcc.c: 31: (INTCON0bits.IPEN = 1);
  5661  013494  8BD2               	bsf	210,5,b	;volatile
  5662                           
  5663                           ; BSR set to: 63
  5664  013496  0012               	return		;funcret
  5665  013498                     __end_of_INTERRUPT_Initialize:
  5666                           	opt stack 0
  5667                           
  5668 ;; *************** function _CONFIGURATION_Initialize *****************
  5669 ;; Defined at:
  5670 ;;		line 101 in file "mcc.c"
  5671 ;; Parameters:    Size  Location     Type
  5672 ;;		None
  5673 ;; Auto vars:     Size  Location     Type
  5674 ;;		None
  5675 ;; Return value:  Size  Location     Type
  5676 ;;                  1    wreg      void 
  5677 ;; Registers used:
  5678 ;;		None
  5679 ;; Tracked objects:
  5680 ;;		On entry : 0/0
  5681 ;;		On exit  : 0/0
  5682 ;;		Unchanged: 0/0
  5683 ;; Data sizes:     COMRAM   BANK0   BANK1   BANK2   BANK3   BANK4   BANK5   BANK6   BANK7   BANK8   BANK9  BANK10  BANK1
      +1  BANK12  BANK13  BANK14  BANK15  BANK16  BANK17  BANK18  BANK19  BANK20  BANK21  BANK22  BANK23  BANK24  BANK25  BANK2
      +6  BANK27  BANK28  BANK29  BANK30  BANK31
  5684 ;;      Params:         0       0       0       0       0       0       0       0       0       0       0       0       
      +0       0       0       0       0       0       0       0       0       0       0       0       0       0       0       
      +0       0       0       0       0       0
  5685 ;;      Locals:         0       0       0       0       0       0       0       0       0       0       0       0       
      +0       0       0       0       0       0       0       0       0       0       0       0       0       0       0       
      +0       0       0       0       0       0
  5686 ;;      Temps:          0       0       0       0       0       0       0       0       0       0       0       0       
      +0       0       0       0       0       0       0       0       0       0       0       0       0       0       0       
      +0       0       0       0       0       0
  5687 ;;      Totals:         0       0       0       0       0       0       0       0       0       0       0       0       
      +0       0       0       0       0       0       0       0       0       0       0       0       0       0       0       
      +0       0       0       0       0       0
  5688 ;;Total ram usage:        0 bytes
  5689 ;; Hardware stack levels used:    1
  5690 ;; Hardware stack levels required when called:    5
  5691 ;; This function calls:
  5692 ;;		Nothing
  5693 ;; This function is called by:
  5694 ;;		_SYSTEM_Initialize
  5695 ;; This function uses a non-reentrant model
  5696 ;;
  5697                           
  5698                           	psect	text13
  5699  0134D8                     __ptext13:
  5700                           	opt stack 0
  5701  0134D8                     _CONFIGURATION_Initialize:
  5702                           	opt stack 23
  5703                           
  5704                           ; BSR set to: 63
  5705                           ;incstack = 0
  5706  0134D8  0012               	return		;funcret
  5707  0134DA                     __end_of_CONFIGURATION_Initialize:
  5708                           	opt stack 0
  5709                           
  5710 ;; *************** function _ADC_MANAGER_Initialize *****************
  5711 ;; Defined at:
  5712 ;;		line 96 in file "mcc.c"
  5713 ;; Parameters:    Size  Location     Type
  5714 ;;		None
  5715 ;; Auto vars:     Size  Location     Type
  5716 ;;		None
  5717 ;; Return value:  Size  Location     Type
  5718 ;;                  1    wreg      void 
  5719 ;; Registers used:
  5720 ;;		None
  5721 ;; Tracked objects:
  5722 ;;		On entry : 0/0
  5723 ;;		On exit  : 0/0
  5724 ;;		Unchanged: 0/0
  5725 ;; Data sizes:     COMRAM   BANK0   BANK1   BANK2   BANK3   BANK4   BANK5   BANK6   BANK7   BANK8   BANK9  BANK10  BANK1
      +1  BANK12  BANK13  BANK14  BANK15  BANK16  BANK17  BANK18  BANK19  BANK20  BANK21  BANK22  BANK23  BANK24  BANK25  BANK2
      +6  BANK27  BANK28  BANK29  BANK30  BANK31
  5726 ;;      Params:         0       0       0       0       0       0       0       0       0       0       0       0       
      +0       0       0       0       0       0       0       0       0       0       0       0       0       0       0       
      +0       0       0       0       0       0
  5727 ;;      Locals:         0       0       0       0       0       0       0       0       0       0       0       0       
      +0       0       0       0       0       0       0       0       0       0       0       0       0       0       0       
      +0       0       0       0       0       0
  5728 ;;      Temps:          0       0       0       0       0       0       0       0       0       0       0       0       
      +0       0       0       0       0       0       0       0       0       0       0       0       0       0       0       
      +0       0       0       0       0       0
  5729 ;;      Totals:         0       0       0       0       0       0       0       0       0       0       0       0       
      +0       0       0       0       0       0       0       0       0       0       0       0       0       0       0       
      +0       0       0       0       0       0
  5730 ;;Total ram usage:        0 bytes
  5731 ;; Hardware stack levels used:    1
  5732 ;; Hardware stack levels required when called:    5
  5733 ;; This function calls:
  5734 ;;		Nothing
  5735 ;; This function is called by:
  5736 ;;		_SYSTEM_Initialize
  5737 ;; This function uses a non-reentrant model
  5738 ;;
  5739                           
  5740                           	psect	text14
  5741  0134DA                     __ptext14:
  5742                           	opt stack 0
  5743  0134DA                     _ADC_MANAGER_Initialize:
  5744                           	opt stack 23
  5745                           
  5746                           ;incstack = 0
  5747  0134DA  0012               	return		;funcret
  5748  0134DC                     __end_of_ADC_MANAGER_Initialize:
  5749                           	opt stack 0
  5750                           
  5751 ;; *************** function _LCD_Initialize *****************
  5752 ;; Defined at:
  5753 ;;		line 10 in file "lcd.c"
  5754 ;; Parameters:    Size  Location     Type
  5755 ;;		None
  5756 ;; Auto vars:     Size  Location     Type
  5757 ;;		None
  5758 ;; Return value:  Size  Location     Type
  5759 ;;                  1    wreg      void 
  5760 ;; Registers used:
  5761 ;;		wreg, status,2, status,0, cstack
  5762 ;; Tracked objects:
  5763 ;;		On entry : 0/0
  5764 ;;		On exit  : 0/0
  5765 ;;		Unchanged: 0/0
  5766 ;; Data sizes:     COMRAM   BANK0   BANK1   BANK2   BANK3   BANK4   BANK5   BANK6   BANK7   BANK8   BANK9  BANK10  BANK1
      +1  BANK12  BANK13  BANK14  BANK15  BANK16  BANK17  BANK18  BANK19  BANK20  BANK21  BANK22  BANK23  BANK24  BANK25  BANK2
      +6  BANK27  BANK28  BANK29  BANK30  BANK31
  5767 ;;      Params:         0       0       0       0       0       0       0       0       0       0       0       0       
      +0       0       0       0       0       0       0       0       0       0       0       0       0       0       0       
      +0       0       0       0       0       0
  5768 ;;      Locals:         0       0       0       0       0       0       0       0       0       0       0       0       
      +0       0       0       0       0       0       0       0       0       0       0       0       0       0       0       
      +0       0       0       0       0       0
  5769 ;;      Temps:          1       0       0       0       0       0       0       0       0       0       0       0       
      +0       0       0       0       0       0       0       0       0       0       0       0       0       0       0       
      +0       0       0       0       0       0
  5770 ;;      Totals:         1       0       0       0       0       0       0       0       0       0       0       0       
      +0       0       0       0       0       0       0       0       0       0       0       0       0       0       0       
      +0       0       0       0       0       0
  5771 ;;Total ram usage:        1 bytes
  5772 ;; Hardware stack levels used:    1
  5773 ;; Hardware stack levels required when called:    6
  5774 ;; This function calls:
  5775 ;;		_LCD_Clear
  5776 ;;		_LCD_Cmd
  5777 ;; This function is called by:
  5778 ;;		_setup
  5779 ;; This function uses a non-reentrant model
  5780 ;;
  5781                           
  5782                           	psect	text15
  5783  012C00                     __ptext15:
  5784                           	opt stack 0
  5785  012C00                     _LCD_Initialize:
  5786                           	opt stack 23
  5787                           
  5788                           ;lcd.c: 12: TRISD = 0x00;
  5789                           
  5790                           ;incstack = 0
  5791  012C00  0E00               	movlw	0
  5792  012C02  013F               	movlb	63	; () banked
  5793  012C04  6FC5               	movwf	197,b	;volatile
  5794                           
  5795                           ;lcd.c: 13: TRISC = 0x00;
  5796  012C06  0E00               	movlw	0
  5797  012C08  6FC4               	movwf	196,b	;volatile
  5798                           
  5799                           ; BSR set to: 63
  5800                           ;lcd.c: 14: LATCbits.LATC6 = 0;
  5801  012C0A  9DBC               	bcf	188,6,b	;volatile
  5802                           
  5803                           ; BSR set to: 63
  5804                           ;lcd.c: 17: _delay((unsigned long)((40)*(8000000/4000.0)));
  5805  012C0C  0E68               	movlw	104
  5806  012C0E  6E2F               	movwf	??_LCD_Initialize& (0+255),c
  5807  012C10  0EE4               	movlw	228
  5808  012C12                     u9547:
  5809  012C12  2EE8               	decfsz	16360,f,c
  5810  012C14  D7FE               	bra	u9547
  5811  012C16  2E2F               	decfsz	??_LCD_Initialize& (0+255),f,c
  5812  012C18  D7FC               	bra	u9547
  5813  012C1A  D000               	nop2	
  5814                           
  5815                           ;lcd.c: 19: LCD_Cmd(0b00110000);
  5816  012C1C  0E30               	movlw	48
  5817  012C1E  ECBD  F099         	call	_LCD_Cmd
  5818                           
  5819                           ;lcd.c: 20: _delay((unsigned long)((20)*(8000000/4000.0)));
  5820  012C22  0E34               	movlw	52
  5821  012C24  6E2F               	movwf	??_LCD_Initialize& (0+255),c
  5822  012C26  0EF2               	movlw	242
  5823  012C28                     u9557:
  5824  012C28  2EE8               	decfsz	16360,f,c
  5825  012C2A  D7FE               	bra	u9557
  5826  012C2C  2E2F               	decfsz	??_LCD_Initialize& (0+255),f,c
  5827  012C2E  D7FC               	bra	u9557
  5828                           
  5829                           ;lcd.c: 21: LCD_Cmd(0b00110000);
  5830  012C30  0E30               	movlw	48
  5831  012C32  ECBD  F099         	call	_LCD_Cmd
  5832                           
  5833                           ;lcd.c: 22: _delay((unsigned long)((2)*(8000000/4000.0)));
  5834  012C36  0E06               	movlw	6
  5835  012C38  6E2F               	movwf	??_LCD_Initialize& (0+255),c
  5836  012C3A  0E30               	movlw	48
  5837  012C3C                     u9567:
  5838  012C3C  2EE8               	decfsz	16360,f,c
  5839  012C3E  D7FE               	bra	u9567
  5840  012C40  2E2F               	decfsz	??_LCD_Initialize& (0+255),f,c
  5841  012C42  D7FC               	bra	u9567
  5842  012C44  D000               	nop2	
  5843                           
  5844                           ;lcd.c: 23: LCD_Cmd(0b00110000);
  5845  012C46  0E30               	movlw	48
  5846  012C48  ECBD  F099         	call	_LCD_Cmd
  5847                           
  5848                           ;lcd.c: 24: _delay((unsigned long)((40)*(8000000/4000.0)));
  5849  012C4C  0E68               	movlw	104
  5850  012C4E  6E2F               	movwf	??_LCD_Initialize& (0+255),c
  5851  012C50  0EE4               	movlw	228
  5852  012C52                     u9577:
  5853  012C52  2EE8               	decfsz	16360,f,c
  5854  012C54  D7FE               	bra	u9577
  5855  012C56  2E2F               	decfsz	??_LCD_Initialize& (0+255),f,c
  5856  012C58  D7FC               	bra	u9577
  5857  012C5A  D000               	nop2	
  5858                           
  5859                           ;lcd.c: 27: LCD_Cmd(0b00111000);
  5860  012C5C  0E38               	movlw	56
  5861  012C5E  ECBD  F099         	call	_LCD_Cmd
  5862                           
  5863                           ;lcd.c: 29: LCD_Cmd(0b00001000);
  5864  012C62  0E08               	movlw	8
  5865  012C64  ECBD  F099         	call	_LCD_Cmd
  5866                           
  5867                           ;lcd.c: 31: LCD_Cmd(0b00000001);
  5868  012C68  0E01               	movlw	1
  5869  012C6A  ECBD  F099         	call	_LCD_Cmd
  5870                           
  5871                           ;lcd.c: 33: LCD_Cmd(0b00000110);
  5872  012C6E  0E06               	movlw	6
  5873  012C70  ECBD  F099         	call	_LCD_Cmd
  5874                           
  5875                           ;lcd.c: 35: LCD_Cmd(0b00001110);
  5876  012C74  0E0E               	movlw	14
  5877  012C76  ECBD  F099         	call	_LCD_Cmd
  5878                           
  5879                           ;lcd.c: 37: LCD_Cmd(0b00000010);
  5880  012C7A  0E02               	movlw	2
  5881  012C7C  ECBD  F099         	call	_LCD_Cmd
  5882                           
  5883                           ;lcd.c: 39: LCD_Clear();
  5884  012C80  EC8E  F099         	call	_LCD_Clear	;wreg free
  5885  012C84  0012               	return		;funcret
  5886  012C86                     __end_of_LCD_Initialize:
  5887                           	opt stack 0
  5888                           
  5889 ;; *************** function _KEYPAD_Initialize *****************
  5890 ;; Defined at:
  5891 ;;		line 22 in file "keypad.c"
  5892 ;; Parameters:    Size  Location     Type
  5893 ;;		None
  5894 ;; Auto vars:     Size  Location     Type
  5895 ;;		None
  5896 ;; Return value:  Size  Location     Type
  5897 ;;                  1    wreg      void 
  5898 ;; Registers used:
  5899 ;;		None
  5900 ;; Tracked objects:
  5901 ;;		On entry : 0/0
  5902 ;;		On exit  : 0/0
  5903 ;;		Unchanged: 0/0
  5904 ;; Data sizes:     COMRAM   BANK0   BANK1   BANK2   BANK3   BANK4   BANK5   BANK6   BANK7   BANK8   BANK9  BANK10  BANK1
      +1  BANK12  BANK13  BANK14  BANK15  BANK16  BANK17  BANK18  BANK19  BANK20  BANK21  BANK22  BANK23  BANK24  BANK25  BANK2
      +6  BANK27  BANK28  BANK29  BANK30  BANK31
  5905 ;;      Params:         0       0       0       0       0       0       0       0       0       0       0       0       
      +0       0       0       0       0       0       0       0       0       0       0       0       0       0       0       
      +0       0       0       0       0       0
  5906 ;;      Locals:         0       0       0       0       0       0       0       0       0       0       0       0       
      +0       0       0       0       0       0       0       0       0       0       0       0       0       0       0       
      +0       0       0       0       0       0
  5907 ;;      Temps:          0       0       0       0       0       0       0       0       0       0       0       0       
      +0       0       0       0       0       0       0       0       0       0       0       0       0       0       0       
      +0       0       0       0       0       0
  5908 ;;      Totals:         0       0       0       0       0       0       0       0       0       0       0       0       
      +0       0       0       0       0       0       0       0       0       0       0       0       0       0       0       
      +0       0       0       0       0       0
  5909 ;;Total ram usage:        0 bytes
  5910 ;; Hardware stack levels used:    1
  5911 ;; Hardware stack levels required when called:    5
  5912 ;; This function calls:
  5913 ;;		Nothing
  5914 ;; This function is called by:
  5915 ;;		_setup
  5916 ;; This function uses a non-reentrant model
  5917 ;;
  5918                           
  5919                           	psect	text16
  5920  01335C                     __ptext16:
  5921                           	opt stack 0
  5922  01335C                     _KEYPAD_Initialize:
  5923                           	opt stack 24
  5924                           
  5925                           ;keypad.c: 26: TRISBbits.TRISB0 = 0;
  5926                           
  5927                           ;incstack = 0
  5928  01335C  013F               	movlb	63	; () banked
  5929  01335E  91C3               	bcf	195,0,b	;volatile
  5930                           
  5931                           ;keypad.c: 27: TRISBbits.TRISB1 = 0;
  5932  013360  93C3               	bcf	195,1,b	;volatile
  5933                           
  5934                           ;keypad.c: 28: TRISBbits.TRISB2 = 0;
  5935  013362  95C3               	bcf	195,2,b	;volatile
  5936                           
  5937                           ;keypad.c: 29: TRISBbits.TRISB3 = 0;
  5938  013364  97C3               	bcf	195,3,b	;volatile
  5939                           
  5940                           ;keypad.c: 31: TRISBbits.TRISB4 = 1;
  5941  013366  89C3               	bsf	195,4,b	;volatile
  5942                           
  5943                           ;keypad.c: 32: TRISBbits.TRISB5 = 1;
  5944  013368  8BC3               	bsf	195,5,b	;volatile
  5945                           
  5946                           ;keypad.c: 33: TRISBbits.TRISB6 = 1;
  5947  01336A  8DC3               	bsf	195,6,b	;volatile
  5948                           
  5949                           ;keypad.c: 34: TRISBbits.TRISB7 = 1;
  5950  01336C  8FC3               	bsf	195,7,b	;volatile
  5951                           
  5952                           ;keypad.c: 36: ANSELBbits.ANSELB4 = 0;
  5953  01336E  013A               	movlb	58	; () banked
  5954  013370  9950               	bcf	80,4,b	;volatile
  5955                           
  5956                           ;keypad.c: 37: ANSELBbits.ANSELB5 = 0;
  5957  013372  9B50               	bcf	80,5,b	;volatile
  5958                           
  5959                           ;keypad.c: 38: ANSELBbits.ANSELB6 = 0;
  5960  013374  9D50               	bcf	80,6,b	;volatile
  5961                           
  5962                           ;keypad.c: 39: ANSELBbits.ANSELB7 = 0;
  5963  013376  9F50               	bcf	80,7,b	;volatile
  5964                           
  5965                           ; BSR set to: 58
  5966  013378  0012               	return		;funcret
  5967  01337A                     __end_of_KEYPAD_Initialize:
  5968                           	opt stack 0
  5969                           
  5970 ;; *************** function _COUNTDOWN_Initialize *****************
  5971 ;; Defined at:
  5972 ;;		line 12 in file "countdown.c"
  5973 ;; Parameters:    Size  Location     Type
  5974 ;;		None
  5975 ;; Auto vars:     Size  Location     Type
  5976 ;;		None
  5977 ;; Return value:  Size  Location     Type
  5978 ;;                  1    wreg      void 
  5979 ;; Registers used:
  5980 ;;		wreg, status,2
  5981 ;; Tracked objects:
  5982 ;;		On entry : 0/0
  5983 ;;		On exit  : 0/0
  5984 ;;		Unchanged: 0/0
  5985 ;; Data sizes:     COMRAM   BANK0   BANK1   BANK2   BANK3   BANK4   BANK5   BANK6   BANK7   BANK8   BANK9  BANK10  BANK1
      +1  BANK12  BANK13  BANK14  BANK15  BANK16  BANK17  BANK18  BANK19  BANK20  BANK21  BANK22  BANK23  BANK24  BANK25  BANK2
      +6  BANK27  BANK28  BANK29  BANK30  BANK31
  5986 ;;      Params:         0       0       0       0       0       0       0       0       0       0       0       0       
      +0       0       0       0       0       0       0       0       0       0       0       0       0       0       0       
      +0       0       0       0       0       0
  5987 ;;      Locals:         0       0       0       0       0       0       0       0       0       0       0       0       
      +0       0       0       0       0       0       0       0       0       0       0       0       0       0       0       
      +0       0       0       0       0       0
  5988 ;;      Temps:          0       0       0       0       0       0       0       0       0       0       0       0       
      +0       0       0       0       0       0       0       0       0       0       0       0       0       0       0       
      +0       0       0       0       0       0
  5989 ;;      Totals:         0       0       0       0       0       0       0       0       0       0       0       0       
      +0       0       0       0       0       0       0       0       0       0       0       0       0       0       0       
      +0       0       0       0       0       0
  5990 ;;Total ram usage:        0 bytes
  5991 ;; Hardware stack levels used:    1
  5992 ;; Hardware stack levels required when called:    5
  5993 ;; This function calls:
  5994 ;;		Nothing
  5995 ;; This function is called by:
  5996 ;;		_setup
  5997 ;; This function uses a non-reentrant model
  5998 ;;
  5999                           
  6000                           	psect	text17
  6001  013294                     __ptext17:
  6002                           	opt stack 0
  6003  013294                     _COUNTDOWN_Initialize:
  6004                           	opt stack 24
  6005                           
  6006                           ;countdown.c: 15: PIE3bits.TMR0IE = 1;
  6007                           
  6008                           ; BSR set to: 58
  6009                           ;incstack = 0
  6010  013294  0139               	movlb	57	; () banked
  6011  013296  8F93               	bsf	147,7,b	;volatile
  6012                           
  6013                           ;countdown.c: 16: IPR3bits.TMR0IP = 1;
  6014  013298  8F83               	bsf	131,7,b	;volatile
  6015                           
  6016                           ;countdown.c: 17: PIR3bits.TMR0IF = 0;
  6017  01329A  9FA3               	bcf	163,7,b	;volatile
  6018                           
  6019                           ;countdown.c: 18: T0CON0bits.EN = 0;
  6020  01329C  013F               	movlb	63	; () banked
  6021  01329E  9FB8               	bcf	184,7,b	;volatile
  6022                           
  6023                           ;countdown.c: 19: T0CON0bits.MD16 = 1;
  6024  0132A0  89B8               	bsf	184,4,b	;volatile
  6025                           
  6026                           ; BSR set to: 63
  6027                           ;countdown.c: 20: T0CON1bits.CS = 0b011;
  6028  0132A2  51B9               	movf	185,w,b	;volatile
  6029  0132A4  0B1F               	andlw	-225
  6030  0132A6  0960               	iorlw	96
  6031  0132A8  6FB9               	movwf	185,b	;volatile
  6032                           
  6033                           ; BSR set to: 63
  6034                           ;countdown.c: 21: T0CON1bits.ASYNC = 1;
  6035  0132AA  89B9               	bsf	185,4,b	;volatile
  6036                           
  6037                           ;countdown.c: 22: T0CON1bits.CKPS = 0b0001;
  6038  0132AC  51B9               	movf	185,w,b	;volatile
  6039  0132AE  0BF0               	andlw	-16
  6040  0132B0  0901               	iorlw	1
  6041  0132B2  6FB9               	movwf	185,b	;volatile
  6042                           
  6043                           ; BSR set to: 63
  6044  0132B4  0012               	return		;funcret
  6045  0132B6                     __end_of_COUNTDOWN_Initialize:
  6046                           	opt stack 0
  6047                           
  6048 ;; *************** function _BEEPER_Initialize *****************
  6049 ;; Defined at:
  6050 ;;		line 13 in file "beeper.c"
  6051 ;; Parameters:    Size  Location     Type
  6052 ;;		None
  6053 ;; Auto vars:     Size  Location     Type
  6054 ;;		None
  6055 ;; Return value:  Size  Location     Type
  6056 ;;                  1    wreg      void 
  6057 ;; Registers used:
  6058 ;;		wreg, status,2
  6059 ;; Tracked objects:
  6060 ;;		On entry : 0/0
  6061 ;;		On exit  : 0/0
  6062 ;;		Unchanged: 0/0
  6063 ;; Data sizes:     COMRAM   BANK0   BANK1   BANK2   BANK3   BANK4   BANK5   BANK6   BANK7   BANK8   BANK9  BANK10  BANK1
      +1  BANK12  BANK13  BANK14  BANK15  BANK16  BANK17  BANK18  BANK19  BANK20  BANK21  BANK22  BANK23  BANK24  BANK25  BANK2
      +6  BANK27  BANK28  BANK29  BANK30  BANK31
  6064 ;;      Params:         0       0       0       0       0       0       0       0       0       0       0       0       
      +0       0       0       0       0       0       0       0       0       0       0       0       0       0       0       
      +0       0       0       0       0       0
  6065 ;;      Locals:         0       0       0       0       0       0       0       0       0       0       0       0       
      +0       0       0       0       0       0       0       0       0       0       0       0       0       0       0       
      +0       0       0       0       0       0
  6066 ;;      Temps:          0       0       0       0       0       0       0       0       0       0       0       0       
      +0       0       0       0       0       0       0       0       0       0       0       0       0       0       0       
      +0       0       0       0       0       0
  6067 ;;      Totals:         0       0       0       0       0       0       0       0       0       0       0       0       
      +0       0       0       0       0       0       0       0       0       0       0       0       0       0       0       
      +0       0       0       0       0       0
  6068 ;;Total ram usage:        0 bytes
  6069 ;; Hardware stack levels used:    1
  6070 ;; Hardware stack levels required when called:    5
  6071 ;; This function calls:
  6072 ;;		Nothing
  6073 ;; This function is called by:
  6074 ;;		_setup
  6075 ;; This function uses a non-reentrant model
  6076 ;;
  6077                           
  6078                           	psect	text18
  6079  012F32                     __ptext18:
  6080                           	opt stack 0
  6081  012F32                     _BEEPER_Initialize:
  6082                           	opt stack 24
  6083                           
  6084                           ;beeper.c: 15: TRISAbits.TRISA0 = 0;
  6085                           
  6086                           ; BSR set to: 63
  6087                           ;incstack = 0
  6088  012F32  013F               	movlb	63	; () banked
  6089  012F34  91C2               	bcf	194,0,b	;volatile
  6090                           
  6091                           ;beeper.c: 16: TRISAbits.TRISA1 = 0;
  6092  012F36  93C2               	bcf	194,1,b	;volatile
  6093                           
  6094                           ; BSR set to: 63
  6095                           ;beeper.c: 18: RA1PPS = 0b001101;
  6096  012F38  0E0D               	movlw	13
  6097  012F3A  013A               	movlb	58	; () banked
  6098  012F3C  6F01               	movwf	1,b	;volatile
  6099                           
  6100                           ;beeper.c: 25: CCPTMRS1bits.P5TSEL = 0b01;
  6101  012F3E  013F               	movlb	63	; () banked
  6102  012F40  515F               	movf	95,w,b	;volatile
  6103  012F42  0BFC               	andlw	-4
  6104  012F44  0901               	iorlw	1
  6105  012F46  6F5F               	movwf	95,b	;volatile
  6106                           
  6107                           ;beeper.c: 27: PWM5DCH = 0x39;
  6108  012F48  0E39               	movlw	57
  6109  012F4A  6F6D               	movwf	109,b	;volatile
  6110                           
  6111                           ;beeper.c: 28: PWM5DCL = 0x10;
  6112  012F4C  0E10               	movlw	16
  6113  012F4E  6F6C               	movwf	108,b	;volatile
  6114                           
  6115                           ; BSR set to: 63
  6116                           ;beeper.c: 29: PWM5CONbits.EN = 0;
  6117  012F50  9F6E               	bcf	110,7,b	;volatile
  6118                           
  6119                           ;beeper.c: 30: T2CLKbits.CS = 0b0001;
  6120  012F52  51AE               	movf	174,w,b	;volatile
  6121  012F54  0BF0               	andlw	-16
  6122  012F56  0901               	iorlw	1
  6123  012F58  6FAE               	movwf	174,b	;volatile
  6124                           
  6125                           ;beeper.c: 31: T2PR = 0x72;
  6126  012F5A  0E72               	movlw	114
  6127  012F5C  6FAB               	movwf	171,b	;volatile
  6128                           
  6129                           ;beeper.c: 32: T2CONbits.CKPS = 0b010;
  6130  012F5E  51AC               	movf	172,w,b	;volatile
  6131  012F60  0B8F               	andlw	-113
  6132  012F62  0920               	iorlw	32
  6133  012F64  6FAC               	movwf	172,b	;volatile
  6134                           
  6135                           ; BSR set to: 63
  6136                           ;beeper.c: 33: T2CONbits.ON = 1;
  6137  012F66  8FAC               	bsf	172,7,b	;volatile
  6138                           
  6139                           ;beeper.c: 38: T1CON = 0b00110000;
  6140  012F68  0E30               	movlw	48
  6141  012F6A  6FB2               	movwf	178,b	;volatile
  6142                           
  6143                           ;beeper.c: 39: T1CLK = 0b00001;
  6144  012F6C  0E01               	movlw	1
  6145  012F6E  6FB5               	movwf	181,b	;volatile
  6146                           
  6147                           ; BSR set to: 63
  6148                           ;beeper.c: 40: PIE4bits.TMR1IE = 1;
  6149  012F70  0139               	movlb	57	; () banked
  6150  012F72  8194               	bsf	148,0,b	;volatile
  6151                           
  6152                           ; BSR set to: 57
  6153                           ;beeper.c: 41: PIR4bits.TMR1IF = 0;
  6154  012F74  91A4               	bcf	164,0,b	;volatile
  6155                           
  6156                           ; BSR set to: 57
  6157  012F76  0012               	return		;funcret
  6158  012F78                     __end_of_BEEPER_Initialize:
  6159                           	opt stack 0
  6160                           
  6161 ;; *************** function _serialPrint *****************
  6162 ;; Defined at:
  6163 ;;		line 36 in file "UART.c"
  6164 ;; Parameters:    Size  Location     Type
  6165 ;;  string          2   18[COMRAM] PTR unsigned char 
  6166 ;;		 -> strCountdownNowTime(8), 
  6167 ;; Auto vars:     Size  Location     Type
  6168 ;;  i               2   23[COMRAM] int 
  6169 ;;  len             2   21[COMRAM] int 
  6170 ;; Return value:  Size  Location     Type
  6171 ;;                  1    wreg      void 
  6172 ;; Registers used:
  6173 ;;		wreg, fsr2l, fsr2h, status,2, status,0, cstack
  6174 ;; Tracked objects:
  6175 ;;		On entry : 0/0
  6176 ;;		On exit  : 0/0
  6177 ;;		Unchanged: 0/0
  6178 ;; Data sizes:     COMRAM   BANK0   BANK1   BANK2   BANK3   BANK4   BANK5   BANK6   BANK7   BANK8   BANK9  BANK10  BANK1
      +1  BANK12  BANK13  BANK14  BANK15  BANK16  BANK17  BANK18  BANK19  BANK20  BANK21  BANK22  BANK23  BANK24  BANK25  BANK2
      +6  BANK27  BANK28  BANK29  BANK30  BANK31
  6179 ;;      Params:         2       0       0       0       0       0       0       0       0       0       0       0       
      +0       0       0       0       0       0       0       0       0       0       0       0       0       0       0       
      +0       0       0       0       0       0
  6180 ;;      Locals:         4       0       0       0       0       0       0       0       0       0       0       0       
      +0       0       0       0       0       0       0       0       0       0       0       0       0       0       0       
      +0       0       0       0       0       0
  6181 ;;      Temps:          1       0       0       0       0       0       0       0       0       0       0       0       
      +0       0       0       0       0       0       0       0       0       0       0       0       0       0       0       
      +0       0       0       0       0       0
  6182 ;;      Totals:         7       0       0       0       0       0       0       0       0       0       0       0       
      +0       0       0       0       0       0       0       0       0       0       0       0       0       0       0       
      +0       0       0       0       0       0
  6183 ;;Total ram usage:        7 bytes
  6184 ;; Hardware stack levels used:    1
  6185 ;; Hardware stack levels required when called:    6
  6186 ;; This function calls:
  6187 ;;		_serialSend
  6188 ;;		_strlen
  6189 ;; This function is called by:
  6190 ;;		_main
  6191 ;; This function uses a non-reentrant model
  6192 ;;
  6193                           
  6194                           	psect	text19
  6195  012CF8                     __ptext19:
  6196                           	opt stack 0
  6197  012CF8                     _serialPrint:
  6198                           	opt stack 24
  6199                           
  6200                           ;UART.c: 38: int len = strlen(string);
  6201                           
  6202                           ; BSR set to: 57
  6203                           ;incstack = 0
  6204  012CF8  0060  F0D0  F02E   	movff	serialPrint@string,strlen@s
  6205  012CFE  0060  F0D4  F02F   	movff	serialPrint@string+1,strlen@s+1
  6206  012D04  ECBC  F097         	call	_strlen	;wreg free
  6207  012D08  0060  F0B8  F037   	movff	?_strlen,serialPrint@len
  6208  012D0E  0060  F0BC  F038   	movff	?_strlen+1,serialPrint@len+1
  6209                           
  6210                           ;UART.c: 39: for(int i=0; i<=len;i++)
  6211  012D14  0E00               	movlw	0
  6212  012D16  6E3A               	movwf	serialPrint@i+1,c
  6213  012D18  0E00               	movlw	0
  6214  012D1A  6E39               	movwf	serialPrint@i,c
  6215  012D1C  D012               	goto	l1162
  6216  012D1E                     
  6217                           ;UART.c: 40: {;UART.c: 41: serialSend(string[i]);
  6218  012D1E  5039               	movf	serialPrint@i,w,c
  6219  012D20  2434               	addwf	serialPrint@string,w,c
  6220  012D22  6ED9               	movwf	16345,c
  6221  012D24  503A               	movf	serialPrint@i+1,w,c
  6222  012D26  2035               	addwfc	serialPrint@string+1,w,c
  6223  012D28  6EDA               	movwf	16346,c
  6224  012D2A  50DF               	movf	16351,w,c
  6225  012D2C  EC4C  F09A         	call	_serialSend
  6226                           
  6227                           ;UART.c: 42: _delay((unsigned long)((50)*(8000000/4000.0)));
  6228  012D30  0E82               	movlw	130
  6229  012D32  6E36               	movwf	??_serialPrint& (0+255),c
  6230  012D34  0EDE               	movlw	222
  6231  012D36                     u9587:
  6232  012D36  2EE8               	decfsz	16360,f,c
  6233  012D38  D7FE               	bra	u9587
  6234  012D3A  2E36               	decfsz	??_serialPrint& (0+255),f,c
  6235  012D3C  D7FC               	bra	u9587
  6236  012D3E  4A39               	infsnz	serialPrint@i,f,c
  6237  012D40  2A3A               	incf	serialPrint@i+1,f,c
  6238  012D42                     l1162:
  6239  012D42  5039               	movf	serialPrint@i,w,c
  6240  012D44  5C37               	subwf	serialPrint@len,w,c
  6241  012D46  5038               	movf	serialPrint@len+1,w,c
  6242  012D48  0A80               	xorlw	128
  6243  012D4A  6E36               	movwf	??_serialPrint& (0+255),c
  6244  012D4C  503A               	movf	serialPrint@i+1,w,c
  6245  012D4E  0A80               	xorlw	128
  6246  012D50  5836               	subwfb	??_serialPrint& (0+255),w,c
  6247  012D52  B0D8               	btfsc	16344,0,c
  6248  012D54  D7E4               	goto	l1163
  6249                           
  6250                           ;UART.c: 44: };UART.c: 45: U1TXB = 0b00000000;
  6251  012D56  0E00               	movlw	0
  6252  012D58  013D               	movlb	61	; () banked
  6253  012D5A  6FEA               	movwf	234,b	;volatile
  6254                           
  6255                           ; BSR set to: 61
  6256  012D5C  0012               	return		;funcret
  6257  012D5E                     __end_of_serialPrint:
  6258                           	opt stack 0
  6259                           
  6260 ;; *************** function _serialSend *****************
  6261 ;; Defined at:
  6262 ;;		line 31 in file "UART.c"
  6263 ;; Parameters:    Size  Location     Type
  6264 ;;  word            1    wreg     unsigned char 
  6265 ;; Auto vars:     Size  Location     Type
  6266 ;;  word            1   12[COMRAM] unsigned char 
  6267 ;; Return value:  Size  Location     Type
  6268 ;;                  1    wreg      void 
  6269 ;; Registers used:
  6270 ;;		wreg
  6271 ;; Tracked objects:
  6272 ;;		On entry : 0/0
  6273 ;;		On exit  : 0/0
  6274 ;;		Unchanged: 0/0
  6275 ;; Data sizes:     COMRAM   BANK0   BANK1   BANK2   BANK3   BANK4   BANK5   BANK6   BANK7   BANK8   BANK9  BANK10  BANK1
      +1  BANK12  BANK13  BANK14  BANK15  BANK16  BANK17  BANK18  BANK19  BANK20  BANK21  BANK22  BANK23  BANK24  BANK25  BANK2
      +6  BANK27  BANK28  BANK29  BANK30  BANK31
  6276 ;;      Params:         0       0       0       0       0       0       0       0       0       0       0       0       
      +0       0       0       0       0       0       0       0       0       0       0       0       0       0       0       
      +0       0       0       0       0       0
  6277 ;;      Locals:         1       0       0       0       0       0       0       0       0       0       0       0       
      +0       0       0       0       0       0       0       0       0       0       0       0       0       0       0       
      +0       0       0       0       0       0
  6278 ;;      Temps:          0       0       0       0       0       0       0       0       0       0       0       0       
      +0       0       0       0       0       0       0       0       0       0       0       0       0       0       0       
      +0       0       0       0       0       0
  6279 ;;      Totals:         1       0       0       0       0       0       0       0       0       0       0       0       
      +0       0       0       0       0       0       0       0       0       0       0       0       0       0       0       
      +0       0       0       0       0       0
  6280 ;;Total ram usage:        1 bytes
  6281 ;; Hardware stack levels used:    1
  6282 ;; Hardware stack levels required when called:    5
  6283 ;; This function calls:
  6284 ;;		Nothing
  6285 ;; This function is called by:
  6286 ;;		_main
  6287 ;;		_serialPrint
  6288 ;; This function uses a non-reentrant model
  6289 ;;
  6290                           
  6291                           	psect	text20
  6292  013498                     __ptext20:
  6293                           	opt stack 0
  6294  013498                     _serialSend:
  6295                           	opt stack 25
  6296                           
  6297                           ; BSR set to: 61
  6298                           ;incstack = 0
  6299                           ;serialSend@word stored from wreg
  6300  013498  6E2E               	movwf	serialSend@word,c
  6301                           
  6302                           ;UART.c: 33: U1TXB = word;
  6303  01349A  0060  F0BB  FDEA   	movff	serialSend@word,15850	;volatile
  6304  0134A0  0012               	return		;funcret
  6305  0134A2                     __end_of_serialSend:
  6306                           	opt stack 0
  6307                           
  6308 ;; *************** function _resetPasswordEntry *****************
  6309 ;; Defined at:
  6310 ;;		line 43 in file "main.c"
  6311 ;; Parameters:    Size  Location     Type
  6312 ;;		None
  6313 ;; Auto vars:     Size  Location     Type
  6314 ;;  i               2   12[COMRAM] int 
  6315 ;; Return value:  Size  Location     Type
  6316 ;;                  1    wreg      void 
  6317 ;; Registers used:
  6318 ;;		wreg, fsr2l, fsr2h, status,2, status,0
  6319 ;; Tracked objects:
  6320 ;;		On entry : 0/0
  6321 ;;		On exit  : 0/0
  6322 ;;		Unchanged: 0/0
  6323 ;; Data sizes:     COMRAM   BANK0   BANK1   BANK2   BANK3   BANK4   BANK5   BANK6   BANK7   BANK8   BANK9  BANK10  BANK1
      +1  BANK12  BANK13  BANK14  BANK15  BANK16  BANK17  BANK18  BANK19  BANK20  BANK21  BANK22  BANK23  BANK24  BANK25  BANK2
      +6  BANK27  BANK28  BANK29  BANK30  BANK31
  6324 ;;      Params:         0       0       0       0       0       0       0       0       0       0       0       0       
      +0       0       0       0       0       0       0       0       0       0       0       0       0       0       0       
      +0       0       0       0       0       0
  6325 ;;      Locals:         2       0       0       0       0       0       0       0       0       0       0       0       
      +0       0       0       0       0       0       0       0       0       0       0       0       0       0       0       
      +0       0       0       0       0       0
  6326 ;;      Temps:          0       0       0       0       0       0       0       0       0       0       0       0       
      +0       0       0       0       0       0       0       0       0       0       0       0       0       0       0       
      +0       0       0       0       0       0
  6327 ;;      Totals:         2       0       0       0       0       0       0       0       0       0       0       0       
      +0       0       0       0       0       0       0       0       0       0       0       0       0       0       0       
      +0       0       0       0       0       0
  6328 ;;Total ram usage:        2 bytes
  6329 ;; Hardware stack levels used:    1
  6330 ;; Hardware stack levels required when called:    5
  6331 ;; This function calls:
  6332 ;;		Nothing
  6333 ;; This function is called by:
  6334 ;;		_main
  6335 ;; This function uses a non-reentrant model
  6336 ;;
  6337                           
  6338                           	psect	text21
  6339  013192                     __ptext21:
  6340                           	opt stack 0
  6341  013192                     _resetPasswordEntry:
  6342                           	opt stack 25
  6343                           
  6344                           ;main.c: 45: for(int i=0;i<=6;i++)
  6345                           
  6346                           ;incstack = 0
  6347  013192  0E00               	movlw	0
  6348  013194  6E2F               	movwf	resetPasswordEntry@i+1,c
  6349  013196  0E00               	movlw	0
  6350  013198  6E2E               	movwf	resetPasswordEntry@i,c
  6351  01319A                     l6645:
  6352  01319A  BE2F               	btfsc	resetPasswordEntry@i+1,7,c
  6353  01319C  D006               	goto	l736
  6354  01319E  502F               	movf	resetPasswordEntry@i+1,w,c
  6355  0131A0  E10F               	bnz	l738
  6356  0131A2  0E07               	movlw	7
  6357  0131A4  5C2E               	subwf	resetPasswordEntry@i,w,c
  6358  0131A6  B0D8               	btfsc	16344,0,c
  6359  0131A8  0012               	return	
  6360  0131AA                     l736:
  6361                           
  6362                           ;main.c: 46: {;main.c: 47: userPswdEntry[i] = 0;
  6363  0131AA  0E99               	movlw	low _userPswdEntry
  6364  0131AC  242E               	addwf	resetPasswordEntry@i,w,c
  6365  0131AE  6ED9               	movwf	16345,c
  6366  0131B0  0E00               	movlw	high _userPswdEntry
  6367  0131B2  202F               	addwfc	resetPasswordEntry@i+1,w,c
  6368  0131B4  6EDA               	movwf	16346,c
  6369  0131B6  0E00               	movlw	0
  6370  0131B8  6EDF               	movwf	16351,c
  6371  0131BA  4A2E               	infsnz	resetPasswordEntry@i,f,c
  6372  0131BC  2A2F               	incf	resetPasswordEntry@i+1,f,c
  6373  0131BE  D7ED               	goto	l6645
  6374  0131C0                     l738:
  6375  0131C0  0012               	return		;funcret
  6376  0131C2                     __end_of_resetPasswordEntry:
  6377                           	opt stack 0
  6378                           
  6379 ;; *************** function _keypadRead *****************
  6380 ;; Defined at:
  6381 ;;		line 44 in file "keypad.c"
  6382 ;; Parameters:    Size  Location     Type
  6383 ;;		None
  6384 ;; Auto vars:     Size  Location     Type
  6385 ;;  output          2    4[BANK0 ] struct keypadStruct
  6386 ;;  flagPressed     2    2[BANK0 ] unsigned int 
  6387 ;;  keyHoldTime     2    0[BANK0 ] unsigned int 
  6388 ;;  key             1    8[BANK0 ] volatile unsigned char 
  6389 ;;  keyPressed      1    7[BANK0 ] volatile unsigned char 
  6390 ;;  keyHeld         1    6[BANK0 ] volatile unsigned char 
  6391 ;; Return value:  Size  Location     Type
  6392 ;;                  2   15[COMRAM] struct keypadStruct
  6393 ;; Registers used:
  6394 ;;		wreg, status,2, status,0, cstack
  6395 ;; Tracked objects:
  6396 ;;		On entry : 0/0
  6397 ;;		On exit  : 0/0
  6398 ;;		Unchanged: 0/0
  6399 ;; Data sizes:     COMRAM   BANK0   BANK1   BANK2   BANK3   BANK4   BANK5   BANK6   BANK7   BANK8   BANK9  BANK10  BANK1
      +1  BANK12  BANK13  BANK14  BANK15  BANK16  BANK17  BANK18  BANK19  BANK20  BANK21  BANK22  BANK23  BANK24  BANK25  BANK2
      +6  BANK27  BANK28  BANK29  BANK30  BANK31
  6400 ;;      Params:         2       0       0       0       0       0       0       0       0       0       0       0       
      +0       0       0       0       0       0       0       0       0       0       0       0       0       0       0       
      +0       0       0       0       0       0
  6401 ;;      Locals:         0       9       0       0       0       0       0       0       0       0       0       0       
      +0       0       0       0       0       0       0       0       0       0       0       0       0       0       0       
      +0       0       0       0       0       0
  6402 ;;      Temps:          2       0       0       0       0       0       0       0       0       0       0       0       
      +0       0       0       0       0       0       0       0       0       0       0       0       0       0       0       
      +0       0       0       0       0       0
  6403 ;;      Totals:         4       9       0       0       0       0       0       0       0       0       0       0       
      +0       0       0       0       0       0       0       0       0       0       0       0       0       0       0       
      +0       0       0       0       0       0
  6404 ;;Total ram usage:       13 bytes
  6405 ;; Hardware stack levels used:    1
  6406 ;; Hardware stack levels required when called:    6
  6407 ;; This function calls:
  6408 ;;		_keypadScan
  6409 ;;		_normalBeep
  6410 ;;		_normalBlink
  6411 ;;		_quickBeep
  6412 ;;		_quickBlink
  6413 ;; This function is called by:
  6414 ;;		_main
  6415 ;; This function uses a non-reentrant model
  6416 ;;
  6417                           
  6418                           	psect	text22
  6419  0123C0                     __ptext22:
  6420                           	opt stack 0
  6421  0123C0                     _keypadRead:
  6422                           	opt stack 24
  6423                           
  6424                           ;keypad.c: 46: keypadStruct output;;keypad.c: 47: volatile unsigned char keyHeld = 0;
  6425                           
  6426                           ;incstack = 0
  6427  0123C0  0E00               	movlw	0
  6428  0123C2  0100               	movlb	0	; () banked
  6429  0123C4  6F8C               	movwf	keypadRead@keyHeld& (0+255),b	;volatile
  6430                           
  6431                           ;keypad.c: 48: volatile unsigned char keyPressed = 0;
  6432  0123C6  0E00               	movlw	0
  6433  0123C8  6F8D               	movwf	keypadRead@keyPressed& (0+255),b	;volatile
  6434                           
  6435                           ;keypad.c: 49: volatile unsigned char key = 0;
  6436  0123CA  0E00               	movlw	0
  6437  0123CC  6F8E               	movwf	keypadRead@key& (0+255),b	;volatile
  6438                           
  6439                           ;keypad.c: 51: unsigned int flagPressed = 0;
  6440  0123CE  0E00               	movlw	0
  6441  0123D0  6F89               	movwf	(keypadRead@flagPressed+1)& (0+255),b
  6442  0123D2  0E00               	movlw	0
  6443  0123D4  6F88               	movwf	keypadRead@flagPressed& (0+255),b
  6444                           
  6445                           ;keypad.c: 52: unsigned int keyHoldTime = 0;
  6446  0123D6  0E00               	movlw	0
  6447  0123D8  6F87               	movwf	(keypadRead@keyHoldTime+1)& (0+255),b
  6448  0123DA  0E00               	movlw	0
  6449  0123DC  6F86               	movwf	keypadRead@keyHoldTime& (0+255),b
  6450                           
  6451                           ;keypad.c: 54: while(key == NONE)
  6452  0123DE  D024               	goto	l425
  6453  0123E0                     
  6454                           ; BSR set to: 0
  6455                           ;keypad.c: 55: {;keypad.c: 56: key = keypadScan();
  6456                           
  6457                           ; BSR set to: 0
  6458  0123E0  EC87  F092         	call	_keypadScan	;wreg free
  6459  0123E4  502E               	movf	?_keypadScan,w,c
  6460  0123E6  0100               	movlb	0	; () banked
  6461  0123E8  6F8E               	movwf	keypadRead@key& (0+255),b	;volatile
  6462                           
  6463                           ; BSR set to: 0
  6464                           ;keypad.c: 58: if(key != NONE)
  6465  0123EA  518E               	movf	keypadRead@key& (0+255),w,b	;volatile
  6466  0123EC  6E33               	movwf	??_keypadRead& (0+255),c
  6467  0123EE  6A34               	clrf	(??_keypadRead+1)& (0+255),c
  6468  0123F0  503D               	movf	_NONE,w,c
  6469  0123F2  1833               	xorwf	??_keypadRead,w,c
  6470  0123F4  E104               	bnz	u7270
  6471  0123F6  503E               	movf	_NONE+1,w,c
  6472  0123F8  1834               	xorwf	??_keypadRead+1,w,c
  6473  0123FA  B4D8               	btfsc	16344,2,c
  6474  0123FC  D015               	goto	l425
  6475  0123FE                     u7270:
  6476                           
  6477                           ; BSR set to: 0
  6478                           ;keypad.c: 59: {;keypad.c: 60: keyPressed = key;
  6479  0123FE  0060  F238  F08D   	movff	keypadRead@key,keypadRead@keyPressed	;volatile
  6480                           
  6481                           ;keypad.c: 61: flagPressed = TRUE;
  6482  012404  0060  F03C  F088   	movff	_TRUE,keypadRead@flagPressed
  6483  01240A  0060  F040  F089   	movff	_TRUE+1,keypadRead@flagPressed+1
  6484                           
  6485                           ; BSR set to: 0
  6486                           ;keypad.c: 63: if (keyBeeps == ON)
  6487  012410  5011               	movf	_ON,w,c
  6488  012412  1819               	xorwf	_keyBeeps,w,c
  6489  012414  E107               	bnz	l6523
  6490  012416  5012               	movf	_ON+1,w,c
  6491  012418  181A               	xorwf	_keyBeeps+1,w,c
  6492  01241A  A4D8               	btfss	16344,2,c
  6493  01241C  D003               	goto	l424
  6494                           
  6495                           ; BSR set to: 0
  6496                           ;keypad.c: 64: {;keypad.c: 65: normalBeep();
  6497  01241E  EC1D  F09A         	call	_normalBeep	;wreg free
  6498                           
  6499                           ;keypad.c: 66: }
  6500  012422  D002               	goto	l425
  6501  012424                     l424:
  6502  012424                     l6523:
  6503                           
  6504                           ;keypad.c: 68: else;keypad.c: 69: {;keypad.c: 70: normalBlink();
  6505  012424  EC37  F09A         	call	_normalBlink	;wreg free
  6506  012428                     l425:
  6507  012428  0100               	movlb	0	; () banked
  6508  01242A  518E               	movf	keypadRead@key& (0+255),w,b	;volatile
  6509  01242C  6E33               	movwf	??_keypadRead& (0+255),c
  6510  01242E  6A34               	clrf	(??_keypadRead+1)& (0+255),c
  6511  012430  503D               	movf	_NONE,w,c
  6512  012432  1833               	xorwf	??_keypadRead,w,c
  6513  012434  E157               	bnz	l6555
  6514  012436  503E               	movf	_NONE+1,w,c
  6515  012438  1834               	xorwf	??_keypadRead+1,w,c
  6516  01243A  A4D8               	btfss	16344,2,c
  6517  01243C  D053               	goto	l432
  6518  01243E  D7D0               	goto	l422
  6519  012440                     
  6520                           ; BSR set to: 0
  6521                           ;keypad.c: 76: {;keypad.c: 77: _delay((unsigned long)((10)*(8000000/4000.0)));
  6522                           
  6523                           ; BSR set to: 0
  6524  012440  0E1A               	movlw	26
  6525  012442  6E33               	movwf	??_keypadRead& (0+255),c
  6526  012444  0EF8               	movlw	248
  6527  012446                     u9597:
  6528  012446  2EE8               	decfsz	16360,f,c
  6529  012448  D7FE               	bra	u9597
  6530  01244A  2E33               	decfsz	??_keypadRead& (0+255),f,c
  6531  01244C  D7FC               	bra	u9597
  6532  01244E  D000               	nop2	
  6533                           
  6534                           ;keypad.c: 78: keyHoldTime += 10;
  6535  012450  0E0A               	movlw	10
  6536  012452  0100               	movlb	0	; () banked
  6537  012454  2786               	addwf	keypadRead@keyHoldTime& (0+255),f,b
  6538  012456  0E00               	movlw	0
  6539  012458  2387               	addwfc	(keypadRead@keyHoldTime+1)& (0+255),f,b
  6540                           
  6541                           ; BSR set to: 0
  6542                           ;keypad.c: 79: key = keypadScan();
  6543  01245A  EC87  F092         	call	_keypadScan	;wreg free
  6544  01245E  502E               	movf	?_keypadScan,w,c
  6545  012460  0100               	movlb	0	; () banked
  6546  012462  6F8E               	movwf	keypadRead@key& (0+255),b	;volatile
  6547                           
  6548                           ; BSR set to: 0
  6549                           ;keypad.c: 81: if(key == NONE)
  6550  012464  518E               	movf	keypadRead@key& (0+255),w,b	;volatile
  6551  012466  6E33               	movwf	??_keypadRead& (0+255),c
  6552  012468  6A34               	clrf	(??_keypadRead+1)& (0+255),c
  6553  01246A  503D               	movf	_NONE,w,c
  6554  01246C  1833               	xorwf	??_keypadRead,w,c
  6555  01246E  E108               	bnz	l6537
  6556  012470  503E               	movf	_NONE+1,w,c
  6557  012472  1834               	xorwf	??_keypadRead+1,w,c
  6558  012474  A4D8               	btfss	16344,2,c
  6559  012476  D004               	goto	l429
  6560                           
  6561                           ; BSR set to: 0
  6562                           ;keypad.c: 82: {;keypad.c: 83: flagPressed = 0;
  6563  012478  0E00               	movlw	0
  6564  01247A  6F89               	movwf	(keypadRead@flagPressed+1)& (0+255),b
  6565  01247C  0E00               	movlw	0
  6566  01247E  6F88               	movwf	keypadRead@flagPressed& (0+255),b
  6567  012480                     l429:
  6568  012480                     l6537:
  6569                           
  6570                           ; BSR set to: 0
  6571                           ;keypad.c: 84: };keypad.c: 86: if (keyHoldTime == 1000)
  6572  012480  0EE8               	movlw	232
  6573  012482  1986               	xorwf	keypadRead@keyHoldTime& (0+255),w,b
  6574  012484  E12F               	bnz	l6555
  6575  012486  0E03               	movlw	3
  6576  012488  1987               	xorwf	(keypadRead@keyHoldTime+1)& (0+255),w,b
  6577  01248A  A4D8               	btfss	16344,2,c
  6578  01248C  D02B               	goto	l432
  6579                           
  6580                           ; BSR set to: 0
  6581                           ;keypad.c: 87: {;keypad.c: 88: keyHeld = key;
  6582  01248E  0060  F238  F08C   	movff	keypadRead@key,keypadRead@keyHeld	;volatile
  6583                           
  6584                           ; BSR set to: 0
  6585                           ;keypad.c: 90: if (keyBeeps == ON)
  6586  012494  5011               	movf	_ON,w,c
  6587  012496  1819               	xorwf	_keyBeeps,w,c
  6588  012498  E115               	bnz	l6549
  6589  01249A  5012               	movf	_ON+1,w,c
  6590  01249C  181A               	xorwf	_keyBeeps+1,w,c
  6591  01249E  A4D8               	btfss	16344,2,c
  6592  0124A0  D011               	goto	l431
  6593                           
  6594                           ; BSR set to: 0
  6595                           ;keypad.c: 91: {;keypad.c: 92: quickBeep();
  6596  0124A2  EC14  F09A         	call	_quickBeep	;wreg free
  6597                           
  6598                           ;keypad.c: 93: _delay((unsigned long)((100)*(8000000/4000.0)));
  6599  0124A6  0E02               	movlw	2
  6600  0124A8  6E34               	movwf	(??_keypadRead+1)& (0+255),c
  6601  0124AA  0E04               	movlw	4
  6602  0124AC  6E33               	movwf	??_keypadRead& (0+255),c
  6603  0124AE  0EBA               	movlw	186
  6604  0124B0                     u9607:
  6605  0124B0  2EE8               	decfsz	16360,f,c
  6606  0124B2  D7FE               	bra	u9607
  6607  0124B4  2E33               	decfsz	??_keypadRead& (0+255),f,c
  6608  0124B6  D7FC               	bra	u9607
  6609  0124B8  2E34               	decfsz	(??_keypadRead+1)& (0+255),f,c
  6610  0124BA  D7FA               	bra	u9607
  6611  0124BC  D000               	nop2	
  6612                           
  6613                           ;keypad.c: 94: quickBeep();
  6614  0124BE  EC14  F09A         	call	_quickBeep	;wreg free
  6615                           
  6616                           ;keypad.c: 95: }
  6617  0124C2  D010               	goto	l432
  6618  0124C4                     l431:
  6619  0124C4                     l6549:
  6620                           
  6621                           ;keypad.c: 97: else;keypad.c: 98: {;keypad.c: 99: quickBlink();
  6622  0124C4  EC2F  F09A         	call	_quickBlink	;wreg free
  6623                           
  6624                           ;keypad.c: 100: _delay((unsigned long)((100)*(8000000/4000.0)));
  6625  0124C8  0E02               	movlw	2
  6626  0124CA  6E34               	movwf	(??_keypadRead+1)& (0+255),c
  6627  0124CC  0E04               	movlw	4
  6628  0124CE  6E33               	movwf	??_keypadRead& (0+255),c
  6629  0124D0  0EBA               	movlw	186
  6630  0124D2                     u9617:
  6631  0124D2  2EE8               	decfsz	16360,f,c
  6632  0124D4  D7FE               	bra	u9617
  6633  0124D6  2E33               	decfsz	??_keypadRead& (0+255),f,c
  6634  0124D8  D7FC               	bra	u9617
  6635  0124DA  2E34               	decfsz	(??_keypadRead+1)& (0+255),f,c
  6636  0124DC  D7FA               	bra	u9617
  6637  0124DE  D000               	nop2	
  6638                           
  6639                           ;keypad.c: 101: quickBlink();
  6640  0124E0  EC2F  F09A         	call	_quickBlink	;wreg free
  6641  0124E4                     l432:
  6642  0124E4                     l6555:
  6643  0124E4  0100               	movlb	0	; () banked
  6644  0124E6  5188               	movf	keypadRead@flagPressed& (0+255),w,b
  6645  0124E8  180F               	xorwf	_TRUE,w,c
  6646  0124EA  E104               	bnz	u7330
  6647  0124EC  5189               	movf	(keypadRead@flagPressed+1)& (0+255),w,b
  6648  0124EE  1810               	xorwf	_TRUE+1,w,c
  6649  0124F0  B4D8               	btfsc	16344,2,c
  6650  0124F2  D7A6               	goto	l428
  6651  0124F4                     u7330:
  6652                           
  6653                           ; BSR set to: 0
  6654                           ;keypad.c: 102: };keypad.c: 103: };keypad.c: 104: };keypad.c: 106: output.keyPressed = k
      +                          eyPressed;
  6655  0124F4  0060  F234  F08A   	movff	keypadRead@keyPressed,keypadRead@output	;volatile
  6656                           
  6657                           ;keypad.c: 107: output.keyHeld = keyHeld;
  6658  0124FA  0060  F230  F08B   	movff	keypadRead@keyHeld,keypadRead@output+1	;volatile
  6659                           
  6660                           ;keypad.c: 108: return output;
  6661  012500  0060  F228  F031   	movff	keypadRead@output,?_keypadRead
  6662  012506  0060  F22C  F032   	movff	keypadRead@output+1,?_keypadRead+1
  6663                           
  6664                           ; BSR set to: 0
  6665  01250C  0012               	return		;funcret
  6666  01250E                     __end_of_keypadRead:
  6667                           	opt stack 0
  6668                           
  6669 ;; *************** function _quickBlink *****************
  6670 ;; Defined at:
  6671 ;;		line 93 in file "beeper.c"
  6672 ;; Parameters:    Size  Location     Type
  6673 ;;		None
  6674 ;; Auto vars:     Size  Location     Type
  6675 ;;		None
  6676 ;; Return value:  Size  Location     Type
  6677 ;;                  1    wreg      void 
  6678 ;; Registers used:
  6679 ;;		wreg, status,2
  6680 ;; Tracked objects:
  6681 ;;		On entry : 0/0
  6682 ;;		On exit  : 0/0
  6683 ;;		Unchanged: 0/0
  6684 ;; Data sizes:     COMRAM   BANK0   BANK1   BANK2   BANK3   BANK4   BANK5   BANK6   BANK7   BANK8   BANK9  BANK10  BANK1
      +1  BANK12  BANK13  BANK14  BANK15  BANK16  BANK17  BANK18  BANK19  BANK20  BANK21  BANK22  BANK23  BANK24  BANK25  BANK2
      +6  BANK27  BANK28  BANK29  BANK30  BANK31
  6685 ;;      Params:         0       0       0       0       0       0       0       0       0       0       0       0       
      +0       0       0       0       0       0       0       0       0       0       0       0       0       0       0       
      +0       0       0       0       0       0
  6686 ;;      Locals:         0       0       0       0       0       0       0       0       0       0       0       0       
      +0       0       0       0       0       0       0       0       0       0       0       0       0       0       0       
      +0       0       0       0       0       0
  6687 ;;      Temps:          0       0       0       0       0       0       0       0       0       0       0       0       
      +0       0       0       0       0       0       0       0       0       0       0       0       0       0       0       
      +0       0       0       0       0       0
  6688 ;;      Totals:         0       0       0       0       0       0       0       0       0       0       0       0       
      +0       0       0       0       0       0       0       0       0       0       0       0       0       0       0       
      +0       0       0       0       0       0
  6689 ;;Total ram usage:        0 bytes
  6690 ;; Hardware stack levels used:    1
  6691 ;; Hardware stack levels required when called:    5
  6692 ;; This function calls:
  6693 ;;		Nothing
  6694 ;; This function is called by:
  6695 ;;		_keypadRead
  6696 ;; This function uses a non-reentrant model
  6697 ;;
  6698                           
  6699                           	psect	text23
  6700  01345E                     __ptext23:
  6701                           	opt stack 0
  6702  01345E                     _quickBlink:
  6703                           	opt stack 24
  6704                           
  6705                           ;beeper.c: 95: TMR1H = 0xCE;
  6706                           
  6707                           ; BSR set to: 0
  6708                           ;incstack = 0
  6709  01345E  0ECE               	movlw	206
  6710  013460  013F               	movlb	63	; () banked
  6711  013462  6FB1               	movwf	177,b	;volatile
  6712                           
  6713                           ;beeper.c: 96: TMR1L = 0x57;
  6714  013464  0E57               	movlw	87
  6715  013466  6FB0               	movwf	176,b	;volatile
  6716                           
  6717                           ; BSR set to: 63
  6718                           ;beeper.c: 97: LATAbits.LATA0 = 1;
  6719  013468  81BA               	bsf	186,0,b	;volatile
  6720                           
  6721                           ; BSR set to: 63
  6722                           ;beeper.c: 98: T1CONbits.ON = 1;
  6723  01346A  81B2               	bsf	178,0,b	;volatile
  6724                           
  6725                           ; BSR set to: 63
  6726  01346C  0012               	return		;funcret
  6727  01346E                     __end_of_quickBlink:
  6728                           	opt stack 0
  6729                           
  6730 ;; *************** function _quickBeep *****************
  6731 ;; Defined at:
  6732 ;;		line 84 in file "beeper.c"
  6733 ;; Parameters:    Size  Location     Type
  6734 ;;		None
  6735 ;; Auto vars:     Size  Location     Type
  6736 ;;		None
  6737 ;; Return value:  Size  Location     Type
  6738 ;;                  1    wreg      void 
  6739 ;; Registers used:
  6740 ;;		wreg, status,2
  6741 ;; Tracked objects:
  6742 ;;		On entry : 0/0
  6743 ;;		On exit  : 0/0
  6744 ;;		Unchanged: 0/0
  6745 ;; Data sizes:     COMRAM   BANK0   BANK1   BANK2   BANK3   BANK4   BANK5   BANK6   BANK7   BANK8   BANK9  BANK10  BANK1
      +1  BANK12  BANK13  BANK14  BANK15  BANK16  BANK17  BANK18  BANK19  BANK20  BANK21  BANK22  BANK23  BANK24  BANK25  BANK2
      +6  BANK27  BANK28  BANK29  BANK30  BANK31
  6746 ;;      Params:         0       0       0       0       0       0       0       0       0       0       0       0       
      +0       0       0       0       0       0       0       0       0       0       0       0       0       0       0       
      +0       0       0       0       0       0
  6747 ;;      Locals:         0       0       0       0       0       0       0       0       0       0       0       0       
      +0       0       0       0       0       0       0       0       0       0       0       0       0       0       0       
      +0       0       0       0       0       0
  6748 ;;      Temps:          0       0       0       0       0       0       0       0       0       0       0       0       
      +0       0       0       0       0       0       0       0       0       0       0       0       0       0       0       
      +0       0       0       0       0       0
  6749 ;;      Totals:         0       0       0       0       0       0       0       0       0       0       0       0       
      +0       0       0       0       0       0       0       0       0       0       0       0       0       0       0       
      +0       0       0       0       0       0
  6750 ;;Total ram usage:        0 bytes
  6751 ;; Hardware stack levels used:    1
  6752 ;; Hardware stack levels required when called:    5
  6753 ;; This function calls:
  6754 ;;		Nothing
  6755 ;; This function is called by:
  6756 ;;		_keypadRead
  6757 ;; This function uses a non-reentrant model
  6758 ;;
  6759                           
  6760                           	psect	text24
  6761  013428                     __ptext24:
  6762                           	opt stack 0
  6763  013428                     _quickBeep:
  6764                           	opt stack 24
  6765                           
  6766                           ;beeper.c: 86: TMR1H = 0xCE;
  6767                           
  6768                           ; BSR set to: 63
  6769                           ;incstack = 0
  6770  013428  0ECE               	movlw	206
  6771  01342A  013F               	movlb	63	; () banked
  6772  01342C  6FB1               	movwf	177,b	;volatile
  6773                           
  6774                           ;beeper.c: 87: TMR1L = 0x57;
  6775  01342E  0E57               	movlw	87
  6776  013430  6FB0               	movwf	176,b	;volatile
  6777                           
  6778                           ; BSR set to: 63
  6779                           ;beeper.c: 88: PWM5CONbits.EN = 1;
  6780  013432  8F6E               	bsf	110,7,b	;volatile
  6781                           
  6782                           ; BSR set to: 63
  6783                           ;beeper.c: 89: LATAbits.LATA0 = 1;
  6784  013434  81BA               	bsf	186,0,b	;volatile
  6785                           
  6786                           ; BSR set to: 63
  6787                           ;beeper.c: 90: T1CONbits.ON = 1;
  6788  013436  81B2               	bsf	178,0,b	;volatile
  6789                           
  6790                           ; BSR set to: 63
  6791  013438  0012               	return		;funcret
  6792  01343A                     __end_of_quickBeep:
  6793                           	opt stack 0
  6794                           
  6795 ;; *************** function _normalBlink *****************
  6796 ;; Defined at:
  6797 ;;		line 119 in file "beeper.c"
  6798 ;; Parameters:    Size  Location     Type
  6799 ;;		None
  6800 ;; Auto vars:     Size  Location     Type
  6801 ;;		None
  6802 ;; Return value:  Size  Location     Type
  6803 ;;                  1    wreg      void 
  6804 ;; Registers used:
  6805 ;;		wreg, status,2
  6806 ;; Tracked objects:
  6807 ;;		On entry : 0/0
  6808 ;;		On exit  : 0/0
  6809 ;;		Unchanged: 0/0
  6810 ;; Data sizes:     COMRAM   BANK0   BANK1   BANK2   BANK3   BANK4   BANK5   BANK6   BANK7   BANK8   BANK9  BANK10  BANK1
      +1  BANK12  BANK13  BANK14  BANK15  BANK16  BANK17  BANK18  BANK19  BANK20  BANK21  BANK22  BANK23  BANK24  BANK25  BANK2
      +6  BANK27  BANK28  BANK29  BANK30  BANK31
  6811 ;;      Params:         0       0       0       0       0       0       0       0       0       0       0       0       
      +0       0       0       0       0       0       0       0       0       0       0       0       0       0       0       
      +0       0       0       0       0       0
  6812 ;;      Locals:         0       0       0       0       0       0       0       0       0       0       0       0       
      +0       0       0       0       0       0       0       0       0       0       0       0       0       0       0       
      +0       0       0       0       0       0
  6813 ;;      Temps:          0       0       0       0       0       0       0       0       0       0       0       0       
      +0       0       0       0       0       0       0       0       0       0       0       0       0       0       0       
      +0       0       0       0       0       0
  6814 ;;      Totals:         0       0       0       0       0       0       0       0       0       0       0       0       
      +0       0       0       0       0       0       0       0       0       0       0       0       0       0       0       
      +0       0       0       0       0       0
  6815 ;;Total ram usage:        0 bytes
  6816 ;; Hardware stack levels used:    1
  6817 ;; Hardware stack levels required when called:    5
  6818 ;; This function calls:
  6819 ;;		Nothing
  6820 ;; This function is called by:
  6821 ;;		_keypadRead
  6822 ;; This function uses a non-reentrant model
  6823 ;;
  6824                           
  6825                           	psect	text25
  6826  01346E                     __ptext25:
  6827                           	opt stack 0
  6828  01346E                     _normalBlink:
  6829                           	opt stack 24
  6830                           
  6831                           ;beeper.c: 121: TMR1H = 0xAE;
  6832                           
  6833                           ; BSR set to: 63
  6834                           ;incstack = 0
  6835  01346E  0EAE               	movlw	174
  6836  013470  013F               	movlb	63	; () banked
  6837  013472  6FB1               	movwf	177,b	;volatile
  6838                           
  6839                           ;beeper.c: 122: TMR1L = 0x57;
  6840  013474  0E57               	movlw	87
  6841  013476  6FB0               	movwf	176,b	;volatile
  6842                           
  6843                           ; BSR set to: 63
  6844                           ;beeper.c: 123: LATAbits.LATA0 = 1;
  6845  013478  81BA               	bsf	186,0,b	;volatile
  6846                           
  6847                           ; BSR set to: 63
  6848                           ;beeper.c: 124: T1CONbits.ON = 1;
  6849  01347A  81B2               	bsf	178,0,b	;volatile
  6850                           
  6851                           ; BSR set to: 63
  6852  01347C  0012               	return		;funcret
  6853  01347E                     __end_of_normalBlink:
  6854                           	opt stack 0
  6855                           
  6856 ;; *************** function _normalBeep *****************
  6857 ;; Defined at:
  6858 ;;		line 110 in file "beeper.c"
  6859 ;; Parameters:    Size  Location     Type
  6860 ;;		None
  6861 ;; Auto vars:     Size  Location     Type
  6862 ;;		None
  6863 ;; Return value:  Size  Location     Type
  6864 ;;                  1    wreg      void 
  6865 ;; Registers used:
  6866 ;;		wreg, status,2
  6867 ;; Tracked objects:
  6868 ;;		On entry : 0/0
  6869 ;;		On exit  : 0/0
  6870 ;;		Unchanged: 0/0
  6871 ;; Data sizes:     COMRAM   BANK0   BANK1   BANK2   BANK3   BANK4   BANK5   BANK6   BANK7   BANK8   BANK9  BANK10  BANK1
      +1  BANK12  BANK13  BANK14  BANK15  BANK16  BANK17  BANK18  BANK19  BANK20  BANK21  BANK22  BANK23  BANK24  BANK25  BANK2
      +6  BANK27  BANK28  BANK29  BANK30  BANK31
  6872 ;;      Params:         0       0       0       0       0       0       0       0       0       0       0       0       
      +0       0       0       0       0       0       0       0       0       0       0       0       0       0       0       
      +0       0       0       0       0       0
  6873 ;;      Locals:         0       0       0       0       0       0       0       0       0       0       0       0       
      +0       0       0       0       0       0       0       0       0       0       0       0       0       0       0       
      +0       0       0       0       0       0
  6874 ;;      Temps:          0       0       0       0       0       0       0       0       0       0       0       0       
      +0       0       0       0       0       0       0       0       0       0       0       0       0       0       0       
      +0       0       0       0       0       0
  6875 ;;      Totals:         0       0       0       0       0       0       0       0       0       0       0       0       
      +0       0       0       0       0       0       0       0       0       0       0       0       0       0       0       
      +0       0       0       0       0       0
  6876 ;;Total ram usage:        0 bytes
  6877 ;; Hardware stack levels used:    1
  6878 ;; Hardware stack levels required when called:    5
  6879 ;; This function calls:
  6880 ;;		Nothing
  6881 ;; This function is called by:
  6882 ;;		_keypadRead
  6883 ;; This function uses a non-reentrant model
  6884 ;;
  6885                           
  6886                           	psect	text26
  6887  01343A                     __ptext26:
  6888                           	opt stack 0
  6889  01343A                     _normalBeep:
  6890                           	opt stack 24
  6891                           
  6892                           ;beeper.c: 112: TMR1H = 0xAE;
  6893                           
  6894                           ; BSR set to: 63
  6895                           ;incstack = 0
  6896  01343A  0EAE               	movlw	174
  6897  01343C  013F               	movlb	63	; () banked
  6898  01343E  6FB1               	movwf	177,b	;volatile
  6899                           
  6900                           ;beeper.c: 113: TMR1L = 0x57;
  6901  013440  0E57               	movlw	87
  6902  013442  6FB0               	movwf	176,b	;volatile
  6903                           
  6904                           ; BSR set to: 63
  6905                           ;beeper.c: 114: PWM5CONbits.EN = 1;
  6906  013444  8F6E               	bsf	110,7,b	;volatile
  6907                           
  6908                           ; BSR set to: 63
  6909                           ;beeper.c: 115: LATAbits.LATA0 = 1;
  6910  013446  81BA               	bsf	186,0,b	;volatile
  6911                           
  6912                           ; BSR set to: 63
  6913                           ;beeper.c: 116: T1CONbits.ON = 1;
  6914  013448  81B2               	bsf	178,0,b	;volatile
  6915                           
  6916                           ; BSR set to: 63
  6917  01344A  0012               	return		;funcret
  6918  01344C                     __end_of_normalBeep:
  6919                           	opt stack 0
  6920                           
  6921 ;; *************** function _keypadScan *****************
  6922 ;; Defined at:
  6923 ;;		line 112 in file "keypad.c"
  6924 ;; Parameters:    Size  Location     Type
  6925 ;;		None
  6926 ;; Auto vars:     Size  Location     Type
  6927 ;;		None
  6928 ;; Return value:  Size  Location     Type
  6929 ;;                  2   12[COMRAM] int 
  6930 ;; Registers used:
  6931 ;;		wreg, status,2
  6932 ;; Tracked objects:
  6933 ;;		On entry : 0/0
  6934 ;;		On exit  : 0/0
  6935 ;;		Unchanged: 0/0
  6936 ;; Data sizes:     COMRAM   BANK0   BANK1   BANK2   BANK3   BANK4   BANK5   BANK6   BANK7   BANK8   BANK9  BANK10  BANK1
      +1  BANK12  BANK13  BANK14  BANK15  BANK16  BANK17  BANK18  BANK19  BANK20  BANK21  BANK22  BANK23  BANK24  BANK25  BANK2
      +6  BANK27  BANK28  BANK29  BANK30  BANK31
  6937 ;;      Params:         2       0       0       0       0       0       0       0       0       0       0       0       
      +0       0       0       0       0       0       0       0       0       0       0       0       0       0       0       
      +0       0       0       0       0       0
  6938 ;;      Locals:         0       0       0       0       0       0       0       0       0       0       0       0       
      +0       0       0       0       0       0       0       0       0       0       0       0       0       0       0       
      +0       0       0       0       0       0
  6939 ;;      Temps:          1       0       0       0       0       0       0       0       0       0       0       0       
      +0       0       0       0       0       0       0       0       0       0       0       0       0       0       0       
      +0       0       0       0       0       0
  6940 ;;      Totals:         3       0       0       0       0       0       0       0       0       0       0       0       
      +0       0       0       0       0       0       0       0       0       0       0       0       0       0       0       
      +0       0       0       0       0       0
  6941 ;;Total ram usage:        3 bytes
  6942 ;; Hardware stack levels used:    1
  6943 ;; Hardware stack levels required when called:    5
  6944 ;; This function calls:
  6945 ;;		Nothing
  6946 ;; This function is called by:
  6947 ;;		_keypadRead
  6948 ;; This function uses a non-reentrant model
  6949 ;;
  6950                           
  6951                           	psect	text27
  6952  01250E                     __ptext27:
  6953                           	opt stack 0
  6954  01250E                     _keypadScan:
  6955                           	opt stack 24
  6956                           
  6957                           ;keypad.c: 115: LATBbits.LATB0 = 1;
  6958                           
  6959                           ; BSR set to: 63
  6960                           ;incstack = 0
  6961  01250E  013F               	movlb	63	; () banked
  6962  012510  81BB               	bsf	187,0,b	;volatile
  6963                           
  6964                           ;keypad.c: 116: if (PORTBbits.RB4 == 1){LATBbits.LATB0=0;return '1'; }
  6965  012512  A9CB               	btfss	203,4,b	;volatile
  6966  012514  D006               	goto	l437
  6967                           
  6968                           ; BSR set to: 63
  6969  012516  91BB               	bcf	187,0,b	;volatile
  6970                           
  6971                           ; BSR set to: 63
  6972  012518  0E00               	movlw	0
  6973  01251A  6E2F               	movwf	?_keypadScan+1,c
  6974  01251C  0E31               	movlw	49
  6975  01251E                     L11:
  6976  01251E  6E2E               	movwf	?_keypadScan,c
  6977                           
  6978                           ; BSR set to: 63
  6979  012520  0012               	return	
  6980  012522                     l437:
  6981                           
  6982                           ; BSR set to: 63
  6983                           ;keypad.c: 117: else if(PORTBbits.RB5 == 1){LATBbits.LATB0=0;return '2'; }
  6984  012522  ABCB               	btfss	203,5,b	;volatile
  6985  012524  D005               	goto	l440
  6986                           
  6987                           ; BSR set to: 63
  6988  012526  91BB               	bcf	187,0,b	;volatile
  6989                           
  6990                           ; BSR set to: 63
  6991  012528  0E00               	movlw	0
  6992  01252A  6E2F               	movwf	?_keypadScan+1,c
  6993  01252C  0E32               	movlw	50
  6994  01252E  D7F7               	goto	L11
  6995  012530                     l440:
  6996                           
  6997                           ; BSR set to: 63
  6998                           ;keypad.c: 118: else if(PORTBbits.RB6 == 1){LATBbits.LATB0=0;return '3'; }
  6999  012530  ADCB               	btfss	203,6,b	;volatile
  7000  012532  D005               	goto	l442
  7001                           
  7002                           ; BSR set to: 63
  7003  012534  91BB               	bcf	187,0,b	;volatile
  7004                           
  7005                           ; BSR set to: 63
  7006  012536  0E00               	movlw	0
  7007  012538  6E2F               	movwf	?_keypadScan+1,c
  7008  01253A  0E33               	movlw	51
  7009  01253C  D7F0               	goto	L11
  7010  01253E                     l442:
  7011                           
  7012                           ; BSR set to: 63
  7013                           ;keypad.c: 119: else if(PORTBbits.RB7 == 1){LATBbits.LATB0=0;return 'A'; }
  7014  01253E  AFCB               	btfss	203,7,b	;volatile
  7015  012540  D005               	goto	l444
  7016                           
  7017                           ; BSR set to: 63
  7018  012542  91BB               	bcf	187,0,b	;volatile
  7019                           
  7020                           ; BSR set to: 63
  7021  012544  0E00               	movlw	0
  7022  012546  6E2F               	movwf	?_keypadScan+1,c
  7023  012548  0E41               	movlw	65
  7024  01254A  D7E9               	goto	L11
  7025  01254C                     l444:
  7026                           
  7027                           ; BSR set to: 63
  7028                           ;keypad.c: 120: else {LATBbits.LATB0 = 0;}
  7029  01254C  91BB               	bcf	187,0,b	;volatile
  7030                           
  7031                           ; BSR set to: 63
  7032                           ;keypad.c: 121: _delay((unsigned long)((1)*(8000000/4000.0)));
  7033                           
  7034                           ; BSR set to: 63
  7035                           
  7036                           ; BSR set to: 63
  7037                           
  7038                           ; BSR set to: 63
  7039                           
  7040                           ; BSR set to: 63
  7041  01254E  0E03               	movlw	3
  7042  012550  6E30               	movwf	??_keypadScan& (0+255),c
  7043  012552  0E98               	movlw	152
  7044  012554                     u9627:
  7045  012554  2EE8               	decfsz	16360,f,c
  7046  012556  D7FE               	bra	u9627
  7047  012558  2E30               	decfsz	??_keypadScan& (0+255),f,c
  7048  01255A  D7FC               	bra	u9627
  7049                           
  7050                           ;keypad.c: 123: LATBbits.LATB1 = 1;
  7051  01255C  013F               	movlb	63	; () banked
  7052  01255E  83BB               	bsf	187,1,b	;volatile
  7053                           
  7054                           ; BSR set to: 63
  7055                           ;keypad.c: 124: if (PORTBbits.RB4 == 1){LATBbits.LATB1=0;return '4';}
  7056  012560  A9CB               	btfss	203,4,b	;volatile
  7057  012562  D006               	goto	l446
  7058                           
  7059                           ; BSR set to: 63
  7060  012564  93BB               	bcf	187,1,b	;volatile
  7061                           
  7062                           ; BSR set to: 63
  7063  012566  0E00               	movlw	0
  7064  012568  6E2F               	movwf	?_keypadScan+1,c
  7065  01256A  0E34               	movlw	52
  7066  01256C                     L12:
  7067  01256C  6E2E               	movwf	?_keypadScan,c
  7068                           
  7069                           ; BSR set to: 63
  7070  01256E  0012               	return	
  7071  012570                     l446:
  7072                           
  7073                           ; BSR set to: 63
  7074                           ;keypad.c: 125: else if(PORTBbits.RB5 == 1){LATBbits.LATB1=0;return '5';}
  7075  012570  ABCB               	btfss	203,5,b	;volatile
  7076  012572  D005               	goto	l448
  7077                           
  7078                           ; BSR set to: 63
  7079  012574  93BB               	bcf	187,1,b	;volatile
  7080                           
  7081                           ; BSR set to: 63
  7082  012576  0E00               	movlw	0
  7083  012578  6E2F               	movwf	?_keypadScan+1,c
  7084  01257A  0E35               	movlw	53
  7085  01257C  D7F7               	goto	L12
  7086  01257E                     l448:
  7087                           
  7088                           ; BSR set to: 63
  7089                           ;keypad.c: 126: else if(PORTBbits.RB6 == 1){LATBbits.LATB1=0;return '6';}
  7090  01257E  ADCB               	btfss	203,6,b	;volatile
  7091  012580  D005               	goto	l450
  7092                           
  7093                           ; BSR set to: 63
  7094  012582  93BB               	bcf	187,1,b	;volatile
  7095                           
  7096                           ; BSR set to: 63
  7097  012584  0E00               	movlw	0
  7098  012586  6E2F               	movwf	?_keypadScan+1,c
  7099  012588  0E36               	movlw	54
  7100  01258A  D7F0               	goto	L12
  7101  01258C                     l450:
  7102                           
  7103                           ; BSR set to: 63
  7104                           ;keypad.c: 127: else if(PORTBbits.RB7 == 1){LATBbits.LATB1=0;return 'B';}
  7105  01258C  AFCB               	btfss	203,7,b	;volatile
  7106  01258E  D005               	goto	l452
  7107                           
  7108                           ; BSR set to: 63
  7109  012590  93BB               	bcf	187,1,b	;volatile
  7110                           
  7111                           ; BSR set to: 63
  7112  012592  0E00               	movlw	0
  7113  012594  6E2F               	movwf	?_keypadScan+1,c
  7114  012596  0E42               	movlw	66
  7115  012598  D7E9               	goto	L12
  7116  01259A                     l452:
  7117                           
  7118                           ; BSR set to: 63
  7119                           ;keypad.c: 128: else {LATBbits.LATB1 = 0;}
  7120  01259A  93BB               	bcf	187,1,b	;volatile
  7121                           
  7122                           ; BSR set to: 63
  7123                           ;keypad.c: 129: _delay((unsigned long)((1)*(8000000/4000.0)));
  7124                           
  7125                           ; BSR set to: 63
  7126                           
  7127                           ; BSR set to: 63
  7128                           
  7129                           ; BSR set to: 63
  7130                           
  7131                           ; BSR set to: 63
  7132  01259C  0E03               	movlw	3
  7133  01259E  6E30               	movwf	??_keypadScan& (0+255),c
  7134  0125A0  0E98               	movlw	152
  7135  0125A2                     u9637:
  7136  0125A2  2EE8               	decfsz	16360,f,c
  7137  0125A4  D7FE               	bra	u9637
  7138  0125A6  2E30               	decfsz	??_keypadScan& (0+255),f,c
  7139  0125A8  D7FC               	bra	u9637
  7140                           
  7141                           ;keypad.c: 131: LATBbits.LATB2 = 1;
  7142  0125AA  013F               	movlb	63	; () banked
  7143  0125AC  85BB               	bsf	187,2,b	;volatile
  7144                           
  7145                           ; BSR set to: 63
  7146                           ;keypad.c: 132: if (PORTBbits.RB4 == 1){LATBbits.LATB2=0;return '7';}
  7147  0125AE  A9CB               	btfss	203,4,b	;volatile
  7148  0125B0  D006               	goto	l454
  7149                           
  7150                           ; BSR set to: 63
  7151  0125B2  95BB               	bcf	187,2,b	;volatile
  7152                           
  7153                           ; BSR set to: 63
  7154  0125B4  0E00               	movlw	0
  7155  0125B6  6E2F               	movwf	?_keypadScan+1,c
  7156  0125B8  0E37               	movlw	55
  7157  0125BA                     L13:
  7158  0125BA  6E2E               	movwf	?_keypadScan,c
  7159                           
  7160                           ; BSR set to: 63
  7161  0125BC  0012               	return	
  7162  0125BE                     l454:
  7163                           
  7164                           ; BSR set to: 63
  7165                           ;keypad.c: 133: else if(PORTBbits.RB5 == 1){LATBbits.LATB2=0;return '8';}
  7166  0125BE  ABCB               	btfss	203,5,b	;volatile
  7167  0125C0  D005               	goto	l456
  7168                           
  7169                           ; BSR set to: 63
  7170  0125C2  95BB               	bcf	187,2,b	;volatile
  7171                           
  7172                           ; BSR set to: 63
  7173  0125C4  0E00               	movlw	0
  7174  0125C6  6E2F               	movwf	?_keypadScan+1,c
  7175  0125C8  0E38               	movlw	56
  7176  0125CA  D7F7               	goto	L13
  7177  0125CC                     l456:
  7178                           
  7179                           ; BSR set to: 63
  7180                           ;keypad.c: 134: else if(PORTBbits.RB6 == 1){LATBbits.LATB2=0;return '9';}
  7181  0125CC  ADCB               	btfss	203,6,b	;volatile
  7182  0125CE  D005               	goto	l458
  7183                           
  7184                           ; BSR set to: 63
  7185  0125D0  95BB               	bcf	187,2,b	;volatile
  7186                           
  7187                           ; BSR set to: 63
  7188  0125D2  0E00               	movlw	0
  7189  0125D4  6E2F               	movwf	?_keypadScan+1,c
  7190  0125D6  0E39               	movlw	57
  7191  0125D8  D7F0               	goto	L13
  7192  0125DA                     l458:
  7193                           
  7194                           ; BSR set to: 63
  7195                           ;keypad.c: 135: else if(PORTBbits.RB7 == 1){LATBbits.LATB2=0;return 'C';}
  7196  0125DA  AFCB               	btfss	203,7,b	;volatile
  7197  0125DC  D005               	goto	l460
  7198                           
  7199                           ; BSR set to: 63
  7200  0125DE  95BB               	bcf	187,2,b	;volatile
  7201                           
  7202                           ; BSR set to: 63
  7203  0125E0  0E00               	movlw	0
  7204  0125E2  6E2F               	movwf	?_keypadScan+1,c
  7205  0125E4  0E43               	movlw	67
  7206  0125E6  D7E9               	goto	L13
  7207  0125E8                     l460:
  7208                           
  7209                           ; BSR set to: 63
  7210                           ;keypad.c: 136: else {LATBbits.LATB2 = 0;}
  7211  0125E8  95BB               	bcf	187,2,b	;volatile
  7212                           
  7213                           ; BSR set to: 63
  7214                           ;keypad.c: 137: _delay((unsigned long)((1)*(8000000/4000.0)));
  7215                           
  7216                           ; BSR set to: 63
  7217                           
  7218                           ; BSR set to: 63
  7219                           
  7220                           ; BSR set to: 63
  7221                           
  7222                           ; BSR set to: 63
  7223  0125EA  0E03               	movlw	3
  7224  0125EC  6E30               	movwf	??_keypadScan& (0+255),c
  7225  0125EE  0E98               	movlw	152
  7226  0125F0                     u9647:
  7227  0125F0  2EE8               	decfsz	16360,f,c
  7228  0125F2  D7FE               	bra	u9647
  7229  0125F4  2E30               	decfsz	??_keypadScan& (0+255),f,c
  7230  0125F6  D7FC               	bra	u9647
  7231                           
  7232                           ;keypad.c: 139: LATBbits.LATB3 = 1;
  7233  0125F8  013F               	movlb	63	; () banked
  7234  0125FA  87BB               	bsf	187,3,b	;volatile
  7235                           
  7236                           ; BSR set to: 63
  7237                           ;keypad.c: 140: if (PORTBbits.RB4 == 1){LATBbits.LATB3=0;return '*'; }
  7238  0125FC  A9CB               	btfss	203,4,b	;volatile
  7239  0125FE  D006               	goto	l462
  7240                           
  7241                           ; BSR set to: 63
  7242  012600  97BB               	bcf	187,3,b	;volatile
  7243                           
  7244                           ; BSR set to: 63
  7245  012602  0E00               	movlw	0
  7246  012604  6E2F               	movwf	?_keypadScan+1,c
  7247  012606  0E2A               	movlw	42
  7248  012608                     L14:
  7249  012608  6E2E               	movwf	?_keypadScan,c
  7250                           
  7251                           ; BSR set to: 63
  7252  01260A  0012               	return	
  7253  01260C                     l462:
  7254                           
  7255                           ; BSR set to: 63
  7256                           ;keypad.c: 141: else if(PORTBbits.RB5 == 1){LATBbits.LATB3=0;return '0'; }
  7257  01260C  ABCB               	btfss	203,5,b	;volatile
  7258  01260E  D005               	goto	l464
  7259                           
  7260                           ; BSR set to: 63
  7261  012610  97BB               	bcf	187,3,b	;volatile
  7262                           
  7263                           ; BSR set to: 63
  7264  012612  0E00               	movlw	0
  7265  012614  6E2F               	movwf	?_keypadScan+1,c
  7266  012616  0E30               	movlw	48
  7267  012618  D7F7               	goto	L14
  7268  01261A                     l464:
  7269                           
  7270                           ; BSR set to: 63
  7271                           ;keypad.c: 142: else if(PORTBbits.RB6 == 1){LATBbits.LATB3=0;return '#'; }
  7272  01261A  ADCB               	btfss	203,6,b	;volatile
  7273  01261C  D005               	goto	l466
  7274                           
  7275                           ; BSR set to: 63
  7276  01261E  97BB               	bcf	187,3,b	;volatile
  7277                           
  7278                           ; BSR set to: 63
  7279  012620  0E00               	movlw	0
  7280  012622  6E2F               	movwf	?_keypadScan+1,c
  7281  012624  0E23               	movlw	35
  7282  012626  D7F0               	goto	L14
  7283  012628                     l466:
  7284                           
  7285                           ; BSR set to: 63
  7286                           ;keypad.c: 143: else if(PORTBbits.RB7 == 1){LATBbits.LATB3=0;return 'D'; }
  7287  012628  AFCB               	btfss	203,7,b	;volatile
  7288  01262A  D005               	goto	l468
  7289                           
  7290                           ; BSR set to: 63
  7291  01262C  97BB               	bcf	187,3,b	;volatile
  7292                           
  7293                           ; BSR set to: 63
  7294  01262E  0E00               	movlw	0
  7295  012630  6E2F               	movwf	?_keypadScan+1,c
  7296  012632  0E44               	movlw	68
  7297  012634  D7E9               	goto	L14
  7298  012636                     l468:
  7299                           
  7300                           ; BSR set to: 63
  7301                           ;keypad.c: 144: else {LATBbits.LATB3 = 0;}
  7302  012636  97BB               	bcf	187,3,b	;volatile
  7303                           
  7304                           ; BSR set to: 63
  7305                           ;keypad.c: 145: _delay((unsigned long)((1)*(8000000/4000.0)));
  7306                           
  7307                           ; BSR set to: 63
  7308                           
  7309                           ; BSR set to: 63
  7310                           
  7311                           ; BSR set to: 63
  7312                           
  7313                           ; BSR set to: 63
  7314  012638  0E03               	movlw	3
  7315  01263A  6E30               	movwf	??_keypadScan& (0+255),c
  7316  01263C  0E98               	movlw	152
  7317  01263E                     u9657:
  7318  01263E  2EE8               	decfsz	16360,f,c
  7319  012640  D7FE               	bra	u9657
  7320  012642  2E30               	decfsz	??_keypadScan& (0+255),f,c
  7321  012644  D7FC               	bra	u9657
  7322                           
  7323                           ;keypad.c: 147: return 0;
  7324  012646  0E00               	movlw	0
  7325  012648  6E2F               	movwf	?_keypadScan+1,c
  7326  01264A  0E00               	movlw	0
  7327  01264C  6E2E               	movwf	?_keypadScan,c
  7328  01264E  0012               	return	
  7329  012650                     __end_of_keypadScan:
  7330                           	opt stack 0
  7331                           
  7332 ;; *************** function _disarmedPageReset *****************
  7333 ;; Defined at:
  7334 ;;		line 78 in file "main.c"
  7335 ;; Parameters:    Size  Location     Type
  7336 ;;		None
  7337 ;; Auto vars:     Size  Location     Type
  7338 ;;		None
  7339 ;; Return value:  Size  Location     Type
  7340 ;;                  1    wreg      void 
  7341 ;; Registers used:
  7342 ;;		wreg, fsr2l, fsr2h, status,2, status,0, tblptrl, tblptrh, tblptru, cstack
  7343 ;; Tracked objects:
  7344 ;;		On entry : 0/0
  7345 ;;		On exit  : 0/0
  7346 ;;		Unchanged: 0/0
  7347 ;; Data sizes:     COMRAM   BANK0   BANK1   BANK2   BANK3   BANK4   BANK5   BANK6   BANK7   BANK8   BANK9  BANK10  BANK1
      +1  BANK12  BANK13  BANK14  BANK15  BANK16  BANK17  BANK18  BANK19  BANK20  BANK21  BANK22  BANK23  BANK24  BANK25  BANK2
      +6  BANK27  BANK28  BANK29  BANK30  BANK31
  7348 ;;      Params:         0       0       0       0       0       0       0       0       0       0       0       0       
      +0       0       0       0       0       0       0       0       0       0       0       0       0       0       0       
      +0       0       0       0       0       0
  7349 ;;      Locals:         0       0       0       0       0       0       0       0       0       0       0       0       
      +0       0       0       0       0       0       0       0       0       0       0       0       0       0       0       
      +0       0       0       0       0       0
  7350 ;;      Temps:          0       0       0       0       0       0       0       0       0       0       0       0       
      +0       0       0       0       0       0       0       0       0       0       0       0       0       0       0       
      +0       0       0       0       0       0
  7351 ;;      Totals:         0       0       0       0       0       0       0       0       0       0       0       0       
      +0       0       0       0       0       0       0       0       0       0       0       0       0       0       0       
      +0       0       0       0       0       0
  7352 ;;Total ram usage:        0 bytes
  7353 ;; Hardware stack levels used:    1
  7354 ;; Hardware stack levels required when called:    8
  7355 ;; This function calls:
  7356 ;;		_LCD_Clear
  7357 ;;		_LCD_Set_Cursor
  7358 ;;		_LCD_Write_String
  7359 ;;		_LCD_printNowCountdown
  7360 ;;		_LCD_resetPasswordEntry
  7361 ;;		_resetEntry
  7362 ;; This function is called by:
  7363 ;;		_main
  7364 ;; This function uses a non-reentrant model
  7365 ;;
  7366                           
  7367                           	psect	text28
  7368  013000                     __ptext28:
  7369                           	opt stack 0
  7370  013000                     _disarmedPageReset:
  7371                           	opt stack 22
  7372                           
  7373                           ;main.c: 80: keyIterrator = 0;
  7374                           
  7375                           ;incstack = 0
  7376  013000  0E00               	movlw	0
  7377  013002  6E4E               	movwf	_keyIterrator+1,c
  7378  013004  0E00               	movlw	0
  7379  013006  6E4D               	movwf	_keyIterrator,c
  7380                           
  7381                           ;main.c: 81: resetEntry(userPswdEntry);
  7382  013008  0E99               	movlw	low _userPswdEntry
  7383  01300A  6E34               	movwf	resetEntry@str,c
  7384  01300C  0E00               	movlw	high _userPswdEntry
  7385  01300E  6E35               	movwf	resetEntry@str+1,c
  7386  013010  EC21  F098         	call	_resetEntry	;wreg free
  7387                           
  7388                           ;main.c: 82: LCD_Clear();
  7389  013014  EC8E  F099         	call	_LCD_Clear	;wreg free
  7390                           
  7391                           ;main.c: 83: LCD_Set_Cursor(1,1);
  7392  013018  0E00               	movlw	0
  7393  01301A  6E30               	movwf	LCD_Set_Cursor@c+1,c
  7394  01301C  0E01               	movlw	1
  7395  01301E  6E2F               	movwf	LCD_Set_Cursor@c,c
  7396  013020  0E00               	movlw	0
  7397  013022  6E32               	movwf	LCD_Set_Cursor@d+1,c
  7398  013024  0E01               	movlw	1
  7399  013026  6E31               	movwf	LCD_Set_Cursor@d,c
  7400  013028  ECE1  F098         	call	_LCD_Set_Cursor	;wreg free
  7401                           
  7402                           ;main.c: 84: LCD_Write_String("STOPED  ");
  7403  01302C  0ECC               	movlw	low STR_12
  7404  01302E  6E2F               	movwf	LCD_Write_String@f,c
  7405  013030  0EFF               	movlw	high STR_12
  7406  013032  6E30               	movwf	LCD_Write_String@f+1,c
  7407  013034  ECD8  F096         	call	_LCD_Write_String	;wreg free
  7408                           
  7409                           ;main.c: 85: LCD_printNowCountdown();
  7410  013038  EC2A  F097         	call	_LCD_printNowCountdown	;wreg free
  7411                           
  7412                           ;main.c: 86: LCD_resetPasswordEntry();
  7413  01303C  EC95  F098         	call	_LCD_resetPasswordEntry	;wreg free
  7414  013040  0012               	return		;funcret
  7415  013042                     __end_of_disarmedPageReset:
  7416                           	opt stack 0
  7417                           
  7418 ;; *************** function _LCD_printNowCountdown *****************
  7419 ;; Defined at:
  7420 ;;		line 153 in file "lcd.c"
  7421 ;; Parameters:    Size  Location     Type
  7422 ;;		None
  7423 ;; Auto vars:     Size  Location     Type
  7424 ;;  i               2   18[COMRAM] int 
  7425 ;; Return value:  Size  Location     Type
  7426 ;;                  1    wreg      void 
  7427 ;; Registers used:
  7428 ;;		wreg, fsr2l, fsr2h, status,2, status,0, cstack
  7429 ;; Tracked objects:
  7430 ;;		On entry : 0/0
  7431 ;;		On exit  : 0/0
  7432 ;;		Unchanged: 0/0
  7433 ;; Data sizes:     COMRAM   BANK0   BANK1   BANK2   BANK3   BANK4   BANK5   BANK6   BANK7   BANK8   BANK9  BANK10  BANK1
      +1  BANK12  BANK13  BANK14  BANK15  BANK16  BANK17  BANK18  BANK19  BANK20  BANK21  BANK22  BANK23  BANK24  BANK25  BANK2
      +6  BANK27  BANK28  BANK29  BANK30  BANK31
  7434 ;;      Params:         0       0       0       0       0       0       0       0       0       0       0       0       
      +0       0       0       0       0       0       0       0       0       0       0       0       0       0       0       
      +0       0       0       0       0       0
  7435 ;;      Locals:         2       0       0       0       0       0       0       0       0       0       0       0       
      +0       0       0       0       0       0       0       0       0       0       0       0       0       0       0       
      +0       0       0       0       0       0
  7436 ;;      Temps:          0       0       0       0       0       0       0       0       0       0       0       0       
      +0       0       0       0       0       0       0       0       0       0       0       0       0       0       0       
      +0       0       0       0       0       0
  7437 ;;      Totals:         2       0       0       0       0       0       0       0       0       0       0       0       
      +0       0       0       0       0       0       0       0       0       0       0       0       0       0       0       
      +0       0       0       0       0       0
  7438 ;;Total ram usage:        2 bytes
  7439 ;; Hardware stack levels used:    1
  7440 ;; Hardware stack levels required when called:    7
  7441 ;; This function calls:
  7442 ;;		_LCD_Set_Cursor
  7443 ;;		_LCD_Write_Char
  7444 ;; This function is called by:
  7445 ;;		_stanbyPageReset
  7446 ;;		_disarmedPageReset
  7447 ;;		_main
  7448 ;; This function uses a non-reentrant model
  7449 ;;
  7450                           
  7451                           	psect	text29
  7452  012E54                     __ptext29:
  7453                           	opt stack 0
  7454  012E54                     _LCD_printNowCountdown:
  7455                           	opt stack 22
  7456                           
  7457                           ;lcd.c: 155: for(int i=0;i<=7;i++)
  7458                           
  7459                           ;incstack = 0
  7460  012E54  0E00               	movlw	0
  7461  012E56  6E35               	movwf	LCD_printNowCountdown@i+1,c
  7462  012E58  0E00               	movlw	0
  7463  012E5A  6E34               	movwf	LCD_printNowCountdown@i,c
  7464  012E5C                     l6127:
  7465  012E5C  BE35               	btfsc	LCD_printNowCountdown@i+1,7,c
  7466  012E5E  D006               	goto	l588
  7467  012E60  5035               	movf	LCD_printNowCountdown@i+1,w,c
  7468  012E62  E11C               	bnz	l590
  7469  012E64  0E08               	movlw	8
  7470  012E66  5C34               	subwf	LCD_printNowCountdown@i,w,c
  7471  012E68  B0D8               	btfsc	16344,0,c
  7472  012E6A  0012               	return	
  7473  012E6C                     l588:
  7474                           
  7475                           ;lcd.c: 156: {;lcd.c: 157: LCD_Set_Cursor(1,9+i);
  7476  012E6C  0E00               	movlw	0
  7477  012E6E  6E30               	movwf	LCD_Set_Cursor@c+1,c
  7478  012E70  0E01               	movlw	1
  7479  012E72  6E2F               	movwf	LCD_Set_Cursor@c,c
  7480  012E74  0E09               	movlw	9
  7481  012E76  2434               	addwf	LCD_printNowCountdown@i,w,c
  7482  012E78  6E31               	movwf	LCD_Set_Cursor@d,c
  7483  012E7A  0E00               	movlw	0
  7484  012E7C  2035               	addwfc	LCD_printNowCountdown@i+1,w,c
  7485  012E7E  6E32               	movwf	LCD_Set_Cursor@d+1,c
  7486  012E80  ECE1  F098         	call	_LCD_Set_Cursor	;wreg free
  7487                           
  7488                           ;lcd.c: 158: LCD_Write_Char(strCountdownNowTime[i]);
  7489  012E84  0E76               	movlw	low _strCountdownNowTime
  7490  012E86  2434               	addwf	LCD_printNowCountdown@i,w,c
  7491  012E88  6ED9               	movwf	16345,c
  7492  012E8A  0E00               	movlw	high _strCountdownNowTime
  7493  012E8C  2035               	addwfc	LCD_printNowCountdown@i+1,w,c
  7494  012E8E  6EDA               	movwf	16346,c
  7495  012E90  50DF               	movf	16351,w,c
  7496  012E92  EC5B  F099         	call	_LCD_Write_Char
  7497  012E96  4A34               	infsnz	LCD_printNowCountdown@i,f,c
  7498  012E98  2A35               	incf	LCD_printNowCountdown@i+1,f,c
  7499  012E9A  D7E0               	goto	l6127
  7500  012E9C                     l590:
  7501  012E9C  0012               	return		;funcret
  7502  012E9E                     __end_of_LCD_printNowCountdown:
  7503                           	opt stack 0
  7504                           
  7505 ;; *************** function _LCD_Clear *****************
  7506 ;; Defined at:
  7507 ;;		line 52 in file "lcd.c"
  7508 ;; Parameters:    Size  Location     Type
  7509 ;;		None
  7510 ;; Auto vars:     Size  Location     Type
  7511 ;;		None
  7512 ;; Return value:  Size  Location     Type
  7513 ;;                  1    wreg      void 
  7514 ;; Registers used:
  7515 ;;		wreg, status,2, status,0
  7516 ;; Tracked objects:
  7517 ;;		On entry : 0/0
  7518 ;;		On exit  : 0/0
  7519 ;;		Unchanged: 0/0
  7520 ;; Data sizes:     COMRAM   BANK0   BANK1   BANK2   BANK3   BANK4   BANK5   BANK6   BANK7   BANK8   BANK9  BANK10  BANK1
      +1  BANK12  BANK13  BANK14  BANK15  BANK16  BANK17  BANK18  BANK19  BANK20  BANK21  BANK22  BANK23  BANK24  BANK25  BANK2
      +6  BANK27  BANK28  BANK29  BANK30  BANK31
  7521 ;;      Params:         0       0       0       0       0       0       0       0       0       0       0       0       
      +0       0       0       0       0       0       0       0       0       0       0       0       0       0       0       
      +0       0       0       0       0       0
  7522 ;;      Locals:         0       0       0       0       0       0       0       0       0       0       0       0       
      +0       0       0       0       0       0       0       0       0       0       0       0       0       0       0       
      +0       0       0       0       0       0
  7523 ;;      Temps:          1       0       0       0       0       0       0       0       0       0       0       0       
      +0       0       0       0       0       0       0       0       0       0       0       0       0       0       0       
      +0       0       0       0       0       0
  7524 ;;      Totals:         1       0       0       0       0       0       0       0       0       0       0       0       
      +0       0       0       0       0       0       0       0       0       0       0       0       0       0       0       
      +0       0       0       0       0       0
  7525 ;;Total ram usage:        1 bytes
  7526 ;; Hardware stack levels used:    1
  7527 ;; Hardware stack levels required when called:    5
  7528 ;; This function calls:
  7529 ;;		Nothing
  7530 ;; This function is called by:
  7531 ;;		_LCD_Initialize
  7532 ;;		_stanbyPageReset
  7533 ;;		_disarmedPageReset
  7534 ;; This function uses a non-reentrant model
  7535 ;;
  7536                           
  7537                           	psect	text30
  7538  01331C                     __ptext30:
  7539                           	opt stack 0
  7540  01331C                     _LCD_Clear:
  7541                           	opt stack 24
  7542                           
  7543                           ;lcd.c: 54: LATCbits.LATC6 = 0;
  7544                           
  7545                           ;incstack = 0
  7546  01331C  013F               	movlb	63	; () banked
  7547  01331E  9DBC               	bcf	188,6,b	;volatile
  7548                           
  7549                           ; BSR set to: 63
  7550                           ;lcd.c: 55: LATD &= 0x01;
  7551  013320  0E01               	movlw	1
  7552  013322  17BD               	andwf	189,f,b	;volatile
  7553                           
  7554                           ; BSR set to: 63
  7555                           ;lcd.c: 56: LATCbits.LATC7 = 1;
  7556  013324  8FBC               	bsf	188,7,b	;volatile
  7557                           
  7558                           ; BSR set to: 63
  7559                           ;lcd.c: 57: _delay((unsigned long)((4)*(8000000/4000.0)));
  7560  013326  0E0B               	movlw	11
  7561  013328  6E2E               	movwf	??_LCD_Clear& (0+255),c
  7562  01332A  0E62               	movlw	98
  7563  01332C                     u9667:
  7564  01332C  2EE8               	decfsz	16360,f,c
  7565  01332E  D7FE               	bra	u9667
  7566  013330  2E2E               	decfsz	??_LCD_Clear& (0+255),f,c
  7567  013332  D7FC               	bra	u9667
  7568  013334  D000               	nop2	
  7569                           
  7570                           ;lcd.c: 58: LATCbits.LATC7 = 0;
  7571  013336  013F               	movlb	63	; () banked
  7572  013338  9FBC               	bcf	188,7,b	;volatile
  7573                           
  7574                           ; BSR set to: 63
  7575  01333A  0012               	return		;funcret
  7576  01333C                     __end_of_LCD_Clear:
  7577                           	opt stack 0
  7578                           
  7579 ;; *************** function _disarmBeep *****************
  7580 ;; Defined at:
  7581 ;;		line 145 in file "beeper.c"
  7582 ;; Parameters:    Size  Location     Type
  7583 ;;		None
  7584 ;; Auto vars:     Size  Location     Type
  7585 ;;		None
  7586 ;; Return value:  Size  Location     Type
  7587 ;;                  1    wreg      void 
  7588 ;; Registers used:
  7589 ;;		wreg, status,2, cstack
  7590 ;; Tracked objects:
  7591 ;;		On entry : 0/0
  7592 ;;		On exit  : 0/0
  7593 ;;		Unchanged: 0/0
  7594 ;; Data sizes:     COMRAM   BANK0   BANK1   BANK2   BANK3   BANK4   BANK5   BANK6   BANK7   BANK8   BANK9  BANK10  BANK1
      +1  BANK12  BANK13  BANK14  BANK15  BANK16  BANK17  BANK18  BANK19  BANK20  BANK21  BANK22  BANK23  BANK24  BANK25  BANK2
      +6  BANK27  BANK28  BANK29  BANK30  BANK31
  7595 ;;      Params:         0       0       0       0       0       0       0       0       0       0       0       0       
      +0       0       0       0       0       0       0       0       0       0       0       0       0       0       0       
      +0       0       0       0       0       0
  7596 ;;      Locals:         0       0       0       0       0       0       0       0       0       0       0       0       
      +0       0       0       0       0       0       0       0       0       0       0       0       0       0       0       
      +0       0       0       0       0       0
  7597 ;;      Temps:          2       0       0       0       0       0       0       0       0       0       0       0       
      +0       0       0       0       0       0       0       0       0       0       0       0       0       0       0       
      +0       0       0       0       0       0
  7598 ;;      Totals:         2       0       0       0       0       0       0       0       0       0       0       0       
      +0       0       0       0       0       0       0       0       0       0       0       0       0       0       0       
      +0       0       0       0       0       0
  7599 ;;Total ram usage:        2 bytes
  7600 ;; Hardware stack levels used:    1
  7601 ;; Hardware stack levels required when called:    6
  7602 ;; This function calls:
  7603 ;;		_veryLowBeep
  7604 ;; This function is called by:
  7605 ;;		_main
  7606 ;; This function uses a non-reentrant model
  7607 ;;
  7608                           
  7609                           	psect	text31
  7610  01307E                     __ptext31:
  7611                           	opt stack 0
  7612  01307E                     _disarmBeep:
  7613                           	opt stack 24
  7614                           
  7615                           ;beeper.c: 147: veryLowBeep();
  7616                           
  7617                           ; BSR set to: 63
  7618                           ;incstack = 0
  7619  01307E  EC0A  F09A         	call	_veryLowBeep	;wreg free
  7620                           
  7621                           ;beeper.c: 148: _delay((unsigned long)((110)*(8000000/4000.0)));
  7622  013082  0E02               	movlw	2
  7623  013084  6E2F               	movwf	(??_disarmBeep+1)& (0+255),c
  7624  013086  0E1E               	movlw	30
  7625  013088  6E2E               	movwf	??_disarmBeep& (0+255),c
  7626  01308A  0EB4               	movlw	180
  7627  01308C                     u9677:
  7628  01308C  2EE8               	decfsz	16360,f,c
  7629  01308E  D7FE               	bra	u9677
  7630  013090  2E2E               	decfsz	??_disarmBeep& (0+255),f,c
  7631  013092  D7FC               	bra	u9677
  7632  013094  2E2F               	decfsz	(??_disarmBeep+1)& (0+255),f,c
  7633  013096  D7FA               	bra	u9677
  7634                           
  7635                           ;beeper.c: 149: veryLowBeep();
  7636  013098  EC0A  F09A         	call	_veryLowBeep	;wreg free
  7637                           
  7638                           ;beeper.c: 150: _delay((unsigned long)((110)*(8000000/4000.0)));
  7639  01309C  0E02               	movlw	2
  7640  01309E  6E2F               	movwf	(??_disarmBeep+1)& (0+255),c
  7641  0130A0  0E1E               	movlw	30
  7642  0130A2  6E2E               	movwf	??_disarmBeep& (0+255),c
  7643  0130A4  0EB4               	movlw	180
  7644  0130A6                     u9687:
  7645  0130A6  2EE8               	decfsz	16360,f,c
  7646  0130A8  D7FE               	bra	u9687
  7647  0130AA  2E2E               	decfsz	??_disarmBeep& (0+255),f,c
  7648  0130AC  D7FC               	bra	u9687
  7649  0130AE  2E2F               	decfsz	(??_disarmBeep+1)& (0+255),f,c
  7650  0130B0  D7FA               	bra	u9687
  7651                           
  7652                           ;beeper.c: 151: veryLowBeep();
  7653  0130B2  EC0A  F09A         	call	_veryLowBeep	;wreg free
  7654  0130B6  0012               	return		;funcret
  7655  0130B8                     __end_of_disarmBeep:
  7656                           	opt stack 0
  7657                           
  7658 ;; *************** function _countdown_now_reset_to_initial *****************
  7659 ;; Defined at:
  7660 ;;		line 37 in file "countdown.c"
  7661 ;; Parameters:    Size  Location     Type
  7662 ;;		None
  7663 ;; Auto vars:     Size  Location     Type
  7664 ;;  i               2   16[COMRAM] int 
  7665 ;; Return value:  Size  Location     Type
  7666 ;;                  1    wreg      void 
  7667 ;; Registers used:
  7668 ;;		wreg, fsr1l, fsr1h, fsr2l, fsr2h, status,2, status,0
  7669 ;; Tracked objects:
  7670 ;;		On entry : 0/0
  7671 ;;		On exit  : 0/0
  7672 ;;		Unchanged: 0/0
  7673 ;; Data sizes:     COMRAM   BANK0   BANK1   BANK2   BANK3   BANK4   BANK5   BANK6   BANK7   BANK8   BANK9  BANK10  BANK1
      +1  BANK12  BANK13  BANK14  BANK15  BANK16  BANK17  BANK18  BANK19  BANK20  BANK21  BANK22  BANK23  BANK24  BANK25  BANK2
      +6  BANK27  BANK28  BANK29  BANK30  BANK31
  7674 ;;      Params:         0       0       0       0       0       0       0       0       0       0       0       0       
      +0       0       0       0       0       0       0       0       0       0       0       0       0       0       0       
      +0       0       0       0       0       0
  7675 ;;      Locals:         2       0       0       0       0       0       0       0       0       0       0       0       
      +0       0       0       0       0       0       0       0       0       0       0       0       0       0       0       
      +0       0       0       0       0       0
  7676 ;;      Temps:          4       0       0       0       0       0       0       0       0       0       0       0       
      +0       0       0       0       0       0       0       0       0       0       0       0       0       0       0       
      +0       0       0       0       0       0
  7677 ;;      Totals:         6       0       0       0       0       0       0       0       0       0       0       0       
      +0       0       0       0       0       0       0       0       0       0       0       0       0       0       0       
      +0       0       0       0       0       0
  7678 ;;Total ram usage:        6 bytes
  7679 ;; Hardware stack levels used:    1
  7680 ;; Hardware stack levels required when called:    5
  7681 ;; This function calls:
  7682 ;;		Nothing
  7683 ;; This function is called by:
  7684 ;;		_main
  7685 ;; This function uses a non-reentrant model
  7686 ;;
  7687                           
  7688                           	psect	text32
  7689  012650                     __ptext32:
  7690                           	opt stack 0
  7691  012650                     _countdown_now_reset_to_initial:
  7692                           	opt stack 25
  7693                           
  7694                           ;countdown.c: 39: for(int i=0;i<=5;i++)
  7695                           
  7696                           ;incstack = 0
  7697  012650  0E00               	movlw	0
  7698  012652  6E33               	movwf	countdown_now_reset_to_initial@i+1,c
  7699  012654  0E00               	movlw	0
  7700  012656  6E32               	movwf	countdown_now_reset_to_initial@i,c
  7701  012658  BE33               	btfsc	countdown_now_reset_to_initial@i+1,7,c
  7702  01265A  D008               	goto	l239
  7703  01265C  5033               	movf	countdown_now_reset_to_initial@i+1,w,c
  7704  01265E  E105               	bnz	u6820
  7705  012660  0E06               	movlw	6
  7706  012662  5C32               	subwf	countdown_now_reset_to_initial@i,w,c
  7707  012664  B0D8               	btfsc	16344,0,c
  7708  012666  0012               	return	
  7709  012668  D001               	goto	l239
  7710  01266A                     u6820:
  7711  01266A  0012               	return	
  7712  01266C                     l239:
  7713                           
  7714                           ;countdown.c: 40: {;countdown.c: 41: numCountdownNowTime[i] = numCountdownInitialTime[i]
      +                          ;
  7715  01266C  90D8               	bcf	16344,0,c
  7716  01266E  3432               	rlcf	countdown_now_reset_to_initial@i,w,c
  7717  012670  6ED9               	movwf	16345,c
  7718  012672  3433               	rlcf	countdown_now_reset_to_initial@i+1,w,c
  7719  012674  6EDA               	movwf	16346,c
  7720  012676  0E60               	movlw	low _numCountdownInitialTime
  7721  012678  26D9               	addwf	16345,f,c
  7722  01267A  0E00               	movlw	high _numCountdownInitialTime
  7723  01267C  22DA               	addwfc	16346,f,c
  7724  01267E  90D8               	bcf	16344,0,c
  7725  012680  3432               	rlcf	countdown_now_reset_to_initial@i,w,c
  7726  012682  6EE1               	movwf	16353,c
  7727  012684  3433               	rlcf	countdown_now_reset_to_initial@i+1,w,c
  7728  012686  6EE2               	movwf	16354,c
  7729  012688  0E01               	movlw	low _numCountdownNowTime
  7730  01268A  26E1               	addwf	16353,f,c
  7731  01268C  0E00               	movlw	high _numCountdownNowTime
  7732  01268E  22E2               	addwfc	16354,f,c
  7733  012690  006F FF7B FFE6     	movff	16350,16358
  7734  012696  006F FF77 FFE5     	movff	16349,16357
  7735                           
  7736                           ;countdown.c: 42: if(2>i){strCountdownNowTime[i] = strCountdownInitialTime[i];}
  7737  01269C  BE33               	btfsc	countdown_now_reset_to_initial@i+1,7,c
  7738  01269E  D006               	goto	u6830
  7739  0126A0  5033               	movf	countdown_now_reset_to_initial@i+1,w,c
  7740  0126A2  E113               	bnz	l6407
  7741  0126A4  0E02               	movlw	2
  7742  0126A6  5C32               	subwf	countdown_now_reset_to_initial@i,w,c
  7743  0126A8  B0D8               	btfsc	16344,0,c
  7744  0126AA  D00F               	goto	l241
  7745  0126AC                     u6830:
  7746  0126AC  0E6C               	movlw	low _strCountdownInitialTime
  7747  0126AE  2432               	addwf	countdown_now_reset_to_initial@i,w,c
  7748  0126B0  6ED9               	movwf	16345,c
  7749  0126B2  0E00               	movlw	high _strCountdownInitialTime
  7750  0126B4  2033               	addwfc	countdown_now_reset_to_initial@i+1,w,c
  7751  0126B6  6EDA               	movwf	16346,c
  7752  0126B8  0E76               	movlw	low _strCountdownNowTime
  7753  0126BA  2432               	addwf	countdown_now_reset_to_initial@i,w,c
  7754  0126BC  6EE1               	movwf	16353,c
  7755  0126BE  0E00               	movlw	high _strCountdownNowTime
  7756  0126C0  2033               	addwfc	countdown_now_reset_to_initial@i+1,w,c
  7757  0126C2  6EE2               	movwf	16354,c
  7758  0126C4  006F FF7F FFE7     	movff	16351,16359
  7759  0126CA                     l241:
  7760  0126CA                     l6407:
  7761                           
  7762                           ;countdown.c: 43: if(2<=i && i<4){strCountdownNowTime[i+1] = strCountdownInitialTime[i+1
      +                          ];}
  7763  0126CA  BE33               	btfsc	countdown_now_reset_to_initial@i+1,7,c
  7764  0126CC  D029               	goto	l242
  7765  0126CE  5033               	movf	countdown_now_reset_to_initial@i+1,w,c
  7766  0126D0  E104               	bnz	u6840
  7767  0126D2  0E02               	movlw	2
  7768  0126D4  5C32               	subwf	countdown_now_reset_to_initial@i,w,c
  7769  0126D6  A0D8               	btfss	16344,0,c
  7770  0126D8  D023               	goto	l242
  7771  0126DA                     u6840:
  7772  0126DA  BE33               	btfsc	countdown_now_reset_to_initial@i+1,7,c
  7773  0126DC  D006               	goto	u6850
  7774  0126DE  5033               	movf	countdown_now_reset_to_initial@i+1,w,c
  7775  0126E0  E11F               	bnz	l6413
  7776  0126E2  0E04               	movlw	4
  7777  0126E4  5C32               	subwf	countdown_now_reset_to_initial@i,w,c
  7778  0126E6  B0D8               	btfsc	16344,0,c
  7779  0126E8  D01B               	goto	l242
  7780  0126EA                     u6850:
  7781  0126EA  0E01               	movlw	1
  7782  0126EC  2432               	addwf	countdown_now_reset_to_initial@i,w,c
  7783  0126EE  6E2E               	movwf	??_countdown_now_reset_to_initial& (0+255),c
  7784  0126F0  0E00               	movlw	0
  7785  0126F2  2033               	addwfc	countdown_now_reset_to_initial@i+1,w,c
  7786  0126F4  6E2F               	movwf	(??_countdown_now_reset_to_initial+1)& (0+255),c
  7787  0126F6  0E6C               	movlw	low _strCountdownInitialTime
  7788  0126F8  242E               	addwf	??_countdown_now_reset_to_initial,w,c
  7789  0126FA  6ED9               	movwf	16345,c
  7790  0126FC  0E00               	movlw	high _strCountdownInitialTime
  7791  0126FE  202F               	addwfc	??_countdown_now_reset_to_initial+1,w,c
  7792  012700  6EDA               	movwf	16346,c
  7793  012702  0E01               	movlw	1
  7794  012704  2432               	addwf	countdown_now_reset_to_initial@i,w,c
  7795  012706  6E30               	movwf	(??_countdown_now_reset_to_initial+2)& (0+255),c
  7796  012708  0E00               	movlw	0
  7797  01270A  2033               	addwfc	countdown_now_reset_to_initial@i+1,w,c
  7798  01270C  6E31               	movwf	(??_countdown_now_reset_to_initial+3)& (0+255),c
  7799  01270E  0E76               	movlw	low _strCountdownNowTime
  7800  012710  2430               	addwf	??_countdown_now_reset_to_initial+2,w,c
  7801  012712  6EE1               	movwf	16353,c
  7802  012714  0E00               	movlw	high _strCountdownNowTime
  7803  012716  2031               	addwfc	??_countdown_now_reset_to_initial+3,w,c
  7804  012718  6EE2               	movwf	16354,c
  7805  01271A  006F FF7F FFE7     	movff	16351,16359
  7806  012720                     l242:
  7807  012720                     l6413:
  7808                           
  7809                           ;countdown.c: 44: if(4<=i && i<6){strCountdownNowTime[i+2] = strCountdownInitialTime[i+2
      +                          ];}
  7810  012720  BE33               	btfsc	countdown_now_reset_to_initial@i+1,7,c
  7811  012722  D029               	goto	l243
  7812  012724  5033               	movf	countdown_now_reset_to_initial@i+1,w,c
  7813  012726  E104               	bnz	u6860
  7814  012728  0E04               	movlw	4
  7815  01272A  5C32               	subwf	countdown_now_reset_to_initial@i,w,c
  7816  01272C  A0D8               	btfss	16344,0,c
  7817  01272E  D023               	goto	l243
  7818  012730                     u6860:
  7819  012730  BE33               	btfsc	countdown_now_reset_to_initial@i+1,7,c
  7820  012732  D006               	goto	u6870
  7821  012734  5033               	movf	countdown_now_reset_to_initial@i+1,w,c
  7822  012736  E11F               	bnz	l6419
  7823  012738  0E06               	movlw	6
  7824  01273A  5C32               	subwf	countdown_now_reset_to_initial@i,w,c
  7825  01273C  B0D8               	btfsc	16344,0,c
  7826  01273E  D01B               	goto	l243
  7827  012740                     u6870:
  7828  012740  0E02               	movlw	2
  7829  012742  2432               	addwf	countdown_now_reset_to_initial@i,w,c
  7830  012744  6E2E               	movwf	??_countdown_now_reset_to_initial& (0+255),c
  7831  012746  0E00               	movlw	0
  7832  012748  2033               	addwfc	countdown_now_reset_to_initial@i+1,w,c
  7833  01274A  6E2F               	movwf	(??_countdown_now_reset_to_initial+1)& (0+255),c
  7834  01274C  0E6C               	movlw	low _strCountdownInitialTime
  7835  01274E  242E               	addwf	??_countdown_now_reset_to_initial,w,c
  7836  012750  6ED9               	movwf	16345,c
  7837  012752  0E00               	movlw	high _strCountdownInitialTime
  7838  012754  202F               	addwfc	??_countdown_now_reset_to_initial+1,w,c
  7839  012756  6EDA               	movwf	16346,c
  7840  012758  0E02               	movlw	2
  7841  01275A  2432               	addwf	countdown_now_reset_to_initial@i,w,c
  7842  01275C  6E30               	movwf	(??_countdown_now_reset_to_initial+2)& (0+255),c
  7843  01275E  0E00               	movlw	0
  7844  012760  2033               	addwfc	countdown_now_reset_to_initial@i+1,w,c
  7845  012762  6E31               	movwf	(??_countdown_now_reset_to_initial+3)& (0+255),c
  7846  012764  0E76               	movlw	low _strCountdownNowTime
  7847  012766  2430               	addwf	??_countdown_now_reset_to_initial+2,w,c
  7848  012768  6EE1               	movwf	16353,c
  7849  01276A  0E00               	movlw	high _strCountdownNowTime
  7850  01276C  2031               	addwfc	??_countdown_now_reset_to_initial+3,w,c
  7851  01276E  6EE2               	movwf	16354,c
  7852  012770  006F FF7F FFE7     	movff	16351,16359
  7853  012776                     l243:
  7854  012776                     l6419:
  7855  012776  4A32               	infsnz	countdown_now_reset_to_initial@i,f,c
  7856  012778  2A33               	incf	countdown_now_reset_to_initial@i+1,f,c
  7857  01277A  BE33               	btfsc	countdown_now_reset_to_initial@i+1,7,c
  7858  01277C  D777               	goto	l239
  7859  01277E  5033               	movf	countdown_now_reset_to_initial@i+1,w,c
  7860  012780  E101               	bnz	l244
  7861  012782  D76E               	goto	L15
  7862  012784                     l244:
  7863  012784  0012               	return		;funcret
  7864  012786                     __end_of_countdown_now_reset_to_initial:
  7865                           	opt stack 0
  7866                           
  7867 ;; *************** function _countdown_initial_str2num *****************
  7868 ;; Defined at:
  7869 ;;		line 48 in file "countdown.c"
  7870 ;; Parameters:    Size  Location     Type
  7871 ;;		None
  7872 ;; Auto vars:     Size  Location     Type
  7873 ;;  i               2   16[COMRAM] int 
  7874 ;; Return value:  Size  Location     Type
  7875 ;;                  1    wreg      void 
  7876 ;; Registers used:
  7877 ;;		wreg, fsr2l, fsr2h, status,2, status,0
  7878 ;; Tracked objects:
  7879 ;;		On entry : 0/0
  7880 ;;		On exit  : 0/0
  7881 ;;		Unchanged: 0/0
  7882 ;; Data sizes:     COMRAM   BANK0   BANK1   BANK2   BANK3   BANK4   BANK5   BANK6   BANK7   BANK8   BANK9  BANK10  BANK1
      +1  BANK12  BANK13  BANK14  BANK15  BANK16  BANK17  BANK18  BANK19  BANK20  BANK21  BANK22  BANK23  BANK24  BANK25  BANK2
      +6  BANK27  BANK28  BANK29  BANK30  BANK31
  7883 ;;      Params:         0       0       0       0       0       0       0       0       0       0       0       0       
      +0       0       0       0       0       0       0       0       0       0       0       0       0       0       0       
      +0       0       0       0       0       0
  7884 ;;      Locals:         2       0       0       0       0       0       0       0       0       0       0       0       
      +0       0       0       0       0       0       0       0       0       0       0       0       0       0       0       
      +0       0       0       0       0       0
  7885 ;;      Temps:          4       0       0       0       0       0       0       0       0       0       0       0       
      +0       0       0       0       0       0       0       0       0       0       0       0       0       0       0       
      +0       0       0       0       0       0
  7886 ;;      Totals:         6       0       0       0       0       0       0       0       0       0       0       0       
      +0       0       0       0       0       0       0       0       0       0       0       0       0       0       0       
      +0       0       0       0       0       0
  7887 ;;Total ram usage:        6 bytes
  7888 ;; Hardware stack levels used:    1
  7889 ;; Hardware stack levels required when called:    5
  7890 ;; This function calls:
  7891 ;;		Nothing
  7892 ;; This function is called by:
  7893 ;;		_main
  7894 ;; This function uses a non-reentrant model
  7895 ;;
  7896                           
  7897                           	psect	text33
  7898  011558                     __ptext33:
  7899                           	opt stack 0
  7900  011558                     _countdown_initial_str2num:
  7901                           	opt stack 25
  7902                           
  7903                           ;countdown.c: 50: for(int i=0;i<=7;i++)
  7904                           
  7905                           ;incstack = 0
  7906  011558  0E00               	movlw	0
  7907  01155A  6E33               	movwf	countdown_initial_str2num@i+1,c
  7908  01155C  0E00               	movlw	0
  7909  01155E  6E32               	movwf	countdown_initial_str2num@i,c
  7910  011560  BE33               	btfsc	countdown_initial_str2num@i+1,7,c
  7911  011562  D008               	goto	l247
  7912  011564  5033               	movf	countdown_initial_str2num@i+1,w,c
  7913  011566  E105               	bnz	u6890
  7914  011568  0E08               	movlw	8
  7915  01156A  5C32               	subwf	countdown_initial_str2num@i,w,c
  7916  01156C  B0D8               	btfsc	16344,0,c
  7917  01156E  0012               	return	
  7918  011570  D001               	goto	l247
  7919  011572                     u6890:
  7920  011572  0012               	return	
  7921  011574                     l247:
  7922                           
  7923                           ;countdown.c: 51: {;countdown.c: 52: if(i==0||i==1)
  7924  011574  5032               	movf	countdown_initial_str2num@i,w,c
  7925  011576  1033               	iorwf	countdown_initial_str2num@i+1,w,c
  7926  011578  B4D8               	btfsc	16344,2,c
  7927  01157A  D004               	goto	u6910
  7928  01157C  0432               	decf	countdown_initial_str2num@i,w,c
  7929  01157E  1033               	iorwf	countdown_initial_str2num@i+1,w,c
  7930  011580  A4D8               	btfss	16344,2,c
  7931  011582  D0E6               	goto	l261
  7932  011584                     u6910:
  7933                           
  7934                           ;countdown.c: 53: {;countdown.c: 54: if(strCountdownInitialTime[i]=='0'){numCountdownIni
      +                          tialTime[i] = 0;}
  7935  011584  0E6C               	movlw	low _strCountdownInitialTime
  7936  011586  2432               	addwf	countdown_initial_str2num@i,w,c
  7937  011588  6ED9               	movwf	16345,c
  7938  01158A  0E00               	movlw	high _strCountdownInitialTime
  7939  01158C  2033               	addwfc	countdown_initial_str2num@i+1,w,c
  7940  01158E  6EDA               	movwf	16346,c
  7941  011590  0E30               	movlw	48
  7942  011592  18DE               	xorwf	16350,w,c
  7943  011594  A4D8               	btfss	16344,2,c
  7944  011596  D00D               	goto	l252
  7945  011598  90D8               	bcf	16344,0,c
  7946  01159A  3432               	rlcf	countdown_initial_str2num@i,w,c
  7947  01159C  6ED9               	movwf	16345,c
  7948  01159E  3433               	rlcf	countdown_initial_str2num@i+1,w,c
  7949  0115A0  6EDA               	movwf	16346,c
  7950  0115A2  0E60               	movlw	low _numCountdownInitialTime
  7951  0115A4  26D9               	addwf	16345,f,c
  7952  0115A6  0E00               	movlw	high _numCountdownInitialTime
  7953  0115A8  22DA               	addwfc	16346,f,c
  7954  0115AA  0E00               	movlw	0
  7955  0115AC  6EDE               	movwf	16350,c
  7956  0115AE  0E00               	movlw	0
  7957  0115B0  6EDD               	movwf	16349,c
  7958  0115B2                     l252:
  7959                           
  7960                           ;countdown.c: 55: if(strCountdownInitialTime[i]=='1'){numCountdownInitialTime[i] = 1;}
  7961  0115B2  0E6C               	movlw	low _strCountdownInitialTime
  7962  0115B4  2432               	addwf	countdown_initial_str2num@i,w,c
  7963  0115B6  6ED9               	movwf	16345,c
  7964  0115B8  0E00               	movlw	high _strCountdownInitialTime
  7965  0115BA  2033               	addwfc	countdown_initial_str2num@i+1,w,c
  7966  0115BC  6EDA               	movwf	16346,c
  7967  0115BE  0E31               	movlw	49
  7968  0115C0  18DE               	xorwf	16350,w,c
  7969  0115C2  A4D8               	btfss	16344,2,c
  7970  0115C4  D00D               	goto	l253
  7971  0115C6  90D8               	bcf	16344,0,c
  7972  0115C8  3432               	rlcf	countdown_initial_str2num@i,w,c
  7973  0115CA  6ED9               	movwf	16345,c
  7974  0115CC  3433               	rlcf	countdown_initial_str2num@i+1,w,c
  7975  0115CE  6EDA               	movwf	16346,c
  7976  0115D0  0E60               	movlw	low _numCountdownInitialTime
  7977  0115D2  26D9               	addwf	16345,f,c
  7978  0115D4  0E00               	movlw	high _numCountdownInitialTime
  7979  0115D6  22DA               	addwfc	16346,f,c
  7980  0115D8  0E01               	movlw	1
  7981  0115DA  6EDE               	movwf	16350,c
  7982  0115DC  0E00               	movlw	0
  7983  0115DE  6EDD               	movwf	16349,c
  7984  0115E0                     l253:
  7985                           
  7986                           ;countdown.c: 56: if(strCountdownInitialTime[i]=='2'){numCountdownInitialTime[i] = 2;}
  7987  0115E0  0E6C               	movlw	low _strCountdownInitialTime
  7988  0115E2  2432               	addwf	countdown_initial_str2num@i,w,c
  7989  0115E4  6ED9               	movwf	16345,c
  7990  0115E6  0E00               	movlw	high _strCountdownInitialTime
  7991  0115E8  2033               	addwfc	countdown_initial_str2num@i+1,w,c
  7992  0115EA  6EDA               	movwf	16346,c
  7993  0115EC  0E32               	movlw	50
  7994  0115EE  18DE               	xorwf	16350,w,c
  7995  0115F0  A4D8               	btfss	16344,2,c
  7996  0115F2  D00D               	goto	l254
  7997  0115F4  90D8               	bcf	16344,0,c
  7998  0115F6  3432               	rlcf	countdown_initial_str2num@i,w,c
  7999  0115F8  6ED9               	movwf	16345,c
  8000  0115FA  3433               	rlcf	countdown_initial_str2num@i+1,w,c
  8001  0115FC  6EDA               	movwf	16346,c
  8002  0115FE  0E60               	movlw	low _numCountdownInitialTime
  8003  011600  26D9               	addwf	16345,f,c
  8004  011602  0E00               	movlw	high _numCountdownInitialTime
  8005  011604  22DA               	addwfc	16346,f,c
  8006  011606  0E02               	movlw	2
  8007  011608  6EDE               	movwf	16350,c
  8008  01160A  0E00               	movlw	0
  8009  01160C  6EDD               	movwf	16349,c
  8010  01160E                     l254:
  8011                           
  8012                           ;countdown.c: 57: if(strCountdownInitialTime[i]=='3'){numCountdownInitialTime[i] = 3;}
  8013  01160E  0E6C               	movlw	low _strCountdownInitialTime
  8014  011610  2432               	addwf	countdown_initial_str2num@i,w,c
  8015  011612  6ED9               	movwf	16345,c
  8016  011614  0E00               	movlw	high _strCountdownInitialTime
  8017  011616  2033               	addwfc	countdown_initial_str2num@i+1,w,c
  8018  011618  6EDA               	movwf	16346,c
  8019  01161A  0E33               	movlw	51
  8020  01161C  18DE               	xorwf	16350,w,c
  8021  01161E  A4D8               	btfss	16344,2,c
  8022  011620  D00D               	goto	l255
  8023  011622  90D8               	bcf	16344,0,c
  8024  011624  3432               	rlcf	countdown_initial_str2num@i,w,c
  8025  011626  6ED9               	movwf	16345,c
  8026  011628  3433               	rlcf	countdown_initial_str2num@i+1,w,c
  8027  01162A  6EDA               	movwf	16346,c
  8028  01162C  0E60               	movlw	low _numCountdownInitialTime
  8029  01162E  26D9               	addwf	16345,f,c
  8030  011630  0E00               	movlw	high _numCountdownInitialTime
  8031  011632  22DA               	addwfc	16346,f,c
  8032  011634  0E03               	movlw	3
  8033  011636  6EDE               	movwf	16350,c
  8034  011638  0E00               	movlw	0
  8035  01163A  6EDD               	movwf	16349,c
  8036  01163C                     l255:
  8037                           
  8038                           ;countdown.c: 58: if(strCountdownInitialTime[i]=='4'){numCountdownInitialTime[i] = 4;}
  8039  01163C  0E6C               	movlw	low _strCountdownInitialTime
  8040  01163E  2432               	addwf	countdown_initial_str2num@i,w,c
  8041  011640  6ED9               	movwf	16345,c
  8042  011642  0E00               	movlw	high _strCountdownInitialTime
  8043  011644  2033               	addwfc	countdown_initial_str2num@i+1,w,c
  8044  011646  6EDA               	movwf	16346,c
  8045  011648  0E34               	movlw	52
  8046  01164A  18DE               	xorwf	16350,w,c
  8047  01164C  A4D8               	btfss	16344,2,c
  8048  01164E  D00D               	goto	l256
  8049  011650  90D8               	bcf	16344,0,c
  8050  011652  3432               	rlcf	countdown_initial_str2num@i,w,c
  8051  011654  6ED9               	movwf	16345,c
  8052  011656  3433               	rlcf	countdown_initial_str2num@i+1,w,c
  8053  011658  6EDA               	movwf	16346,c
  8054  01165A  0E60               	movlw	low _numCountdownInitialTime
  8055  01165C  26D9               	addwf	16345,f,c
  8056  01165E  0E00               	movlw	high _numCountdownInitialTime
  8057  011660  22DA               	addwfc	16346,f,c
  8058  011662  0E04               	movlw	4
  8059  011664  6EDE               	movwf	16350,c
  8060  011666  0E00               	movlw	0
  8061  011668  6EDD               	movwf	16349,c
  8062  01166A                     l256:
  8063                           
  8064                           ;countdown.c: 59: if(strCountdownInitialTime[i]=='5'){numCountdownInitialTime[i] = 5;}
  8065  01166A  0E6C               	movlw	low _strCountdownInitialTime
  8066  01166C  2432               	addwf	countdown_initial_str2num@i,w,c
  8067  01166E  6ED9               	movwf	16345,c
  8068  011670  0E00               	movlw	high _strCountdownInitialTime
  8069  011672  2033               	addwfc	countdown_initial_str2num@i+1,w,c
  8070  011674  6EDA               	movwf	16346,c
  8071  011676  0E35               	movlw	53
  8072  011678  18DE               	xorwf	16350,w,c
  8073  01167A  A4D8               	btfss	16344,2,c
  8074  01167C  D00D               	goto	l257
  8075  01167E  90D8               	bcf	16344,0,c
  8076  011680  3432               	rlcf	countdown_initial_str2num@i,w,c
  8077  011682  6ED9               	movwf	16345,c
  8078  011684  3433               	rlcf	countdown_initial_str2num@i+1,w,c
  8079  011686  6EDA               	movwf	16346,c
  8080  011688  0E60               	movlw	low _numCountdownInitialTime
  8081  01168A  26D9               	addwf	16345,f,c
  8082  01168C  0E00               	movlw	high _numCountdownInitialTime
  8083  01168E  22DA               	addwfc	16346,f,c
  8084  011690  0E05               	movlw	5
  8085  011692  6EDE               	movwf	16350,c
  8086  011694  0E00               	movlw	0
  8087  011696  6EDD               	movwf	16349,c
  8088  011698                     l257:
  8089                           
  8090                           ;countdown.c: 60: if(strCountdownInitialTime[i]=='6'){numCountdownInitialTime[i] = 6;}
  8091  011698  0E6C               	movlw	low _strCountdownInitialTime
  8092  01169A  2432               	addwf	countdown_initial_str2num@i,w,c
  8093  01169C  6ED9               	movwf	16345,c
  8094  01169E  0E00               	movlw	high _strCountdownInitialTime
  8095  0116A0  2033               	addwfc	countdown_initial_str2num@i+1,w,c
  8096  0116A2  6EDA               	movwf	16346,c
  8097  0116A4  0E36               	movlw	54
  8098  0116A6  18DE               	xorwf	16350,w,c
  8099  0116A8  A4D8               	btfss	16344,2,c
  8100  0116AA  D00D               	goto	l258
  8101  0116AC  90D8               	bcf	16344,0,c
  8102  0116AE  3432               	rlcf	countdown_initial_str2num@i,w,c
  8103  0116B0  6ED9               	movwf	16345,c
  8104  0116B2  3433               	rlcf	countdown_initial_str2num@i+1,w,c
  8105  0116B4  6EDA               	movwf	16346,c
  8106  0116B6  0E60               	movlw	low _numCountdownInitialTime
  8107  0116B8  26D9               	addwf	16345,f,c
  8108  0116BA  0E00               	movlw	high _numCountdownInitialTime
  8109  0116BC  22DA               	addwfc	16346,f,c
  8110  0116BE  0E06               	movlw	6
  8111  0116C0  6EDE               	movwf	16350,c
  8112  0116C2  0E00               	movlw	0
  8113  0116C4  6EDD               	movwf	16349,c
  8114  0116C6                     l258:
  8115                           
  8116                           ;countdown.c: 61: if(strCountdownInitialTime[i]=='7'){numCountdownInitialTime[i] = 7;}
  8117  0116C6  0E6C               	movlw	low _strCountdownInitialTime
  8118  0116C8  2432               	addwf	countdown_initial_str2num@i,w,c
  8119  0116CA  6ED9               	movwf	16345,c
  8120  0116CC  0E00               	movlw	high _strCountdownInitialTime
  8121  0116CE  2033               	addwfc	countdown_initial_str2num@i+1,w,c
  8122  0116D0  6EDA               	movwf	16346,c
  8123  0116D2  0E37               	movlw	55
  8124  0116D4  18DE               	xorwf	16350,w,c
  8125  0116D6  A4D8               	btfss	16344,2,c
  8126  0116D8  D00D               	goto	l259
  8127  0116DA  90D8               	bcf	16344,0,c
  8128  0116DC  3432               	rlcf	countdown_initial_str2num@i,w,c
  8129  0116DE  6ED9               	movwf	16345,c
  8130  0116E0  3433               	rlcf	countdown_initial_str2num@i+1,w,c
  8131  0116E2  6EDA               	movwf	16346,c
  8132  0116E4  0E60               	movlw	low _numCountdownInitialTime
  8133  0116E6  26D9               	addwf	16345,f,c
  8134  0116E8  0E00               	movlw	high _numCountdownInitialTime
  8135  0116EA  22DA               	addwfc	16346,f,c
  8136  0116EC  0E07               	movlw	7
  8137  0116EE  6EDE               	movwf	16350,c
  8138  0116F0  0E00               	movlw	0
  8139  0116F2  6EDD               	movwf	16349,c
  8140  0116F4                     l259:
  8141                           
  8142                           ;countdown.c: 62: if(strCountdownInitialTime[i]=='8'){numCountdownInitialTime[i] = 8;}
  8143  0116F4  0E6C               	movlw	low _strCountdownInitialTime
  8144  0116F6  2432               	addwf	countdown_initial_str2num@i,w,c
  8145  0116F8  6ED9               	movwf	16345,c
  8146  0116FA  0E00               	movlw	high _strCountdownInitialTime
  8147  0116FC  2033               	addwfc	countdown_initial_str2num@i+1,w,c
  8148  0116FE  6EDA               	movwf	16346,c
  8149  011700  0E38               	movlw	56
  8150  011702  18DE               	xorwf	16350,w,c
  8151  011704  A4D8               	btfss	16344,2,c
  8152  011706  D00D               	goto	l260
  8153  011708  90D8               	bcf	16344,0,c
  8154  01170A  3432               	rlcf	countdown_initial_str2num@i,w,c
  8155  01170C  6ED9               	movwf	16345,c
  8156  01170E  3433               	rlcf	countdown_initial_str2num@i+1,w,c
  8157  011710  6EDA               	movwf	16346,c
  8158  011712  0E60               	movlw	low _numCountdownInitialTime
  8159  011714  26D9               	addwf	16345,f,c
  8160  011716  0E00               	movlw	high _numCountdownInitialTime
  8161  011718  22DA               	addwfc	16346,f,c
  8162  01171A  0E08               	movlw	8
  8163  01171C  6EDE               	movwf	16350,c
  8164  01171E  0E00               	movlw	0
  8165  011720  6EDD               	movwf	16349,c
  8166  011722                     l260:
  8167                           
  8168                           ;countdown.c: 63: if(strCountdownInitialTime[i]=='9'){numCountdownInitialTime[i] = 9;}
  8169  011722  0E6C               	movlw	low _strCountdownInitialTime
  8170  011724  2432               	addwf	countdown_initial_str2num@i,w,c
  8171  011726  6ED9               	movwf	16345,c
  8172  011728  0E00               	movlw	high _strCountdownInitialTime
  8173  01172A  2033               	addwfc	countdown_initial_str2num@i+1,w,c
  8174  01172C  6EDA               	movwf	16346,c
  8175  01172E  0E39               	movlw	57
  8176  011730  18DE               	xorwf	16350,w,c
  8177  011732  A4D8               	btfss	16344,2,c
  8178  011734  D00D               	goto	l261
  8179  011736  90D8               	bcf	16344,0,c
  8180  011738  3432               	rlcf	countdown_initial_str2num@i,w,c
  8181  01173A  6ED9               	movwf	16345,c
  8182  01173C  3433               	rlcf	countdown_initial_str2num@i+1,w,c
  8183  01173E  6EDA               	movwf	16346,c
  8184  011740  0E60               	movlw	low _numCountdownInitialTime
  8185  011742  26D9               	addwf	16345,f,c
  8186  011744  0E00               	movlw	high _numCountdownInitialTime
  8187  011746  22DA               	addwfc	16346,f,c
  8188  011748  0E09               	movlw	9
  8189  01174A  6EDE               	movwf	16350,c
  8190  01174C  0E00               	movlw	0
  8191  01174E  6EDD               	movwf	16349,c
  8192  011750                     l261:
  8193                           
  8194                           ;countdown.c: 64: };countdown.c: 66: if(i==3||i==4)
  8195  011750  0E03               	movlw	3
  8196  011752  1832               	xorwf	countdown_initial_str2num@i,w,c
  8197  011754  1033               	iorwf	countdown_initial_str2num@i+1,w,c
  8198  011756  B4D8               	btfsc	16344,2,c
  8199  011758  D005               	goto	u7030
  8200  01175A  0E04               	movlw	4
  8201  01175C  1832               	xorwf	countdown_initial_str2num@i,w,c
  8202  01175E  1033               	iorwf	countdown_initial_str2num@i+1,w,c
  8203  011760  A4D8               	btfss	16344,2,c
  8204  011762  D172               	goto	l274
  8205  011764                     u7030:
  8206                           
  8207                           ;countdown.c: 67: {;countdown.c: 68: if(strCountdownInitialTime[i]=='0'){numCountdownIni
      +                          tialTime[i-1] = 0;}
  8208  011764  0E6C               	movlw	low _strCountdownInitialTime
  8209  011766  2432               	addwf	countdown_initial_str2num@i,w,c
  8210  011768  6ED9               	movwf	16345,c
  8211  01176A  0E00               	movlw	high _strCountdownInitialTime
  8212  01176C  2033               	addwfc	countdown_initial_str2num@i+1,w,c
  8213  01176E  6EDA               	movwf	16346,c
  8214  011770  0E30               	movlw	48
  8215  011772  18DE               	xorwf	16350,w,c
  8216  011774  A4D8               	btfss	16344,2,c
  8217  011776  D01B               	goto	l265
  8218  011778  0EFE               	movlw	254
  8219  01177A  6E2E               	movwf	??_countdown_initial_str2num& (0+255),c
  8220  01177C  0EFF               	movlw	255
  8221  01177E  6E2F               	movwf	(??_countdown_initial_str2num+1)& (0+255),c
  8222  011780  0060  F0C8  F030   	movff	countdown_initial_str2num@i,??_countdown_initial_str2num+2
  8223  011786  0060  F0CC  F031   	movff	countdown_initial_str2num@i+1,??_countdown_initial_str2num+3
  8224  01178C  90D8               	bcf	16344,0,c
  8225  01178E  3630               	rlcf	??_countdown_initial_str2num+2,f,c
  8226  011790  3631               	rlcf	??_countdown_initial_str2num+3,f,c
  8227  011792  502E               	movf	??_countdown_initial_str2num,w,c
  8228  011794  2630               	addwf	??_countdown_initial_str2num+2,f,c
  8229  011796  502F               	movf	??_countdown_initial_str2num+1,w,c
  8230  011798  2231               	addwfc	??_countdown_initial_str2num+3,f,c
  8231  01179A  0E60               	movlw	low _numCountdownInitialTime
  8232  01179C  2430               	addwf	??_countdown_initial_str2num+2,w,c
  8233  01179E  6ED9               	movwf	16345,c
  8234  0117A0  0E00               	movlw	high _numCountdownInitialTime
  8235  0117A2  2031               	addwfc	??_countdown_initial_str2num+3,w,c
  8236  0117A4  6EDA               	movwf	16346,c
  8237  0117A6  0E00               	movlw	0
  8238  0117A8  6EDE               	movwf	16350,c
  8239  0117AA  0E00               	movlw	0
  8240  0117AC  6EDD               	movwf	16349,c
  8241  0117AE                     l265:
  8242                           
  8243                           ;countdown.c: 69: if(strCountdownInitialTime[i]=='1'){numCountdownInitialTime[i-1] = 1;}
  8244  0117AE  0E6C               	movlw	low _strCountdownInitialTime
  8245  0117B0  2432               	addwf	countdown_initial_str2num@i,w,c
  8246  0117B2  6ED9               	movwf	16345,c
  8247  0117B4  0E00               	movlw	high _strCountdownInitialTime
  8248  0117B6  2033               	addwfc	countdown_initial_str2num@i+1,w,c
  8249  0117B8  6EDA               	movwf	16346,c
  8250  0117BA  0E31               	movlw	49
  8251  0117BC  18DE               	xorwf	16350,w,c
  8252  0117BE  A4D8               	btfss	16344,2,c
  8253  0117C0  D01B               	goto	l266
  8254  0117C2  0EFE               	movlw	254
  8255  0117C4  6E2E               	movwf	??_countdown_initial_str2num& (0+255),c
  8256  0117C6  0EFF               	movlw	255
  8257  0117C8  6E2F               	movwf	(??_countdown_initial_str2num+1)& (0+255),c
  8258  0117CA  0060  F0C8  F030   	movff	countdown_initial_str2num@i,??_countdown_initial_str2num+2
  8259  0117D0  0060  F0CC  F031   	movff	countdown_initial_str2num@i+1,??_countdown_initial_str2num+3
  8260  0117D6  90D8               	bcf	16344,0,c
  8261  0117D8  3630               	rlcf	??_countdown_initial_str2num+2,f,c
  8262  0117DA  3631               	rlcf	??_countdown_initial_str2num+3,f,c
  8263  0117DC  502E               	movf	??_countdown_initial_str2num,w,c
  8264  0117DE  2630               	addwf	??_countdown_initial_str2num+2,f,c
  8265  0117E0  502F               	movf	??_countdown_initial_str2num+1,w,c
  8266  0117E2  2231               	addwfc	??_countdown_initial_str2num+3,f,c
  8267  0117E4  0E60               	movlw	low _numCountdownInitialTime
  8268  0117E6  2430               	addwf	??_countdown_initial_str2num+2,w,c
  8269  0117E8  6ED9               	movwf	16345,c
  8270  0117EA  0E00               	movlw	high _numCountdownInitialTime
  8271  0117EC  2031               	addwfc	??_countdown_initial_str2num+3,w,c
  8272  0117EE  6EDA               	movwf	16346,c
  8273  0117F0  0E01               	movlw	1
  8274  0117F2  6EDE               	movwf	16350,c
  8275  0117F4  0E00               	movlw	0
  8276  0117F6  6EDD               	movwf	16349,c
  8277  0117F8                     l266:
  8278                           
  8279                           ;countdown.c: 70: if(strCountdownInitialTime[i]=='2'){numCountdownInitialTime[i-1] = 2;}
  8280  0117F8  0E6C               	movlw	low _strCountdownInitialTime
  8281  0117FA  2432               	addwf	countdown_initial_str2num@i,w,c
  8282  0117FC  6ED9               	movwf	16345,c
  8283  0117FE  0E00               	movlw	high _strCountdownInitialTime
  8284  011800  2033               	addwfc	countdown_initial_str2num@i+1,w,c
  8285  011802  6EDA               	movwf	16346,c
  8286  011804  0E32               	movlw	50
  8287  011806  18DE               	xorwf	16350,w,c
  8288  011808  A4D8               	btfss	16344,2,c
  8289  01180A  D01B               	goto	l267
  8290  01180C  0EFE               	movlw	254
  8291  01180E  6E2E               	movwf	??_countdown_initial_str2num& (0+255),c
  8292  011810  0EFF               	movlw	255
  8293  011812  6E2F               	movwf	(??_countdown_initial_str2num+1)& (0+255),c
  8294  011814  0060  F0C8  F030   	movff	countdown_initial_str2num@i,??_countdown_initial_str2num+2
  8295  01181A  0060  F0CC  F031   	movff	countdown_initial_str2num@i+1,??_countdown_initial_str2num+3
  8296  011820  90D8               	bcf	16344,0,c
  8297  011822  3630               	rlcf	??_countdown_initial_str2num+2,f,c
  8298  011824  3631               	rlcf	??_countdown_initial_str2num+3,f,c
  8299  011826  502E               	movf	??_countdown_initial_str2num,w,c
  8300  011828  2630               	addwf	??_countdown_initial_str2num+2,f,c
  8301  01182A  502F               	movf	??_countdown_initial_str2num+1,w,c
  8302  01182C  2231               	addwfc	??_countdown_initial_str2num+3,f,c
  8303  01182E  0E60               	movlw	low _numCountdownInitialTime
  8304  011830  2430               	addwf	??_countdown_initial_str2num+2,w,c
  8305  011832  6ED9               	movwf	16345,c
  8306  011834  0E00               	movlw	high _numCountdownInitialTime
  8307  011836  2031               	addwfc	??_countdown_initial_str2num+3,w,c
  8308  011838  6EDA               	movwf	16346,c
  8309  01183A  0E02               	movlw	2
  8310  01183C  6EDE               	movwf	16350,c
  8311  01183E  0E00               	movlw	0
  8312  011840  6EDD               	movwf	16349,c
  8313  011842                     l267:
  8314                           
  8315                           ;countdown.c: 71: if(strCountdownInitialTime[i]=='3'){numCountdownInitialTime[i-1] = 3;}
  8316  011842  0E6C               	movlw	low _strCountdownInitialTime
  8317  011844  2432               	addwf	countdown_initial_str2num@i,w,c
  8318  011846  6ED9               	movwf	16345,c
  8319  011848  0E00               	movlw	high _strCountdownInitialTime
  8320  01184A  2033               	addwfc	countdown_initial_str2num@i+1,w,c
  8321  01184C  6EDA               	movwf	16346,c
  8322  01184E  0E33               	movlw	51
  8323  011850  18DE               	xorwf	16350,w,c
  8324  011852  A4D8               	btfss	16344,2,c
  8325  011854  D01B               	goto	l268
  8326  011856  0EFE               	movlw	254
  8327  011858  6E2E               	movwf	??_countdown_initial_str2num& (0+255),c
  8328  01185A  0EFF               	movlw	255
  8329  01185C  6E2F               	movwf	(??_countdown_initial_str2num+1)& (0+255),c
  8330  01185E  0060  F0C8  F030   	movff	countdown_initial_str2num@i,??_countdown_initial_str2num+2
  8331  011864  0060  F0CC  F031   	movff	countdown_initial_str2num@i+1,??_countdown_initial_str2num+3
  8332  01186A  90D8               	bcf	16344,0,c
  8333  01186C  3630               	rlcf	??_countdown_initial_str2num+2,f,c
  8334  01186E  3631               	rlcf	??_countdown_initial_str2num+3,f,c
  8335  011870  502E               	movf	??_countdown_initial_str2num,w,c
  8336  011872  2630               	addwf	??_countdown_initial_str2num+2,f,c
  8337  011874  502F               	movf	??_countdown_initial_str2num+1,w,c
  8338  011876  2231               	addwfc	??_countdown_initial_str2num+3,f,c
  8339  011878  0E60               	movlw	low _numCountdownInitialTime
  8340  01187A  2430               	addwf	??_countdown_initial_str2num+2,w,c
  8341  01187C  6ED9               	movwf	16345,c
  8342  01187E  0E00               	movlw	high _numCountdownInitialTime
  8343  011880  2031               	addwfc	??_countdown_initial_str2num+3,w,c
  8344  011882  6EDA               	movwf	16346,c
  8345  011884  0E03               	movlw	3
  8346  011886  6EDE               	movwf	16350,c
  8347  011888  0E00               	movlw	0
  8348  01188A  6EDD               	movwf	16349,c
  8349  01188C                     l268:
  8350                           
  8351                           ;countdown.c: 72: if(strCountdownInitialTime[i]=='4'){numCountdownInitialTime[i-1] = 4;}
  8352  01188C  0E6C               	movlw	low _strCountdownInitialTime
  8353  01188E  2432               	addwf	countdown_initial_str2num@i,w,c
  8354  011890  6ED9               	movwf	16345,c
  8355  011892  0E00               	movlw	high _strCountdownInitialTime
  8356  011894  2033               	addwfc	countdown_initial_str2num@i+1,w,c
  8357  011896  6EDA               	movwf	16346,c
  8358  011898  0E34               	movlw	52
  8359  01189A  18DE               	xorwf	16350,w,c
  8360  01189C  A4D8               	btfss	16344,2,c
  8361  01189E  D01B               	goto	l269
  8362  0118A0  0EFE               	movlw	254
  8363  0118A2  6E2E               	movwf	??_countdown_initial_str2num& (0+255),c
  8364  0118A4  0EFF               	movlw	255
  8365  0118A6  6E2F               	movwf	(??_countdown_initial_str2num+1)& (0+255),c
  8366  0118A8  0060  F0C8  F030   	movff	countdown_initial_str2num@i,??_countdown_initial_str2num+2
  8367  0118AE  0060  F0CC  F031   	movff	countdown_initial_str2num@i+1,??_countdown_initial_str2num+3
  8368  0118B4  90D8               	bcf	16344,0,c
  8369  0118B6  3630               	rlcf	??_countdown_initial_str2num+2,f,c
  8370  0118B8  3631               	rlcf	??_countdown_initial_str2num+3,f,c
  8371  0118BA  502E               	movf	??_countdown_initial_str2num,w,c
  8372  0118BC  2630               	addwf	??_countdown_initial_str2num+2,f,c
  8373  0118BE  502F               	movf	??_countdown_initial_str2num+1,w,c
  8374  0118C0  2231               	addwfc	??_countdown_initial_str2num+3,f,c
  8375  0118C2  0E60               	movlw	low _numCountdownInitialTime
  8376  0118C4  2430               	addwf	??_countdown_initial_str2num+2,w,c
  8377  0118C6  6ED9               	movwf	16345,c
  8378  0118C8  0E00               	movlw	high _numCountdownInitialTime
  8379  0118CA  2031               	addwfc	??_countdown_initial_str2num+3,w,c
  8380  0118CC  6EDA               	movwf	16346,c
  8381  0118CE  0E04               	movlw	4
  8382  0118D0  6EDE               	movwf	16350,c
  8383  0118D2  0E00               	movlw	0
  8384  0118D4  6EDD               	movwf	16349,c
  8385  0118D6                     l269:
  8386                           
  8387                           ;countdown.c: 73: if(strCountdownInitialTime[i]=='5'){numCountdownInitialTime[i-1] = 5;}
  8388  0118D6  0E6C               	movlw	low _strCountdownInitialTime
  8389  0118D8  2432               	addwf	countdown_initial_str2num@i,w,c
  8390  0118DA  6ED9               	movwf	16345,c
  8391  0118DC  0E00               	movlw	high _strCountdownInitialTime
  8392  0118DE  2033               	addwfc	countdown_initial_str2num@i+1,w,c
  8393  0118E0  6EDA               	movwf	16346,c
  8394  0118E2  0E35               	movlw	53
  8395  0118E4  18DE               	xorwf	16350,w,c
  8396  0118E6  A4D8               	btfss	16344,2,c
  8397  0118E8  D01B               	goto	l270
  8398  0118EA  0EFE               	movlw	254
  8399  0118EC  6E2E               	movwf	??_countdown_initial_str2num& (0+255),c
  8400  0118EE  0EFF               	movlw	255
  8401  0118F0  6E2F               	movwf	(??_countdown_initial_str2num+1)& (0+255),c
  8402  0118F2  0060  F0C8  F030   	movff	countdown_initial_str2num@i,??_countdown_initial_str2num+2
  8403  0118F8  0060  F0CC  F031   	movff	countdown_initial_str2num@i+1,??_countdown_initial_str2num+3
  8404  0118FE  90D8               	bcf	16344,0,c
  8405  011900  3630               	rlcf	??_countdown_initial_str2num+2,f,c
  8406  011902  3631               	rlcf	??_countdown_initial_str2num+3,f,c
  8407  011904  502E               	movf	??_countdown_initial_str2num,w,c
  8408  011906  2630               	addwf	??_countdown_initial_str2num+2,f,c
  8409  011908  502F               	movf	??_countdown_initial_str2num+1,w,c
  8410  01190A  2231               	addwfc	??_countdown_initial_str2num+3,f,c
  8411  01190C  0E60               	movlw	low _numCountdownInitialTime
  8412  01190E  2430               	addwf	??_countdown_initial_str2num+2,w,c
  8413  011910  6ED9               	movwf	16345,c
  8414  011912  0E00               	movlw	high _numCountdownInitialTime
  8415  011914  2031               	addwfc	??_countdown_initial_str2num+3,w,c
  8416  011916  6EDA               	movwf	16346,c
  8417  011918  0E05               	movlw	5
  8418  01191A  6EDE               	movwf	16350,c
  8419  01191C  0E00               	movlw	0
  8420  01191E  6EDD               	movwf	16349,c
  8421  011920                     l270:
  8422                           
  8423                           ;countdown.c: 74: if(strCountdownInitialTime[i]=='6'){numCountdownInitialTime[i-1] = 6;}
  8424  011920  0E6C               	movlw	low _strCountdownInitialTime
  8425  011922  2432               	addwf	countdown_initial_str2num@i,w,c
  8426  011924  6ED9               	movwf	16345,c
  8427  011926  0E00               	movlw	high _strCountdownInitialTime
  8428  011928  2033               	addwfc	countdown_initial_str2num@i+1,w,c
  8429  01192A  6EDA               	movwf	16346,c
  8430  01192C  0E36               	movlw	54
  8431  01192E  18DE               	xorwf	16350,w,c
  8432  011930  A4D8               	btfss	16344,2,c
  8433  011932  D01B               	goto	l271
  8434  011934  0EFE               	movlw	254
  8435  011936  6E2E               	movwf	??_countdown_initial_str2num& (0+255),c
  8436  011938  0EFF               	movlw	255
  8437  01193A  6E2F               	movwf	(??_countdown_initial_str2num+1)& (0+255),c
  8438  01193C  0060  F0C8  F030   	movff	countdown_initial_str2num@i,??_countdown_initial_str2num+2
  8439  011942  0060  F0CC  F031   	movff	countdown_initial_str2num@i+1,??_countdown_initial_str2num+3
  8440  011948  90D8               	bcf	16344,0,c
  8441  01194A  3630               	rlcf	??_countdown_initial_str2num+2,f,c
  8442  01194C  3631               	rlcf	??_countdown_initial_str2num+3,f,c
  8443  01194E  502E               	movf	??_countdown_initial_str2num,w,c
  8444  011950  2630               	addwf	??_countdown_initial_str2num+2,f,c
  8445  011952  502F               	movf	??_countdown_initial_str2num+1,w,c
  8446  011954  2231               	addwfc	??_countdown_initial_str2num+3,f,c
  8447  011956  0E60               	movlw	low _numCountdownInitialTime
  8448  011958  2430               	addwf	??_countdown_initial_str2num+2,w,c
  8449  01195A  6ED9               	movwf	16345,c
  8450  01195C  0E00               	movlw	high _numCountdownInitialTime
  8451  01195E  2031               	addwfc	??_countdown_initial_str2num+3,w,c
  8452  011960  6EDA               	movwf	16346,c
  8453  011962  0E06               	movlw	6
  8454  011964  6EDE               	movwf	16350,c
  8455  011966  0E00               	movlw	0
  8456  011968  6EDD               	movwf	16349,c
  8457  01196A                     l271:
  8458                           
  8459                           ;countdown.c: 75: if(strCountdownInitialTime[i]=='7'){numCountdownInitialTime[i-1] = 7;}
  8460  01196A  0E6C               	movlw	low _strCountdownInitialTime
  8461  01196C  2432               	addwf	countdown_initial_str2num@i,w,c
  8462  01196E  6ED9               	movwf	16345,c
  8463  011970  0E00               	movlw	high _strCountdownInitialTime
  8464  011972  2033               	addwfc	countdown_initial_str2num@i+1,w,c
  8465  011974  6EDA               	movwf	16346,c
  8466  011976  0E37               	movlw	55
  8467  011978  18DE               	xorwf	16350,w,c
  8468  01197A  A4D8               	btfss	16344,2,c
  8469  01197C  D01B               	goto	l272
  8470  01197E  0EFE               	movlw	254
  8471  011980  6E2E               	movwf	??_countdown_initial_str2num& (0+255),c
  8472  011982  0EFF               	movlw	255
  8473  011984  6E2F               	movwf	(??_countdown_initial_str2num+1)& (0+255),c
  8474  011986  0060  F0C8  F030   	movff	countdown_initial_str2num@i,??_countdown_initial_str2num+2
  8475  01198C  0060  F0CC  F031   	movff	countdown_initial_str2num@i+1,??_countdown_initial_str2num+3
  8476  011992  90D8               	bcf	16344,0,c
  8477  011994  3630               	rlcf	??_countdown_initial_str2num+2,f,c
  8478  011996  3631               	rlcf	??_countdown_initial_str2num+3,f,c
  8479  011998  502E               	movf	??_countdown_initial_str2num,w,c
  8480  01199A  2630               	addwf	??_countdown_initial_str2num+2,f,c
  8481  01199C  502F               	movf	??_countdown_initial_str2num+1,w,c
  8482  01199E  2231               	addwfc	??_countdown_initial_str2num+3,f,c
  8483  0119A0  0E60               	movlw	low _numCountdownInitialTime
  8484  0119A2  2430               	addwf	??_countdown_initial_str2num+2,w,c
  8485  0119A4  6ED9               	movwf	16345,c
  8486  0119A6  0E00               	movlw	high _numCountdownInitialTime
  8487  0119A8  2031               	addwfc	??_countdown_initial_str2num+3,w,c
  8488  0119AA  6EDA               	movwf	16346,c
  8489  0119AC  0E07               	movlw	7
  8490  0119AE  6EDE               	movwf	16350,c
  8491  0119B0  0E00               	movlw	0
  8492  0119B2  6EDD               	movwf	16349,c
  8493  0119B4                     l272:
  8494                           
  8495                           ;countdown.c: 76: if(strCountdownInitialTime[i]=='8'){numCountdownInitialTime[i-1] = 8;}
  8496  0119B4  0E6C               	movlw	low _strCountdownInitialTime
  8497  0119B6  2432               	addwf	countdown_initial_str2num@i,w,c
  8498  0119B8  6ED9               	movwf	16345,c
  8499  0119BA  0E00               	movlw	high _strCountdownInitialTime
  8500  0119BC  2033               	addwfc	countdown_initial_str2num@i+1,w,c
  8501  0119BE  6EDA               	movwf	16346,c
  8502  0119C0  0E38               	movlw	56
  8503  0119C2  18DE               	xorwf	16350,w,c
  8504  0119C4  A4D8               	btfss	16344,2,c
  8505  0119C6  D01B               	goto	l273
  8506  0119C8  0EFE               	movlw	254
  8507  0119CA  6E2E               	movwf	??_countdown_initial_str2num& (0+255),c
  8508  0119CC  0EFF               	movlw	255
  8509  0119CE  6E2F               	movwf	(??_countdown_initial_str2num+1)& (0+255),c
  8510  0119D0  0060  F0C8  F030   	movff	countdown_initial_str2num@i,??_countdown_initial_str2num+2
  8511  0119D6  0060  F0CC  F031   	movff	countdown_initial_str2num@i+1,??_countdown_initial_str2num+3
  8512  0119DC  90D8               	bcf	16344,0,c
  8513  0119DE  3630               	rlcf	??_countdown_initial_str2num+2,f,c
  8514  0119E0  3631               	rlcf	??_countdown_initial_str2num+3,f,c
  8515  0119E2  502E               	movf	??_countdown_initial_str2num,w,c
  8516  0119E4  2630               	addwf	??_countdown_initial_str2num+2,f,c
  8517  0119E6  502F               	movf	??_countdown_initial_str2num+1,w,c
  8518  0119E8  2231               	addwfc	??_countdown_initial_str2num+3,f,c
  8519  0119EA  0E60               	movlw	low _numCountdownInitialTime
  8520  0119EC  2430               	addwf	??_countdown_initial_str2num+2,w,c
  8521  0119EE  6ED9               	movwf	16345,c
  8522  0119F0  0E00               	movlw	high _numCountdownInitialTime
  8523  0119F2  2031               	addwfc	??_countdown_initial_str2num+3,w,c
  8524  0119F4  6EDA               	movwf	16346,c
  8525  0119F6  0E08               	movlw	8
  8526  0119F8  6EDE               	movwf	16350,c
  8527  0119FA  0E00               	movlw	0
  8528  0119FC  6EDD               	movwf	16349,c
  8529  0119FE                     l273:
  8530                           
  8531                           ;countdown.c: 77: if(strCountdownInitialTime[i]=='9'){numCountdownInitialTime[i-1] = 9;}
  8532  0119FE  0E6C               	movlw	low _strCountdownInitialTime
  8533  011A00  2432               	addwf	countdown_initial_str2num@i,w,c
  8534  011A02  6ED9               	movwf	16345,c
  8535  011A04  0E00               	movlw	high _strCountdownInitialTime
  8536  011A06  2033               	addwfc	countdown_initial_str2num@i+1,w,c
  8537  011A08  6EDA               	movwf	16346,c
  8538  011A0A  0E39               	movlw	57
  8539  011A0C  18DE               	xorwf	16350,w,c
  8540  011A0E  A4D8               	btfss	16344,2,c
  8541  011A10  D01B               	goto	l274
  8542  011A12  0EFE               	movlw	254
  8543  011A14  6E2E               	movwf	??_countdown_initial_str2num& (0+255),c
  8544  011A16  0EFF               	movlw	255
  8545  011A18  6E2F               	movwf	(??_countdown_initial_str2num+1)& (0+255),c
  8546  011A1A  0060  F0C8  F030   	movff	countdown_initial_str2num@i,??_countdown_initial_str2num+2
  8547  011A20  0060  F0CC  F031   	movff	countdown_initial_str2num@i+1,??_countdown_initial_str2num+3
  8548  011A26  90D8               	bcf	16344,0,c
  8549  011A28  3630               	rlcf	??_countdown_initial_str2num+2,f,c
  8550  011A2A  3631               	rlcf	??_countdown_initial_str2num+3,f,c
  8551  011A2C  502E               	movf	??_countdown_initial_str2num,w,c
  8552  011A2E  2630               	addwf	??_countdown_initial_str2num+2,f,c
  8553  011A30  502F               	movf	??_countdown_initial_str2num+1,w,c
  8554  011A32  2231               	addwfc	??_countdown_initial_str2num+3,f,c
  8555  011A34  0E60               	movlw	low _numCountdownInitialTime
  8556  011A36  2430               	addwf	??_countdown_initial_str2num+2,w,c
  8557  011A38  6ED9               	movwf	16345,c
  8558  011A3A  0E00               	movlw	high _numCountdownInitialTime
  8559  011A3C  2031               	addwfc	??_countdown_initial_str2num+3,w,c
  8560  011A3E  6EDA               	movwf	16346,c
  8561  011A40  0E09               	movlw	9
  8562  011A42  6EDE               	movwf	16350,c
  8563  011A44  0E00               	movlw	0
  8564  011A46  6EDD               	movwf	16349,c
  8565  011A48                     l274:
  8566                           
  8567                           ;countdown.c: 78: };countdown.c: 80: if(6==i||i==7)
  8568  011A48  0E06               	movlw	6
  8569  011A4A  1832               	xorwf	countdown_initial_str2num@i,w,c
  8570  011A4C  1033               	iorwf	countdown_initial_str2num@i+1,w,c
  8571  011A4E  B4D8               	btfsc	16344,2,c
  8572  011A50  D005               	goto	u7150
  8573  011A52  0E07               	movlw	7
  8574  011A54  1832               	xorwf	countdown_initial_str2num@i,w,c
  8575  011A56  1033               	iorwf	countdown_initial_str2num@i+1,w,c
  8576  011A58  A4D8               	btfss	16344,2,c
  8577  011A5A  D172               	goto	l287
  8578  011A5C                     u7150:
  8579                           
  8580                           ;countdown.c: 81: {;countdown.c: 82: if(strCountdownInitialTime[i]=='0'){numCountdownIni
      +                          tialTime[i-2] = 0;}
  8581  011A5C  0E6C               	movlw	low _strCountdownInitialTime
  8582  011A5E  2432               	addwf	countdown_initial_str2num@i,w,c
  8583  011A60  6ED9               	movwf	16345,c
  8584  011A62  0E00               	movlw	high _strCountdownInitialTime
  8585  011A64  2033               	addwfc	countdown_initial_str2num@i+1,w,c
  8586  011A66  6EDA               	movwf	16346,c
  8587  011A68  0E30               	movlw	48
  8588  011A6A  18DE               	xorwf	16350,w,c
  8589  011A6C  A4D8               	btfss	16344,2,c
  8590  011A6E  D01B               	goto	l278
  8591  011A70  0EFC               	movlw	252
  8592  011A72  6E2E               	movwf	??_countdown_initial_str2num& (0+255),c
  8593  011A74  0EFF               	movlw	255
  8594  011A76  6E2F               	movwf	(??_countdown_initial_str2num+1)& (0+255),c
  8595  011A78  0060  F0C8  F030   	movff	countdown_initial_str2num@i,??_countdown_initial_str2num+2
  8596  011A7E  0060  F0CC  F031   	movff	countdown_initial_str2num@i+1,??_countdown_initial_str2num+3
  8597  011A84  90D8               	bcf	16344,0,c
  8598  011A86  3630               	rlcf	??_countdown_initial_str2num+2,f,c
  8599  011A88  3631               	rlcf	??_countdown_initial_str2num+3,f,c
  8600  011A8A  502E               	movf	??_countdown_initial_str2num,w,c
  8601  011A8C  2630               	addwf	??_countdown_initial_str2num+2,f,c
  8602  011A8E  502F               	movf	??_countdown_initial_str2num+1,w,c
  8603  011A90  2231               	addwfc	??_countdown_initial_str2num+3,f,c
  8604  011A92  0E60               	movlw	low _numCountdownInitialTime
  8605  011A94  2430               	addwf	??_countdown_initial_str2num+2,w,c
  8606  011A96  6ED9               	movwf	16345,c
  8607  011A98  0E00               	movlw	high _numCountdownInitialTime
  8608  011A9A  2031               	addwfc	??_countdown_initial_str2num+3,w,c
  8609  011A9C  6EDA               	movwf	16346,c
  8610  011A9E  0E00               	movlw	0
  8611  011AA0  6EDE               	movwf	16350,c
  8612  011AA2  0E00               	movlw	0
  8613  011AA4  6EDD               	movwf	16349,c
  8614  011AA6                     l278:
  8615                           
  8616                           ;countdown.c: 83: if(strCountdownInitialTime[i]=='1'){numCountdownInitialTime[i-2] = 1;}
  8617  011AA6  0E6C               	movlw	low _strCountdownInitialTime
  8618  011AA8  2432               	addwf	countdown_initial_str2num@i,w,c
  8619  011AAA  6ED9               	movwf	16345,c
  8620  011AAC  0E00               	movlw	high _strCountdownInitialTime
  8621  011AAE  2033               	addwfc	countdown_initial_str2num@i+1,w,c
  8622  011AB0  6EDA               	movwf	16346,c
  8623  011AB2  0E31               	movlw	49
  8624  011AB4  18DE               	xorwf	16350,w,c
  8625  011AB6  A4D8               	btfss	16344,2,c
  8626  011AB8  D01B               	goto	l279
  8627  011ABA  0EFC               	movlw	252
  8628  011ABC  6E2E               	movwf	??_countdown_initial_str2num& (0+255),c
  8629  011ABE  0EFF               	movlw	255
  8630  011AC0  6E2F               	movwf	(??_countdown_initial_str2num+1)& (0+255),c
  8631  011AC2  0060  F0C8  F030   	movff	countdown_initial_str2num@i,??_countdown_initial_str2num+2
  8632  011AC8  0060  F0CC  F031   	movff	countdown_initial_str2num@i+1,??_countdown_initial_str2num+3
  8633  011ACE  90D8               	bcf	16344,0,c
  8634  011AD0  3630               	rlcf	??_countdown_initial_str2num+2,f,c
  8635  011AD2  3631               	rlcf	??_countdown_initial_str2num+3,f,c
  8636  011AD4  502E               	movf	??_countdown_initial_str2num,w,c
  8637  011AD6  2630               	addwf	??_countdown_initial_str2num+2,f,c
  8638  011AD8  502F               	movf	??_countdown_initial_str2num+1,w,c
  8639  011ADA  2231               	addwfc	??_countdown_initial_str2num+3,f,c
  8640  011ADC  0E60               	movlw	low _numCountdownInitialTime
  8641  011ADE  2430               	addwf	??_countdown_initial_str2num+2,w,c
  8642  011AE0  6ED9               	movwf	16345,c
  8643  011AE2  0E00               	movlw	high _numCountdownInitialTime
  8644  011AE4  2031               	addwfc	??_countdown_initial_str2num+3,w,c
  8645  011AE6  6EDA               	movwf	16346,c
  8646  011AE8  0E01               	movlw	1
  8647  011AEA  6EDE               	movwf	16350,c
  8648  011AEC  0E00               	movlw	0
  8649  011AEE  6EDD               	movwf	16349,c
  8650  011AF0                     l279:
  8651                           
  8652                           ;countdown.c: 84: if(strCountdownInitialTime[i]=='2'){numCountdownInitialTime[i-2] = 2;}
  8653  011AF0  0E6C               	movlw	low _strCountdownInitialTime
  8654  011AF2  2432               	addwf	countdown_initial_str2num@i,w,c
  8655  011AF4  6ED9               	movwf	16345,c
  8656  011AF6  0E00               	movlw	high _strCountdownInitialTime
  8657  011AF8  2033               	addwfc	countdown_initial_str2num@i+1,w,c
  8658  011AFA  6EDA               	movwf	16346,c
  8659  011AFC  0E32               	movlw	50
  8660  011AFE  18DE               	xorwf	16350,w,c
  8661  011B00  A4D8               	btfss	16344,2,c
  8662  011B02  D01B               	goto	l280
  8663  011B04  0EFC               	movlw	252
  8664  011B06  6E2E               	movwf	??_countdown_initial_str2num& (0+255),c
  8665  011B08  0EFF               	movlw	255
  8666  011B0A  6E2F               	movwf	(??_countdown_initial_str2num+1)& (0+255),c
  8667  011B0C  0060  F0C8  F030   	movff	countdown_initial_str2num@i,??_countdown_initial_str2num+2
  8668  011B12  0060  F0CC  F031   	movff	countdown_initial_str2num@i+1,??_countdown_initial_str2num+3
  8669  011B18  90D8               	bcf	16344,0,c
  8670  011B1A  3630               	rlcf	??_countdown_initial_str2num+2,f,c
  8671  011B1C  3631               	rlcf	??_countdown_initial_str2num+3,f,c
  8672  011B1E  502E               	movf	??_countdown_initial_str2num,w,c
  8673  011B20  2630               	addwf	??_countdown_initial_str2num+2,f,c
  8674  011B22  502F               	movf	??_countdown_initial_str2num+1,w,c
  8675  011B24  2231               	addwfc	??_countdown_initial_str2num+3,f,c
  8676  011B26  0E60               	movlw	low _numCountdownInitialTime
  8677  011B28  2430               	addwf	??_countdown_initial_str2num+2,w,c
  8678  011B2A  6ED9               	movwf	16345,c
  8679  011B2C  0E00               	movlw	high _numCountdownInitialTime
  8680  011B2E  2031               	addwfc	??_countdown_initial_str2num+3,w,c
  8681  011B30  6EDA               	movwf	16346,c
  8682  011B32  0E02               	movlw	2
  8683  011B34  6EDE               	movwf	16350,c
  8684  011B36  0E00               	movlw	0
  8685  011B38  6EDD               	movwf	16349,c
  8686  011B3A                     l280:
  8687                           
  8688                           ;countdown.c: 85: if(strCountdownInitialTime[i]=='3'){numCountdownInitialTime[i-2] = 3;}
  8689  011B3A  0E6C               	movlw	low _strCountdownInitialTime
  8690  011B3C  2432               	addwf	countdown_initial_str2num@i,w,c
  8691  011B3E  6ED9               	movwf	16345,c
  8692  011B40  0E00               	movlw	high _strCountdownInitialTime
  8693  011B42  2033               	addwfc	countdown_initial_str2num@i+1,w,c
  8694  011B44  6EDA               	movwf	16346,c
  8695  011B46  0E33               	movlw	51
  8696  011B48  18DE               	xorwf	16350,w,c
  8697  011B4A  A4D8               	btfss	16344,2,c
  8698  011B4C  D01B               	goto	l281
  8699  011B4E  0EFC               	movlw	252
  8700  011B50  6E2E               	movwf	??_countdown_initial_str2num& (0+255),c
  8701  011B52  0EFF               	movlw	255
  8702  011B54  6E2F               	movwf	(??_countdown_initial_str2num+1)& (0+255),c
  8703  011B56  0060  F0C8  F030   	movff	countdown_initial_str2num@i,??_countdown_initial_str2num+2
  8704  011B5C  0060  F0CC  F031   	movff	countdown_initial_str2num@i+1,??_countdown_initial_str2num+3
  8705  011B62  90D8               	bcf	16344,0,c
  8706  011B64  3630               	rlcf	??_countdown_initial_str2num+2,f,c
  8707  011B66  3631               	rlcf	??_countdown_initial_str2num+3,f,c
  8708  011B68  502E               	movf	??_countdown_initial_str2num,w,c
  8709  011B6A  2630               	addwf	??_countdown_initial_str2num+2,f,c
  8710  011B6C  502F               	movf	??_countdown_initial_str2num+1,w,c
  8711  011B6E  2231               	addwfc	??_countdown_initial_str2num+3,f,c
  8712  011B70  0E60               	movlw	low _numCountdownInitialTime
  8713  011B72  2430               	addwf	??_countdown_initial_str2num+2,w,c
  8714  011B74  6ED9               	movwf	16345,c
  8715  011B76  0E00               	movlw	high _numCountdownInitialTime
  8716  011B78  2031               	addwfc	??_countdown_initial_str2num+3,w,c
  8717  011B7A  6EDA               	movwf	16346,c
  8718  011B7C  0E03               	movlw	3
  8719  011B7E  6EDE               	movwf	16350,c
  8720  011B80  0E00               	movlw	0
  8721  011B82  6EDD               	movwf	16349,c
  8722  011B84                     l281:
  8723                           
  8724                           ;countdown.c: 86: if(strCountdownInitialTime[i]=='4'){numCountdownInitialTime[i-2] = 4;}
  8725  011B84  0E6C               	movlw	low _strCountdownInitialTime
  8726  011B86  2432               	addwf	countdown_initial_str2num@i,w,c
  8727  011B88  6ED9               	movwf	16345,c
  8728  011B8A  0E00               	movlw	high _strCountdownInitialTime
  8729  011B8C  2033               	addwfc	countdown_initial_str2num@i+1,w,c
  8730  011B8E  6EDA               	movwf	16346,c
  8731  011B90  0E34               	movlw	52
  8732  011B92  18DE               	xorwf	16350,w,c
  8733  011B94  A4D8               	btfss	16344,2,c
  8734  011B96  D01B               	goto	l282
  8735  011B98  0EFC               	movlw	252
  8736  011B9A  6E2E               	movwf	??_countdown_initial_str2num& (0+255),c
  8737  011B9C  0EFF               	movlw	255
  8738  011B9E  6E2F               	movwf	(??_countdown_initial_str2num+1)& (0+255),c
  8739  011BA0  0060  F0C8  F030   	movff	countdown_initial_str2num@i,??_countdown_initial_str2num+2
  8740  011BA6  0060  F0CC  F031   	movff	countdown_initial_str2num@i+1,??_countdown_initial_str2num+3
  8741  011BAC  90D8               	bcf	16344,0,c
  8742  011BAE  3630               	rlcf	??_countdown_initial_str2num+2,f,c
  8743  011BB0  3631               	rlcf	??_countdown_initial_str2num+3,f,c
  8744  011BB2  502E               	movf	??_countdown_initial_str2num,w,c
  8745  011BB4  2630               	addwf	??_countdown_initial_str2num+2,f,c
  8746  011BB6  502F               	movf	??_countdown_initial_str2num+1,w,c
  8747  011BB8  2231               	addwfc	??_countdown_initial_str2num+3,f,c
  8748  011BBA  0E60               	movlw	low _numCountdownInitialTime
  8749  011BBC  2430               	addwf	??_countdown_initial_str2num+2,w,c
  8750  011BBE  6ED9               	movwf	16345,c
  8751  011BC0  0E00               	movlw	high _numCountdownInitialTime
  8752  011BC2  2031               	addwfc	??_countdown_initial_str2num+3,w,c
  8753  011BC4  6EDA               	movwf	16346,c
  8754  011BC6  0E04               	movlw	4
  8755  011BC8  6EDE               	movwf	16350,c
  8756  011BCA  0E00               	movlw	0
  8757  011BCC  6EDD               	movwf	16349,c
  8758  011BCE                     l282:
  8759                           
  8760                           ;countdown.c: 87: if(strCountdownInitialTime[i]=='5'){numCountdownInitialTime[i-2] = 5;}
  8761  011BCE  0E6C               	movlw	low _strCountdownInitialTime
  8762  011BD0  2432               	addwf	countdown_initial_str2num@i,w,c
  8763  011BD2  6ED9               	movwf	16345,c
  8764  011BD4  0E00               	movlw	high _strCountdownInitialTime
  8765  011BD6  2033               	addwfc	countdown_initial_str2num@i+1,w,c
  8766  011BD8  6EDA               	movwf	16346,c
  8767  011BDA  0E35               	movlw	53
  8768  011BDC  18DE               	xorwf	16350,w,c
  8769  011BDE  A4D8               	btfss	16344,2,c
  8770  011BE0  D01B               	goto	l283
  8771  011BE2  0EFC               	movlw	252
  8772  011BE4  6E2E               	movwf	??_countdown_initial_str2num& (0+255),c
  8773  011BE6  0EFF               	movlw	255
  8774  011BE8  6E2F               	movwf	(??_countdown_initial_str2num+1)& (0+255),c
  8775  011BEA  0060  F0C8  F030   	movff	countdown_initial_str2num@i,??_countdown_initial_str2num+2
  8776  011BF0  0060  F0CC  F031   	movff	countdown_initial_str2num@i+1,??_countdown_initial_str2num+3
  8777  011BF6  90D8               	bcf	16344,0,c
  8778  011BF8  3630               	rlcf	??_countdown_initial_str2num+2,f,c
  8779  011BFA  3631               	rlcf	??_countdown_initial_str2num+3,f,c
  8780  011BFC  502E               	movf	??_countdown_initial_str2num,w,c
  8781  011BFE  2630               	addwf	??_countdown_initial_str2num+2,f,c
  8782  011C00  502F               	movf	??_countdown_initial_str2num+1,w,c
  8783  011C02  2231               	addwfc	??_countdown_initial_str2num+3,f,c
  8784  011C04  0E60               	movlw	low _numCountdownInitialTime
  8785  011C06  2430               	addwf	??_countdown_initial_str2num+2,w,c
  8786  011C08  6ED9               	movwf	16345,c
  8787  011C0A  0E00               	movlw	high _numCountdownInitialTime
  8788  011C0C  2031               	addwfc	??_countdown_initial_str2num+3,w,c
  8789  011C0E  6EDA               	movwf	16346,c
  8790  011C10  0E05               	movlw	5
  8791  011C12  6EDE               	movwf	16350,c
  8792  011C14  0E00               	movlw	0
  8793  011C16  6EDD               	movwf	16349,c
  8794  011C18                     l283:
  8795                           
  8796                           ;countdown.c: 88: if(strCountdownInitialTime[i]=='6'){numCountdownInitialTime[i-2] = 6;}
  8797  011C18  0E6C               	movlw	low _strCountdownInitialTime
  8798  011C1A  2432               	addwf	countdown_initial_str2num@i,w,c
  8799  011C1C  6ED9               	movwf	16345,c
  8800  011C1E  0E00               	movlw	high _strCountdownInitialTime
  8801  011C20  2033               	addwfc	countdown_initial_str2num@i+1,w,c
  8802  011C22  6EDA               	movwf	16346,c
  8803  011C24  0E36               	movlw	54
  8804  011C26  18DE               	xorwf	16350,w,c
  8805  011C28  A4D8               	btfss	16344,2,c
  8806  011C2A  D01B               	goto	l284
  8807  011C2C  0EFC               	movlw	252
  8808  011C2E  6E2E               	movwf	??_countdown_initial_str2num& (0+255),c
  8809  011C30  0EFF               	movlw	255
  8810  011C32  6E2F               	movwf	(??_countdown_initial_str2num+1)& (0+255),c
  8811  011C34  0060  F0C8  F030   	movff	countdown_initial_str2num@i,??_countdown_initial_str2num+2
  8812  011C3A  0060  F0CC  F031   	movff	countdown_initial_str2num@i+1,??_countdown_initial_str2num+3
  8813  011C40  90D8               	bcf	16344,0,c
  8814  011C42  3630               	rlcf	??_countdown_initial_str2num+2,f,c
  8815  011C44  3631               	rlcf	??_countdown_initial_str2num+3,f,c
  8816  011C46  502E               	movf	??_countdown_initial_str2num,w,c
  8817  011C48  2630               	addwf	??_countdown_initial_str2num+2,f,c
  8818  011C4A  502F               	movf	??_countdown_initial_str2num+1,w,c
  8819  011C4C  2231               	addwfc	??_countdown_initial_str2num+3,f,c
  8820  011C4E  0E60               	movlw	low _numCountdownInitialTime
  8821  011C50  2430               	addwf	??_countdown_initial_str2num+2,w,c
  8822  011C52  6ED9               	movwf	16345,c
  8823  011C54  0E00               	movlw	high _numCountdownInitialTime
  8824  011C56  2031               	addwfc	??_countdown_initial_str2num+3,w,c
  8825  011C58  6EDA               	movwf	16346,c
  8826  011C5A  0E06               	movlw	6
  8827  011C5C  6EDE               	movwf	16350,c
  8828  011C5E  0E00               	movlw	0
  8829  011C60  6EDD               	movwf	16349,c
  8830  011C62                     l284:
  8831                           
  8832                           ;countdown.c: 89: if(strCountdownInitialTime[i]=='7'){numCountdownInitialTime[i-2] = 7;}
  8833  011C62  0E6C               	movlw	low _strCountdownInitialTime
  8834  011C64  2432               	addwf	countdown_initial_str2num@i,w,c
  8835  011C66  6ED9               	movwf	16345,c
  8836  011C68  0E00               	movlw	high _strCountdownInitialTime
  8837  011C6A  2033               	addwfc	countdown_initial_str2num@i+1,w,c
  8838  011C6C  6EDA               	movwf	16346,c
  8839  011C6E  0E37               	movlw	55
  8840  011C70  18DE               	xorwf	16350,w,c
  8841  011C72  A4D8               	btfss	16344,2,c
  8842  011C74  D01B               	goto	l285
  8843  011C76  0EFC               	movlw	252
  8844  011C78  6E2E               	movwf	??_countdown_initial_str2num& (0+255),c
  8845  011C7A  0EFF               	movlw	255
  8846  011C7C  6E2F               	movwf	(??_countdown_initial_str2num+1)& (0+255),c
  8847  011C7E  0060  F0C8  F030   	movff	countdown_initial_str2num@i,??_countdown_initial_str2num+2
  8848  011C84  0060  F0CC  F031   	movff	countdown_initial_str2num@i+1,??_countdown_initial_str2num+3
  8849  011C8A  90D8               	bcf	16344,0,c
  8850  011C8C  3630               	rlcf	??_countdown_initial_str2num+2,f,c
  8851  011C8E  3631               	rlcf	??_countdown_initial_str2num+3,f,c
  8852  011C90  502E               	movf	??_countdown_initial_str2num,w,c
  8853  011C92  2630               	addwf	??_countdown_initial_str2num+2,f,c
  8854  011C94  502F               	movf	??_countdown_initial_str2num+1,w,c
  8855  011C96  2231               	addwfc	??_countdown_initial_str2num+3,f,c
  8856  011C98  0E60               	movlw	low _numCountdownInitialTime
  8857  011C9A  2430               	addwf	??_countdown_initial_str2num+2,w,c
  8858  011C9C  6ED9               	movwf	16345,c
  8859  011C9E  0E00               	movlw	high _numCountdownInitialTime
  8860  011CA0  2031               	addwfc	??_countdown_initial_str2num+3,w,c
  8861  011CA2  6EDA               	movwf	16346,c
  8862  011CA4  0E07               	movlw	7
  8863  011CA6  6EDE               	movwf	16350,c
  8864  011CA8  0E00               	movlw	0
  8865  011CAA  6EDD               	movwf	16349,c
  8866  011CAC                     l285:
  8867                           
  8868                           ;countdown.c: 90: if(strCountdownInitialTime[i]=='8'){numCountdownInitialTime[i-2] = 8;}
  8869  011CAC  0E6C               	movlw	low _strCountdownInitialTime
  8870  011CAE  2432               	addwf	countdown_initial_str2num@i,w,c
  8871  011CB0  6ED9               	movwf	16345,c
  8872  011CB2  0E00               	movlw	high _strCountdownInitialTime
  8873  011CB4  2033               	addwfc	countdown_initial_str2num@i+1,w,c
  8874  011CB6  6EDA               	movwf	16346,c
  8875  011CB8  0E38               	movlw	56
  8876  011CBA  18DE               	xorwf	16350,w,c
  8877  011CBC  A4D8               	btfss	16344,2,c
  8878  011CBE  D01B               	goto	l286
  8879  011CC0  0EFC               	movlw	252
  8880  011CC2  6E2E               	movwf	??_countdown_initial_str2num& (0+255),c
  8881  011CC4  0EFF               	movlw	255
  8882  011CC6  6E2F               	movwf	(??_countdown_initial_str2num+1)& (0+255),c
  8883  011CC8  0060  F0C8  F030   	movff	countdown_initial_str2num@i,??_countdown_initial_str2num+2
  8884  011CCE  0060  F0CC  F031   	movff	countdown_initial_str2num@i+1,??_countdown_initial_str2num+3
  8885  011CD4  90D8               	bcf	16344,0,c
  8886  011CD6  3630               	rlcf	??_countdown_initial_str2num+2,f,c
  8887  011CD8  3631               	rlcf	??_countdown_initial_str2num+3,f,c
  8888  011CDA  502E               	movf	??_countdown_initial_str2num,w,c
  8889  011CDC  2630               	addwf	??_countdown_initial_str2num+2,f,c
  8890  011CDE  502F               	movf	??_countdown_initial_str2num+1,w,c
  8891  011CE0  2231               	addwfc	??_countdown_initial_str2num+3,f,c
  8892  011CE2  0E60               	movlw	low _numCountdownInitialTime
  8893  011CE4  2430               	addwf	??_countdown_initial_str2num+2,w,c
  8894  011CE6  6ED9               	movwf	16345,c
  8895  011CE8  0E00               	movlw	high _numCountdownInitialTime
  8896  011CEA  2031               	addwfc	??_countdown_initial_str2num+3,w,c
  8897  011CEC  6EDA               	movwf	16346,c
  8898  011CEE  0E08               	movlw	8
  8899  011CF0  6EDE               	movwf	16350,c
  8900  011CF2  0E00               	movlw	0
  8901  011CF4  6EDD               	movwf	16349,c
  8902  011CF6                     l286:
  8903                           
  8904                           ;countdown.c: 91: if(strCountdownInitialTime[i]=='9'){numCountdownInitialTime[i-2] = 9;}
  8905  011CF6  0E6C               	movlw	low _strCountdownInitialTime
  8906  011CF8  2432               	addwf	countdown_initial_str2num@i,w,c
  8907  011CFA  6ED9               	movwf	16345,c
  8908  011CFC  0E00               	movlw	high _strCountdownInitialTime
  8909  011CFE  2033               	addwfc	countdown_initial_str2num@i+1,w,c
  8910  011D00  6EDA               	movwf	16346,c
  8911  011D02  0E39               	movlw	57
  8912  011D04  18DE               	xorwf	16350,w,c
  8913  011D06  A4D8               	btfss	16344,2,c
  8914  011D08  D01B               	goto	l287
  8915  011D0A  0EFC               	movlw	252
  8916  011D0C  6E2E               	movwf	??_countdown_initial_str2num& (0+255),c
  8917  011D0E  0EFF               	movlw	255
  8918  011D10  6E2F               	movwf	(??_countdown_initial_str2num+1)& (0+255),c
  8919  011D12  0060  F0C8  F030   	movff	countdown_initial_str2num@i,??_countdown_initial_str2num+2
  8920  011D18  0060  F0CC  F031   	movff	countdown_initial_str2num@i+1,??_countdown_initial_str2num+3
  8921  011D1E  90D8               	bcf	16344,0,c
  8922  011D20  3630               	rlcf	??_countdown_initial_str2num+2,f,c
  8923  011D22  3631               	rlcf	??_countdown_initial_str2num+3,f,c
  8924  011D24  502E               	movf	??_countdown_initial_str2num,w,c
  8925  011D26  2630               	addwf	??_countdown_initial_str2num+2,f,c
  8926  011D28  502F               	movf	??_countdown_initial_str2num+1,w,c
  8927  011D2A  2231               	addwfc	??_countdown_initial_str2num+3,f,c
  8928  011D2C  0E60               	movlw	low _numCountdownInitialTime
  8929  011D2E  2430               	addwf	??_countdown_initial_str2num+2,w,c
  8930  011D30  6ED9               	movwf	16345,c
  8931  011D32  0E00               	movlw	high _numCountdownInitialTime
  8932  011D34  2031               	addwfc	??_countdown_initial_str2num+3,w,c
  8933  011D36  6EDA               	movwf	16346,c
  8934  011D38  0E09               	movlw	9
  8935  011D3A  6EDE               	movwf	16350,c
  8936  011D3C  0E00               	movlw	0
  8937  011D3E  6EDD               	movwf	16349,c
  8938  011D40                     l287:
  8939  011D40  4A32               	infsnz	countdown_initial_str2num@i,f,c
  8940  011D42  2A33               	incf	countdown_initial_str2num@i+1,f,c
  8941  011D44  BE33               	btfsc	countdown_initial_str2num@i+1,7,c
  8942  011D46  D416               	goto	l247
  8943  011D48  5033               	movf	countdown_initial_str2num@i+1,w,c
  8944  011D4A  E101               	bnz	l288
  8945  011D4C  D40D               	goto	L16
  8946  011D4E                     l288:
  8947  011D4E  0012               	return		;funcret
  8948  011D50                     __end_of_countdown_initial_str2num:
  8949                           	opt stack 0
  8950                           
  8951 ;; *************** function _countdownStop *****************
  8952 ;; Defined at:
  8953 ;;		line 32 in file "countdown.c"
  8954 ;; Parameters:    Size  Location     Type
  8955 ;;		None
  8956 ;; Auto vars:     Size  Location     Type
  8957 ;;		None
  8958 ;; Return value:  Size  Location     Type
  8959 ;;                  1    wreg      void 
  8960 ;; Registers used:
  8961 ;;		None
  8962 ;; Tracked objects:
  8963 ;;		On entry : 0/0
  8964 ;;		On exit  : 0/0
  8965 ;;		Unchanged: 0/0
  8966 ;; Data sizes:     COMRAM   BANK0   BANK1   BANK2   BANK3   BANK4   BANK5   BANK6   BANK7   BANK8   BANK9  BANK10  BANK1
      +1  BANK12  BANK13  BANK14  BANK15  BANK16  BANK17  BANK18  BANK19  BANK20  BANK21  BANK22  BANK23  BANK24  BANK25  BANK2
      +6  BANK27  BANK28  BANK29  BANK30  BANK31
  8967 ;;      Params:         0       0       0       0       0       0       0       0       0       0       0       0       
      +0       0       0       0       0       0       0       0       0       0       0       0       0       0       0       
      +0       0       0       0       0       0
  8968 ;;      Locals:         0       0       0       0       0       0       0       0       0       0       0       0       
      +0       0       0       0       0       0       0       0       0       0       0       0       0       0       0       
      +0       0       0       0       0       0
  8969 ;;      Temps:          0       0       0       0       0       0       0       0       0       0       0       0       
      +0       0       0       0       0       0       0       0       0       0       0       0       0       0       0       
      +0       0       0       0       0       0
  8970 ;;      Totals:         0       0       0       0       0       0       0       0       0       0       0       0       
      +0       0       0       0       0       0       0       0       0       0       0       0       0       0       0       
      +0       0       0       0       0       0
  8971 ;;Total ram usage:        0 bytes
  8972 ;; Hardware stack levels used:    1
  8973 ;; Hardware stack levels required when called:    5
  8974 ;; This function calls:
  8975 ;;		Nothing
  8976 ;; This function is called by:
  8977 ;;		_main
  8978 ;; This function uses a non-reentrant model
  8979 ;;
  8980                           
  8981                           	psect	text34
  8982  0134CC                     __ptext34:
  8983                           	opt stack 0
  8984  0134CC                     _countdownStop:
  8985                           	opt stack 25
  8986                           
  8987                           ;countdown.c: 34: T0CON0bits.EN = 0;
  8988                           
  8989                           ;incstack = 0
  8990  0134CC  013F               	movlb	63	; () banked
  8991  0134CE  9FB8               	bcf	184,7,b	;volatile
  8992                           
  8993                           ; BSR set to: 63
  8994  0134D0  0012               	return		;funcret
  8995  0134D2                     __end_of_countdownStop:
  8996                           	opt stack 0
  8997                           
  8998 ;; *************** function _countdownStart *****************
  8999 ;; Defined at:
  9000 ;;		line 25 in file "countdown.c"
  9001 ;; Parameters:    Size  Location     Type
  9002 ;;		None
  9003 ;; Auto vars:     Size  Location     Type
  9004 ;;		None
  9005 ;; Return value:  Size  Location     Type
  9006 ;;                  1    wreg      void 
  9007 ;; Registers used:
  9008 ;;		wreg, status,2
  9009 ;; Tracked objects:
  9010 ;;		On entry : 0/0
  9011 ;;		On exit  : 0/0
  9012 ;;		Unchanged: 0/0
  9013 ;; Data sizes:     COMRAM   BANK0   BANK1   BANK2   BANK3   BANK4   BANK5   BANK6   BANK7   BANK8   BANK9  BANK10  BANK1
      +1  BANK12  BANK13  BANK14  BANK15  BANK16  BANK17  BANK18  BANK19  BANK20  BANK21  BANK22  BANK23  BANK24  BANK25  BANK2
      +6  BANK27  BANK28  BANK29  BANK30  BANK31
  9014 ;;      Params:         0       0       0       0       0       0       0       0       0       0       0       0       
      +0       0       0       0       0       0       0       0       0       0       0       0       0       0       0       
      +0       0       0       0       0       0
  9015 ;;      Locals:         0       0       0       0       0       0       0       0       0       0       0       0       
      +0       0       0       0       0       0       0       0       0       0       0       0       0       0       0       
      +0       0       0       0       0       0
  9016 ;;      Temps:          0       0       0       0       0       0       0       0       0       0       0       0       
      +0       0       0       0       0       0       0       0       0       0       0       0       0       0       0       
      +0       0       0       0       0       0
  9017 ;;      Totals:         0       0       0       0       0       0       0       0       0       0       0       0       
      +0       0       0       0       0       0       0       0       0       0       0       0       0       0       0       
      +0       0       0       0       0       0
  9018 ;;Total ram usage:        0 bytes
  9019 ;; Hardware stack levels used:    1
  9020 ;; Hardware stack levels required when called:    5
  9021 ;; This function calls:
  9022 ;;		Nothing
  9023 ;; This function is called by:
  9024 ;;		_main
  9025 ;; This function uses a non-reentrant model
  9026 ;;
  9027                           
  9028                           	psect	text35
  9029  01347E                     __ptext35:
  9030                           	opt stack 0
  9031  01347E                     _countdownStart:
  9032                           	opt stack 25
  9033                           
  9034                           ;countdown.c: 27: TMR0H = 0x63;
  9035                           
  9036                           ; BSR set to: 63
  9037                           ;incstack = 0
  9038  01347E  0E63               	movlw	99
  9039  013480  013F               	movlb	63	; () banked
  9040  013482  6FB7               	movwf	183,b	;volatile
  9041                           
  9042                           ;countdown.c: 28: TMR0L = 0xBF;
  9043  013484  0EBF               	movlw	191
  9044  013486  6FB6               	movwf	182,b	;volatile
  9045                           
  9046                           ; BSR set to: 63
  9047                           ;countdown.c: 29: T0CON0bits.EN = 1;
  9048  013488  8FB8               	bsf	184,7,b	;volatile
  9049                           
  9050                           ; BSR set to: 63
  9051  01348A  0012               	return		;funcret
  9052  01348C                     __end_of_countdownStart:
  9053                           	opt stack 0
  9054                           
  9055 ;; *************** function _armedPageReset *****************
  9056 ;; Defined at:
  9057 ;;		line 69 in file "main.c"
  9058 ;; Parameters:    Size  Location     Type
  9059 ;;		None
  9060 ;; Auto vars:     Size  Location     Type
  9061 ;;		None
  9062 ;; Return value:  Size  Location     Type
  9063 ;;                  1    wreg      void 
  9064 ;; Registers used:
  9065 ;;		wreg, fsr2l, fsr2h, status,2, status,0, tblptrl, tblptrh, tblptru, cstack
  9066 ;; Tracked objects:
  9067 ;;		On entry : 0/0
  9068 ;;		On exit  : 0/0
  9069 ;;		Unchanged: 0/0
  9070 ;; Data sizes:     COMRAM   BANK0   BANK1   BANK2   BANK3   BANK4   BANK5   BANK6   BANK7   BANK8   BANK9  BANK10  BANK1
      +1  BANK12  BANK13  BANK14  BANK15  BANK16  BANK17  BANK18  BANK19  BANK20  BANK21  BANK22  BANK23  BANK24  BANK25  BANK2
      +6  BANK27  BANK28  BANK29  BANK30  BANK31
  9071 ;;      Params:         0       0       0       0       0       0       0       0       0       0       0       0       
      +0       0       0       0       0       0       0       0       0       0       0       0       0       0       0       
      +0       0       0       0       0       0
  9072 ;;      Locals:         0       0       0       0       0       0       0       0       0       0       0       0       
      +0       0       0       0       0       0       0       0       0       0       0       0       0       0       0       
      +0       0       0       0       0       0
  9073 ;;      Temps:          0       0       0       0       0       0       0       0       0       0       0       0       
      +0       0       0       0       0       0       0       0       0       0       0       0       0       0       0       
      +0       0       0       0       0       0
  9074 ;;      Totals:         0       0       0       0       0       0       0       0       0       0       0       0       
      +0       0       0       0       0       0       0       0       0       0       0       0       0       0       0       
      +0       0       0       0       0       0
  9075 ;;Total ram usage:        0 bytes
  9076 ;; Hardware stack levels used:    1
  9077 ;; Hardware stack levels required when called:    8
  9078 ;; This function calls:
  9079 ;;		_LCD_Set_Cursor
  9080 ;;		_LCD_Write_String
  9081 ;;		_LCD_resetPasswordEntry
  9082 ;;		_resetEntry
  9083 ;; This function is called by:
  9084 ;;		_main
  9085 ;; This function uses a non-reentrant model
  9086 ;;
  9087                           
  9088                           	psect	text36
  9089  0130B8                     __ptext36:
  9090                           	opt stack 0
  9091  0130B8                     _armedPageReset:
  9092                           	opt stack 22
  9093                           
  9094                           ;main.c: 71: LCD_Set_Cursor(1,1);
  9095                           
  9096                           ; BSR set to: 63
  9097                           ;incstack = 0
  9098  0130B8  0E00               	movlw	0
  9099  0130BA  6E30               	movwf	LCD_Set_Cursor@c+1,c
  9100  0130BC  0E01               	movlw	1
  9101  0130BE  6E2F               	movwf	LCD_Set_Cursor@c,c
  9102  0130C0  0E00               	movlw	0
  9103  0130C2  6E32               	movwf	LCD_Set_Cursor@d+1,c
  9104  0130C4  0E01               	movlw	1
  9105  0130C6  6E31               	movwf	LCD_Set_Cursor@d,c
  9106  0130C8  ECE1  F098         	call	_LCD_Set_Cursor	;wreg free
  9107                           
  9108                           ;main.c: 72: LCD_Write_String("ARMED ");
  9109  0130CC  0EF0               	movlw	low STR_11
  9110  0130CE  6E2F               	movwf	LCD_Write_String@f,c
  9111  0130D0  0EFF               	movlw	high STR_11
  9112  0130D2  6E30               	movwf	LCD_Write_String@f+1,c
  9113  0130D4  ECD8  F096         	call	_LCD_Write_String	;wreg free
  9114                           
  9115                           ;main.c: 73: keyIterrator = 0;
  9116  0130D8  0E00               	movlw	0
  9117  0130DA  6E4E               	movwf	_keyIterrator+1,c
  9118  0130DC  0E00               	movlw	0
  9119  0130DE  6E4D               	movwf	_keyIterrator,c
  9120                           
  9121                           ;main.c: 74: resetEntry(userPswdEntry);
  9122  0130E0  0E99               	movlw	low _userPswdEntry
  9123  0130E2  6E34               	movwf	resetEntry@str,c
  9124  0130E4  0E00               	movlw	high _userPswdEntry
  9125  0130E6  6E35               	movwf	resetEntry@str+1,c
  9126  0130E8  EC21  F098         	call	_resetEntry	;wreg free
  9127                           
  9128                           ;main.c: 75: LCD_resetPasswordEntry();
  9129  0130EC  EC95  F098         	call	_LCD_resetPasswordEntry	;wreg free
  9130  0130F0  0012               	return		;funcret
  9131  0130F2                     __end_of_armedPageReset:
  9132                           	opt stack 0
  9133                           
  9134 ;; *************** function _resetEntry *****************
  9135 ;; Defined at:
  9136 ;;		line 35 in file "main.c"
  9137 ;; Parameters:    Size  Location     Type
  9138 ;;  str             2   18[COMRAM] PTR unsigned char 
  9139 ;;		 -> userPswdEntry(8), 
  9140 ;; Auto vars:     Size  Location     Type
  9141 ;;  i               2   20[COMRAM] int 
  9142 ;; Return value:  Size  Location     Type
  9143 ;;                  1    wreg      void 
  9144 ;; Registers used:
  9145 ;;		wreg, fsr2l, fsr2h, status,2, status,0, cstack
  9146 ;; Tracked objects:
  9147 ;;		On entry : 0/0
  9148 ;;		On exit  : 0/0
  9149 ;;		Unchanged: 0/0
  9150 ;; Data sizes:     COMRAM   BANK0   BANK1   BANK2   BANK3   BANK4   BANK5   BANK6   BANK7   BANK8   BANK9  BANK10  BANK1
      +1  BANK12  BANK13  BANK14  BANK15  BANK16  BANK17  BANK18  BANK19  BANK20  BANK21  BANK22  BANK23  BANK24  BANK25  BANK2
      +6  BANK27  BANK28  BANK29  BANK30  BANK31
  9151 ;;      Params:         2       0       0       0       0       0       0       0       0       0       0       0       
      +0       0       0       0       0       0       0       0       0       0       0       0       0       0       0       
      +0       0       0       0       0       0
  9152 ;;      Locals:         2       0       0       0       0       0       0       0       0       0       0       0       
      +0       0       0       0       0       0       0       0       0       0       0       0       0       0       0       
      +0       0       0       0       0       0
  9153 ;;      Temps:          0       0       0       0       0       0       0       0       0       0       0       0       
      +0       0       0       0       0       0       0       0       0       0       0       0       0       0       0       
      +0       0       0       0       0       0
  9154 ;;      Totals:         4       0       0       0       0       0       0       0       0       0       0       0       
      +0       0       0       0       0       0       0       0       0       0       0       0       0       0       0       
      +0       0       0       0       0       0
  9155 ;;Total ram usage:        4 bytes
  9156 ;; Hardware stack levels used:    1
  9157 ;; Hardware stack levels required when called:    6
  9158 ;; This function calls:
  9159 ;;		_strlen
  9160 ;; This function is called by:
  9161 ;;		_stanbyPageReset
  9162 ;;		_armedPageReset
  9163 ;;		_disarmedPageReset
  9164 ;;		_main
  9165 ;; This function uses a non-reentrant model
  9166 ;;
  9167                           
  9168                           	psect	text37
  9169  013042                     __ptext37:
  9170                           	opt stack 0
  9171  013042                     _resetEntry:
  9172                           	opt stack 23
  9173                           
  9174                           ;main.c: 37: for(int i=0;i<=strlen(str);i++)
  9175                           
  9176                           ;incstack = 0
  9177  013042  0E00               	movlw	0
  9178  013044  6E37               	movwf	resetEntry@i+1,c
  9179  013046  0E00               	movlw	0
  9180  013048  6E36               	movwf	resetEntry@i,c
  9181  01304A  D00A               	goto	l730
  9182  01304C                     
  9183                           ;main.c: 38: {;main.c: 39: str[i]=0;
  9184  01304C  5036               	movf	resetEntry@i,w,c
  9185  01304E  2434               	addwf	resetEntry@str,w,c
  9186  013050  6ED9               	movwf	16345,c
  9187  013052  5037               	movf	resetEntry@i+1,w,c
  9188  013054  2035               	addwfc	resetEntry@str+1,w,c
  9189  013056  6EDA               	movwf	16346,c
  9190  013058  0E00               	movlw	0
  9191  01305A  6EDF               	movwf	16351,c
  9192  01305C  4A36               	infsnz	resetEntry@i,f,c
  9193  01305E  2A37               	incf	resetEntry@i+1,f,c
  9194  013060                     l730:
  9195  013060  0060  F0D0  F02E   	movff	resetEntry@str,strlen@s
  9196  013066  0060  F0D4  F02F   	movff	resetEntry@str+1,strlen@s+1
  9197  01306C  ECBC  F097         	call	_strlen	;wreg free
  9198  013070  5036               	movf	resetEntry@i,w,c
  9199  013072  5C2E               	subwf	?_strlen,w,c
  9200  013074  5037               	movf	resetEntry@i+1,w,c
  9201  013076  582F               	subwfb	?_strlen+1,w,c
  9202  013078  A0D8               	btfss	16344,0,c
  9203  01307A  0012               	return	
  9204  01307C  D7E7               	goto	l731
  9205  01307E                     __end_of_resetEntry:
  9206                           	opt stack 0
  9207                           
  9208 ;; *************** function _strlen *****************
  9209 ;; Defined at:
  9210 ;;		line 4 in file "C:\Program Files (x86)\Microchip\xc8\v2.00\pic\sources\c90\common\strlen.c"
  9211 ;; Parameters:    Size  Location     Type
  9212 ;;  s               2   12[COMRAM] PTR const unsigned char 
  9213 ;;		 -> userPswdEntry(8), strCountdownNowTime(8), 
  9214 ;; Auto vars:     Size  Location     Type
  9215 ;;  cp              2   16[COMRAM] PTR const unsigned char 
  9216 ;;		 -> userPswdEntry(8), strCountdownNowTime(8), 
  9217 ;; Return value:  Size  Location     Type
  9218 ;;                  2   12[COMRAM] unsigned int 
  9219 ;; Registers used:
  9220 ;;		wreg, fsr2l, fsr2h, status,2, status,0
  9221 ;; Tracked objects:
  9222 ;;		On entry : 0/0
  9223 ;;		On exit  : 0/0
  9224 ;;		Unchanged: 0/0
  9225 ;; Data sizes:     COMRAM   BANK0   BANK1   BANK2   BANK3   BANK4   BANK5   BANK6   BANK7   BANK8   BANK9  BANK10  BANK1
      +1  BANK12  BANK13  BANK14  BANK15  BANK16  BANK17  BANK18  BANK19  BANK20  BANK21  BANK22  BANK23  BANK24  BANK25  BANK2
      +6  BANK27  BANK28  BANK29  BANK30  BANK31
  9226 ;;      Params:         2       0       0       0       0       0       0       0       0       0       0       0       
      +0       0       0       0       0       0       0       0       0       0       0       0       0       0       0       
      +0       0       0       0       0       0
  9227 ;;      Locals:         2       0       0       0       0       0       0       0       0       0       0       0       
      +0       0       0       0       0       0       0       0       0       0       0       0       0       0       0       
      +0       0       0       0       0       0
  9228 ;;      Temps:          2       0       0       0       0       0       0       0       0       0       0       0       
      +0       0       0       0       0       0       0       0       0       0       0       0       0       0       0       
      +0       0       0       0       0       0
  9229 ;;      Totals:         6       0       0       0       0       0       0       0       0       0       0       0       
      +0       0       0       0       0       0       0       0       0       0       0       0       0       0       0       
      +0       0       0       0       0       0
  9230 ;;Total ram usage:        6 bytes
  9231 ;; Hardware stack levels used:    1
  9232 ;; Hardware stack levels required when called:    5
  9233 ;; This function calls:
  9234 ;;		Nothing
  9235 ;; This function is called by:
  9236 ;;		_resetEntry
  9237 ;;		_serialPrint
  9238 ;; This function uses a non-reentrant model
  9239 ;;
  9240                           
  9241                           	psect	text38
  9242  012F78                     __ptext38:
  9243                           	opt stack 0
  9244  012F78                     _strlen:
  9245                           	opt stack 23
  9246                           
  9247                           ;incstack = 0
  9248  012F78  0060  F0B8  F032   	movff	strlen@s,strlen@cp
  9249  012F7E  0060  F0BC  F033   	movff	strlen@s+1,strlen@cp+1
  9250  012F84  D002               	goto	l1838
  9251  012F86  4A32               	infsnz	strlen@cp,f,c
  9252  012F88  2A33               	incf	strlen@cp+1,f,c
  9253  012F8A                     l1838:
  9254  012F8A  0060  F0CB  FFD9   	movff	strlen@cp,16345
  9255  012F90  0060  F0CF  FFDA   	movff	strlen@cp+1,16346
  9256  012F96  50DF               	movf	16351,w,c
  9257  012F98  A4D8               	btfss	16344,2,c
  9258  012F9A  D7F5               	goto	l1839
  9259  012F9C  0060  F0B8  F030   	movff	strlen@s,??_strlen
  9260  012FA2  0060  F0BC  F031   	movff	strlen@s+1,??_strlen+1
  9261  012FA8  1E30               	comf	??_strlen,f,c
  9262  012FAA  1E31               	comf	??_strlen+1,f,c
  9263  012FAC  4A30               	infsnz	??_strlen,f,c
  9264  012FAE  2A31               	incf	??_strlen+1,f,c
  9265  012FB0  5032               	movf	strlen@cp,w,c
  9266  012FB2  2430               	addwf	??_strlen,w,c
  9267  012FB4  6E2E               	movwf	?_strlen,c
  9268  012FB6  5033               	movf	strlen@cp+1,w,c
  9269  012FB8  2031               	addwfc	??_strlen+1,w,c
  9270  012FBA  6E2F               	movwf	?_strlen+1,c
  9271  012FBC  0012               	return	
  9272  012FBE                     __end_of_strlen:
  9273                           	opt stack 0
  9274                           
  9275 ;; *************** function _LCD_resetPasswordEntry *****************
  9276 ;; Defined at:
  9277 ;;		line 172 in file "lcd.c"
  9278 ;; Parameters:    Size  Location     Type
  9279 ;;		None
  9280 ;; Auto vars:     Size  Location     Type
  9281 ;;		None
  9282 ;; Return value:  Size  Location     Type
  9283 ;;                  1    wreg      void 
  9284 ;; Registers used:
  9285 ;;		wreg, status,2, status,0, tblptrl, tblptrh, tblptru, cstack
  9286 ;; Tracked objects:
  9287 ;;		On entry : 0/0
  9288 ;;		On exit  : 0/0
  9289 ;;		Unchanged: 0/0
  9290 ;; Data sizes:     COMRAM   BANK0   BANK1   BANK2   BANK3   BANK4   BANK5   BANK6   BANK7   BANK8   BANK9  BANK10  BANK1
      +1  BANK12  BANK13  BANK14  BANK15  BANK16  BANK17  BANK18  BANK19  BANK20  BANK21  BANK22  BANK23  BANK24  BANK25  BANK2
      +6  BANK27  BANK28  BANK29  BANK30  BANK31
  9291 ;;      Params:         0       0       0       0       0       0       0       0       0       0       0       0       
      +0       0       0       0       0       0       0       0       0       0       0       0       0       0       0       
      +0       0       0       0       0       0
  9292 ;;      Locals:         0       0       0       0       0       0       0       0       0       0       0       0       
      +0       0       0       0       0       0       0       0       0       0       0       0       0       0       0       
      +0       0       0       0       0       0
  9293 ;;      Temps:          0       0       0       0       0       0       0       0       0       0       0       0       
      +0       0       0       0       0       0       0       0       0       0       0       0       0       0       0       
      +0       0       0       0       0       0
  9294 ;;      Totals:         0       0       0       0       0       0       0       0       0       0       0       0       
      +0       0       0       0       0       0       0       0       0       0       0       0       0       0       0       
      +0       0       0       0       0       0
  9295 ;;Total ram usage:        0 bytes
  9296 ;; Hardware stack levels used:    1
  9297 ;; Hardware stack levels required when called:    7
  9298 ;; This function calls:
  9299 ;;		_LCD_Set_Cursor
  9300 ;;		_LCD_Write_String
  9301 ;; This function is called by:
  9302 ;;		_stanbyPageReset
  9303 ;;		_armedPageReset
  9304 ;;		_disarmedPageReset
  9305 ;;		_main
  9306 ;; This function uses a non-reentrant model
  9307 ;;
  9308                           
  9309                           	psect	text39
  9310  01312A                     __ptext39:
  9311                           	opt stack 0
  9312  01312A                     _LCD_resetPasswordEntry:
  9313                           	opt stack 22
  9314                           
  9315                           ;lcd.c: 174: LCD_Set_Cursor(2,1);
  9316                           
  9317                           ;incstack = 0
  9318  01312A  0E00               	movlw	0
  9319  01312C  6E30               	movwf	LCD_Set_Cursor@c+1,c
  9320  01312E  0E02               	movlw	2
  9321  013130  6E2F               	movwf	LCD_Set_Cursor@c,c
  9322  013132  0E00               	movlw	0
  9323  013134  6E32               	movwf	LCD_Set_Cursor@d+1,c
  9324  013136  0E01               	movlw	1
  9325  013138  6E31               	movwf	LCD_Set_Cursor@d,c
  9326  01313A  ECE1  F098         	call	_LCD_Set_Cursor	;wreg free
  9327                           
  9328                           ;lcd.c: 175: LCD_Write_String("PASSWORD:       ");
  9329  01313E  0E9D               	movlw	low STR_9
  9330  013140  6E2F               	movwf	LCD_Write_String@f,c
  9331  013142  0EFF               	movlw	high STR_9
  9332  013144  6E30               	movwf	LCD_Write_String@f+1,c
  9333  013146  ECD8  F096         	call	_LCD_Write_String	;wreg free
  9334                           
  9335                           ;lcd.c: 176: LCD_Set_Cursor(2,10);
  9336  01314A  0E00               	movlw	0
  9337  01314C  6E30               	movwf	LCD_Set_Cursor@c+1,c
  9338  01314E  0E02               	movlw	2
  9339  013150  6E2F               	movwf	LCD_Set_Cursor@c,c
  9340  013152  0E00               	movlw	0
  9341  013154  6E32               	movwf	LCD_Set_Cursor@d+1,c
  9342  013156  0E0A               	movlw	10
  9343  013158  6E31               	movwf	LCD_Set_Cursor@d,c
  9344  01315A  ECE1  F098         	call	_LCD_Set_Cursor	;wreg free
  9345  01315E  0012               	return		;funcret
  9346  013160                     __end_of_LCD_resetPasswordEntry:
  9347                           	opt stack 0
  9348                           
  9349 ;; *************** function _armBeep *****************
  9350 ;; Defined at:
  9351 ;;		line 138 in file "beeper.c"
  9352 ;; Parameters:    Size  Location     Type
  9353 ;;		None
  9354 ;; Auto vars:     Size  Location     Type
  9355 ;;		None
  9356 ;; Return value:  Size  Location     Type
  9357 ;;                  1    wreg      void 
  9358 ;; Registers used:
  9359 ;;		wreg, status,2, cstack
  9360 ;; Tracked objects:
  9361 ;;		On entry : 0/0
  9362 ;;		On exit  : 0/0
  9363 ;;		Unchanged: 0/0
  9364 ;; Data sizes:     COMRAM   BANK0   BANK1   BANK2   BANK3   BANK4   BANK5   BANK6   BANK7   BANK8   BANK9  BANK10  BANK1
      +1  BANK12  BANK13  BANK14  BANK15  BANK16  BANK17  BANK18  BANK19  BANK20  BANK21  BANK22  BANK23  BANK24  BANK25  BANK2
      +6  BANK27  BANK28  BANK29  BANK30  BANK31
  9365 ;;      Params:         0       0       0       0       0       0       0       0       0       0       0       0       
      +0       0       0       0       0       0       0       0       0       0       0       0       0       0       0       
      +0       0       0       0       0       0
  9366 ;;      Locals:         0       0       0       0       0       0       0       0       0       0       0       0       
      +0       0       0       0       0       0       0       0       0       0       0       0       0       0       0       
      +0       0       0       0       0       0
  9367 ;;      Temps:          2       0       0       0       0       0       0       0       0       0       0       0       
      +0       0       0       0       0       0       0       0       0       0       0       0       0       0       0       
      +0       0       0       0       0       0
  9368 ;;      Totals:         2       0       0       0       0       0       0       0       0       0       0       0       
      +0       0       0       0       0       0       0       0       0       0       0       0       0       0       0       
      +0       0       0       0       0       0
  9369 ;;Total ram usage:        2 bytes
  9370 ;; Hardware stack levels used:    1
  9371 ;; Hardware stack levels required when called:    6
  9372 ;; This function calls:
  9373 ;;		_veryLowBeep
  9374 ;; This function is called by:
  9375 ;;		_main
  9376 ;; This function uses a non-reentrant model
  9377 ;;
  9378                           
  9379                           	psect	text40
  9380  01333C                     __ptext40:
  9381                           	opt stack 0
  9382  01333C                     _armBeep:
  9383                           	opt stack 24
  9384                           
  9385                           ;beeper.c: 140: veryLowBeep();
  9386                           
  9387                           ;incstack = 0
  9388  01333C  EC0A  F09A         	call	_veryLowBeep	;wreg free
  9389                           
  9390                           ;beeper.c: 141: _delay((unsigned long)((110)*(8000000/4000.0)));
  9391  013340  0E02               	movlw	2
  9392  013342  6E2F               	movwf	(??_armBeep+1)& (0+255),c
  9393  013344  0E1E               	movlw	30
  9394  013346  6E2E               	movwf	??_armBeep& (0+255),c
  9395  013348  0EB4               	movlw	180
  9396  01334A                     u9697:
  9397  01334A  2EE8               	decfsz	16360,f,c
  9398  01334C  D7FE               	bra	u9697
  9399  01334E  2E2E               	decfsz	??_armBeep& (0+255),f,c
  9400  013350  D7FC               	bra	u9697
  9401  013352  2E2F               	decfsz	(??_armBeep+1)& (0+255),f,c
  9402  013354  D7FA               	bra	u9697
  9403                           
  9404                           ;beeper.c: 142: veryLowBeep();
  9405  013356  EC0A  F09A         	call	_veryLowBeep	;wreg free
  9406  01335A  0012               	return		;funcret
  9407  01335C                     __end_of_armBeep:
  9408                           	opt stack 0
  9409                           
  9410 ;; *************** function _veryLowBeep *****************
  9411 ;; Defined at:
  9412 ;;		line 128 in file "beeper.c"
  9413 ;; Parameters:    Size  Location     Type
  9414 ;;		None
  9415 ;; Auto vars:     Size  Location     Type
  9416 ;;		None
  9417 ;; Return value:  Size  Location     Type
  9418 ;;                  1    wreg      void 
  9419 ;; Registers used:
  9420 ;;		wreg, status,2
  9421 ;; Tracked objects:
  9422 ;;		On entry : 0/0
  9423 ;;		On exit  : 0/0
  9424 ;;		Unchanged: 0/0
  9425 ;; Data sizes:     COMRAM   BANK0   BANK1   BANK2   BANK3   BANK4   BANK5   BANK6   BANK7   BANK8   BANK9  BANK10  BANK1
      +1  BANK12  BANK13  BANK14  BANK15  BANK16  BANK17  BANK18  BANK19  BANK20  BANK21  BANK22  BANK23  BANK24  BANK25  BANK2
      +6  BANK27  BANK28  BANK29  BANK30  BANK31
  9426 ;;      Params:         0       0       0       0       0       0       0       0       0       0       0       0       
      +0       0       0       0       0       0       0       0       0       0       0       0       0       0       0       
      +0       0       0       0       0       0
  9427 ;;      Locals:         0       0       0       0       0       0       0       0       0       0       0       0       
      +0       0       0       0       0       0       0       0       0       0       0       0       0       0       0       
      +0       0       0       0       0       0
  9428 ;;      Temps:          0       0       0       0       0       0       0       0       0       0       0       0       
      +0       0       0       0       0       0       0       0       0       0       0       0       0       0       0       
      +0       0       0       0       0       0
  9429 ;;      Totals:         0       0       0       0       0       0       0       0       0       0       0       0       
      +0       0       0       0       0       0       0       0       0       0       0       0       0       0       0       
      +0       0       0       0       0       0
  9430 ;;Total ram usage:        0 bytes
  9431 ;; Hardware stack levels used:    1
  9432 ;; Hardware stack levels required when called:    5
  9433 ;; This function calls:
  9434 ;;		Nothing
  9435 ;; This function is called by:
  9436 ;;		_armBeep
  9437 ;;		_disarmBeep
  9438 ;; This function uses a non-reentrant model
  9439 ;;
  9440                           
  9441                           	psect	text41
  9442  013414                     __ptext41:
  9443                           	opt stack 0
  9444  013414                     _veryLowBeep:
  9445                           	opt stack 24
  9446                           
  9447                           ;beeper.c: 130: T2PR = 0xFF;
  9448                           
  9449                           ;incstack = 0
  9450  013414  013F               	movlb	63	; () banked
  9451  013416  69AB               	setf	171,b	;volatile
  9452                           
  9453                           ; BSR set to: 63
  9454                           ;beeper.c: 131: TMR1H = 0xCE;
  9455  013418  0ECE               	movlw	206
  9456  01341A  6FB1               	movwf	177,b	;volatile
  9457                           
  9458                           ;beeper.c: 132: TMR1L = 0x57;
  9459  01341C  0E57               	movlw	87
  9460  01341E  6FB0               	movwf	176,b	;volatile
  9461                           
  9462                           ; BSR set to: 63
  9463                           ;beeper.c: 133: PWM5CONbits.EN = 1;
  9464  013420  8F6E               	bsf	110,7,b	;volatile
  9465                           
  9466                           ; BSR set to: 63
  9467                           ;beeper.c: 134: LATAbits.LATA0 = 1;
  9468  013422  81BA               	bsf	186,0,b	;volatile
  9469                           
  9470                           ; BSR set to: 63
  9471                           ;beeper.c: 135: T1CONbits.ON = 1;
  9472  013424  81B2               	bsf	178,0,b	;volatile
  9473                           
  9474                           ; BSR set to: 63
  9475  013426  0012               	return		;funcret
  9476  013428                     __end_of_veryLowBeep:
  9477                           	opt stack 0
  9478                           
  9479 ;; *************** function _LCD_printInitialCountdown *****************
  9480 ;; Defined at:
  9481 ;;		line 162 in file "lcd.c"
  9482 ;; Parameters:    Size  Location     Type
  9483 ;;		None
  9484 ;; Auto vars:     Size  Location     Type
  9485 ;;  i               2   18[COMRAM] int 
  9486 ;; Return value:  Size  Location     Type
  9487 ;;                  1    wreg      void 
  9488 ;; Registers used:
  9489 ;;		wreg, fsr2l, fsr2h, status,2, status,0, cstack
  9490 ;; Tracked objects:
  9491 ;;		On entry : 0/0
  9492 ;;		On exit  : 0/0
  9493 ;;		Unchanged: 0/0
  9494 ;; Data sizes:     COMRAM   BANK0   BANK1   BANK2   BANK3   BANK4   BANK5   BANK6   BANK7   BANK8   BANK9  BANK10  BANK1
      +1  BANK12  BANK13  BANK14  BANK15  BANK16  BANK17  BANK18  BANK19  BANK20  BANK21  BANK22  BANK23  BANK24  BANK25  BANK2
      +6  BANK27  BANK28  BANK29  BANK30  BANK31
  9495 ;;      Params:         0       0       0       0       0       0       0       0       0       0       0       0       
      +0       0       0       0       0       0       0       0       0       0       0       0       0       0       0       
      +0       0       0       0       0       0
  9496 ;;      Locals:         2       0       0       0       0       0       0       0       0       0       0       0       
      +0       0       0       0       0       0       0       0       0       0       0       0       0       0       0       
      +0       0       0       0       0       0
  9497 ;;      Temps:          0       0       0       0       0       0       0       0       0       0       0       0       
      +0       0       0       0       0       0       0       0       0       0       0       0       0       0       0       
      +0       0       0       0       0       0
  9498 ;;      Totals:         2       0       0       0       0       0       0       0       0       0       0       0       
      +0       0       0       0       0       0       0       0       0       0       0       0       0       0       0       
      +0       0       0       0       0       0
  9499 ;;Total ram usage:        2 bytes
  9500 ;; Hardware stack levels used:    1
  9501 ;; Hardware stack levels required when called:    7
  9502 ;; This function calls:
  9503 ;;		_LCD_Set_Cursor
  9504 ;;		_LCD_Write_Char
  9505 ;; This function is called by:
  9506 ;;		_main
  9507 ;; This function uses a non-reentrant model
  9508 ;;
  9509                           
  9510                           	psect	text42
  9511  012E9E                     __ptext42:
  9512                           	opt stack 0
  9513  012E9E                     _LCD_printInitialCountdown:
  9514                           	opt stack 23
  9515                           
  9516                           ;lcd.c: 164: for(int i=0;i<=7;i++)
  9517                           
  9518                           ; BSR set to: 63
  9519                           ;incstack = 0
  9520  012E9E  0E00               	movlw	0
  9521  012EA0  6E35               	movwf	LCD_printInitialCountdown@i+1,c
  9522  012EA2  0E00               	movlw	0
  9523  012EA4  6E34               	movwf	LCD_printInitialCountdown@i,c
  9524  012EA6                     l6623:
  9525  012EA6  BE35               	btfsc	LCD_printInitialCountdown@i+1,7,c
  9526  012EA8  D006               	goto	l593
  9527  012EAA  5035               	movf	LCD_printInitialCountdown@i+1,w,c
  9528  012EAC  E11C               	bnz	l595
  9529  012EAE  0E08               	movlw	8
  9530  012EB0  5C34               	subwf	LCD_printInitialCountdown@i,w,c
  9531  012EB2  B0D8               	btfsc	16344,0,c
  9532  012EB4  0012               	return	
  9533  012EB6                     l593:
  9534                           
  9535                           ;lcd.c: 165: {;lcd.c: 166: LCD_Set_Cursor(1,9+i);
  9536  012EB6  0E00               	movlw	0
  9537  012EB8  6E30               	movwf	LCD_Set_Cursor@c+1,c
  9538  012EBA  0E01               	movlw	1
  9539  012EBC  6E2F               	movwf	LCD_Set_Cursor@c,c
  9540  012EBE  0E09               	movlw	9
  9541  012EC0  2434               	addwf	LCD_printInitialCountdown@i,w,c
  9542  012EC2  6E31               	movwf	LCD_Set_Cursor@d,c
  9543  012EC4  0E00               	movlw	0
  9544  012EC6  2035               	addwfc	LCD_printInitialCountdown@i+1,w,c
  9545  012EC8  6E32               	movwf	LCD_Set_Cursor@d+1,c
  9546  012ECA  ECE1  F098         	call	_LCD_Set_Cursor	;wreg free
  9547                           
  9548                           ;lcd.c: 167: LCD_Write_Char(strCountdownInitialTime[i]);
  9549  012ECE  0E6C               	movlw	low _strCountdownInitialTime
  9550  012ED0  2434               	addwf	LCD_printInitialCountdown@i,w,c
  9551  012ED2  6ED9               	movwf	16345,c
  9552  012ED4  0E00               	movlw	high _strCountdownInitialTime
  9553  012ED6  2035               	addwfc	LCD_printInitialCountdown@i+1,w,c
  9554  012ED8  6EDA               	movwf	16346,c
  9555  012EDA  50DF               	movf	16351,w,c
  9556  012EDC  EC5B  F099         	call	_LCD_Write_Char
  9557  012EE0  4A34               	infsnz	LCD_printInitialCountdown@i,f,c
  9558  012EE2  2A35               	incf	LCD_printInitialCountdown@i+1,f,c
  9559  012EE4  D7E0               	goto	l6623
  9560  012EE6                     l595:
  9561  012EE6  0012               	return		;funcret
  9562  012EE8                     __end_of_LCD_printInitialCountdown:
  9563                           	opt stack 0
  9564                           
  9565 ;; *************** function _LCD_printDeclined *****************
  9566 ;; Defined at:
  9567 ;;		line 135 in file "lcd.c"
  9568 ;; Parameters:    Size  Location     Type
  9569 ;;		None
  9570 ;; Auto vars:     Size  Location     Type
  9571 ;;  i               2   21[COMRAM] int 
  9572 ;; Return value:  Size  Location     Type
  9573 ;;                  1    wreg      void 
  9574 ;; Registers used:
  9575 ;;		wreg, status,2, status,0, tblptrl, tblptrh, tblptru, cstack
  9576 ;; Tracked objects:
  9577 ;;		On entry : 0/0
  9578 ;;		On exit  : 0/0
  9579 ;;		Unchanged: 0/0
  9580 ;; Data sizes:     COMRAM   BANK0   BANK1   BANK2   BANK3   BANK4   BANK5   BANK6   BANK7   BANK8   BANK9  BANK10  BANK1
      +1  BANK12  BANK13  BANK14  BANK15  BANK16  BANK17  BANK18  BANK19  BANK20  BANK21  BANK22  BANK23  BANK24  BANK25  BANK2
      +6  BANK27  BANK28  BANK29  BANK30  BANK31
  9581 ;;      Params:         0       0       0       0       0       0       0       0       0       0       0       0       
      +0       0       0       0       0       0       0       0       0       0       0       0       0       0       0       
      +0       0       0       0       0       0
  9582 ;;      Locals:         2       0       0       0       0       0       0       0       0       0       0       0       
      +0       0       0       0       0       0       0       0       0       0       0       0       0       0       0       
      +0       0       0       0       0       0
  9583 ;;      Temps:          2       0       0       0       0       0       0       0       0       0       0       0       
      +0       0       0       0       0       0       0       0       0       0       0       0       0       0       0       
      +0       0       0       0       0       0
  9584 ;;      Totals:         4       0       0       0       0       0       0       0       0       0       0       0       
      +0       0       0       0       0       0       0       0       0       0       0       0       0       0       0       
      +0       0       0       0       0       0
  9585 ;;Total ram usage:        4 bytes
  9586 ;; Hardware stack levels used:    1
  9587 ;; Hardware stack levels required when called:    7
  9588 ;; This function calls:
  9589 ;;		_LCD_Cursor_Blink_Off
  9590 ;;		_LCD_Set_Cursor
  9591 ;;		_LCD_Write_String
  9592 ;;		_longLowBeep
  9593 ;; This function is called by:
  9594 ;;		_main
  9595 ;; This function uses a non-reentrant model
  9596 ;;
  9597                           
  9598                           	psect	text43
  9599  012970                     __ptext43:
  9600                           	opt stack 0
  9601  012970                     _LCD_printDeclined:
  9602                           	opt stack 23
  9603                           
  9604                           ;lcd.c: 137: LCD_Cursor_Blink_Off();
  9605                           
  9606                           ;incstack = 0
  9607  012970  EC5A  F09A         	call	_LCD_Cursor_Blink_Off	;wreg free
  9608                           
  9609                           ;lcd.c: 138: LCD_Set_Cursor(2,1);
  9610  012974  0E00               	movlw	0
  9611  012976  6E30               	movwf	LCD_Set_Cursor@c+1,c
  9612  012978  0E02               	movlw	2
  9613  01297A  6E2F               	movwf	LCD_Set_Cursor@c,c
  9614  01297C  0E00               	movlw	0
  9615  01297E  6E32               	movwf	LCD_Set_Cursor@d+1,c
  9616  012980  0E01               	movlw	1
  9617  012982  6E31               	movwf	LCD_Set_Cursor@d,c
  9618  012984  ECE1  F098         	call	_LCD_Set_Cursor	;wreg free
  9619                           
  9620                           ;lcd.c: 139: LCD_Write_String("                ");
  9621  012988  0E8C               	movlw	low STR_3
  9622  01298A  6E2F               	movwf	LCD_Write_String@f,c
  9623  01298C  0EFF               	movlw	high STR_3
  9624  01298E  6E30               	movwf	LCD_Write_String@f+1,c
  9625  012990  ECD8  F096         	call	_LCD_Write_String	;wreg free
  9626                           
  9627                           ;lcd.c: 141: for (int i=0;i<=5;i++)
  9628  012994  0E00               	movlw	0
  9629  012996  6E38               	movwf	LCD_printDeclined@i+1,c
  9630  012998  0E00               	movlw	0
  9631  01299A  6E37               	movwf	LCD_printDeclined@i,c
  9632  01299C                     l6599:
  9633  01299C  BE38               	btfsc	LCD_printDeclined@i+1,7,c
  9634  01299E  D006               	goto	l583
  9635  0129A0  5038               	movf	LCD_printDeclined@i+1,w,c
  9636  0129A2  E141               	bnz	l585
  9637  0129A4  0E06               	movlw	6
  9638  0129A6  5C37               	subwf	LCD_printDeclined@i,w,c
  9639  0129A8  B0D8               	btfsc	16344,0,c
  9640  0129AA  0012               	return	
  9641  0129AC                     l583:
  9642                           
  9643                           ;lcd.c: 142: {;lcd.c: 143: LCD_Set_Cursor(2,5);
  9644  0129AC  0E00               	movlw	0
  9645  0129AE  6E30               	movwf	LCD_Set_Cursor@c+1,c
  9646  0129B0  0E02               	movlw	2
  9647  0129B2  6E2F               	movwf	LCD_Set_Cursor@c,c
  9648  0129B4  0E00               	movlw	0
  9649  0129B6  6E32               	movwf	LCD_Set_Cursor@d+1,c
  9650  0129B8  0E05               	movlw	5
  9651  0129BA  6E31               	movwf	LCD_Set_Cursor@d,c
  9652  0129BC  ECE1  F098         	call	_LCD_Set_Cursor	;wreg free
  9653                           
  9654                           ;lcd.c: 144: LCD_Write_String("DECLINED");
  9655  0129C0  0EDE               	movlw	low STR_7
  9656  0129C2  6E2F               	movwf	LCD_Write_String@f,c
  9657  0129C4  0EFF               	movlw	high STR_7
  9658  0129C6  6E30               	movwf	LCD_Write_String@f+1,c
  9659  0129C8  ECD8  F096         	call	_LCD_Write_String	;wreg free
  9660                           
  9661                           ;lcd.c: 145: longLowBeep();
  9662  0129CC  ECFF  F099         	call	_longLowBeep	;wreg free
  9663                           
  9664                           ;lcd.c: 146: _delay((unsigned long)((150)*(8000000/4000.0)));
  9665  0129D0  0E02               	movlw	2
  9666  0129D2  6E36               	movwf	(??_LCD_printDeclined+1)& (0+255),c
  9667  0129D4  0E86               	movlw	134
  9668  0129D6  6E35               	movwf	??_LCD_printDeclined& (0+255),c
  9669  0129D8  0E99               	movlw	153
  9670  0129DA                     u9707:
  9671  0129DA  2EE8               	decfsz	16360,f,c
  9672  0129DC  D7FE               	bra	u9707
  9673  0129DE  2E35               	decfsz	??_LCD_printDeclined& (0+255),f,c
  9674  0129E0  D7FC               	bra	u9707
  9675  0129E2  2E36               	decfsz	(??_LCD_printDeclined+1)& (0+255),f,c
  9676  0129E4  D7FA               	bra	u9707
  9677  0129E6  F000               	nop	
  9678                           
  9679                           ;lcd.c: 147: LCD_Set_Cursor(2,5);
  9680  0129E8  0E00               	movlw	0
  9681  0129EA  6E30               	movwf	LCD_Set_Cursor@c+1,c
  9682  0129EC  0E02               	movlw	2
  9683  0129EE  6E2F               	movwf	LCD_Set_Cursor@c,c
  9684  0129F0  0E00               	movlw	0
  9685  0129F2  6E32               	movwf	LCD_Set_Cursor@d+1,c
  9686  0129F4  0E05               	movlw	5
  9687  0129F6  6E31               	movwf	LCD_Set_Cursor@d,c
  9688  0129F8  ECE1  F098         	call	_LCD_Set_Cursor	;wreg free
  9689                           
  9690                           ;lcd.c: 148: LCD_Write_String("        ");
  9691  0129FC  0E94               	movlw	low (STR_3+8)
  9692  0129FE  6E2F               	movwf	LCD_Write_String@f,c
  9693  012A00  0EFF               	movlw	high (STR_3+8)
  9694  012A02  6E30               	movwf	LCD_Write_String@f+1,c
  9695  012A04  ECD8  F096         	call	_LCD_Write_String	;wreg free
  9696                           
  9697                           ;lcd.c: 149: _delay((unsigned long)((150)*(8000000/4000.0)));
  9698  012A08  0E02               	movlw	2
  9699  012A0A  6E36               	movwf	(??_LCD_printDeclined+1)& (0+255),c
  9700  012A0C  0E86               	movlw	134
  9701  012A0E  6E35               	movwf	??_LCD_printDeclined& (0+255),c
  9702  012A10  0E99               	movlw	153
  9703  012A12                     u9717:
  9704  012A12  2EE8               	decfsz	16360,f,c
  9705  012A14  D7FE               	bra	u9717
  9706  012A16  2E35               	decfsz	??_LCD_printDeclined& (0+255),f,c
  9707  012A18  D7FC               	bra	u9717
  9708  012A1A  2E36               	decfsz	(??_LCD_printDeclined+1)& (0+255),f,c
  9709  012A1C  D7FA               	bra	u9717
  9710  012A1E  F000               	nop	
  9711  012A20  4A37               	infsnz	LCD_printDeclined@i,f,c
  9712  012A22  2A38               	incf	LCD_printDeclined@i+1,f,c
  9713  012A24  D7BB               	goto	l6599
  9714  012A26                     l585:
  9715  012A26  0012               	return		;funcret
  9716  012A28                     __end_of_LCD_printDeclined:
  9717                           	opt stack 0
  9718                           
  9719 ;; *************** function _LCD_printAccepted *****************
  9720 ;; Defined at:
  9721 ;;		line 117 in file "lcd.c"
  9722 ;; Parameters:    Size  Location     Type
  9723 ;;		None
  9724 ;; Auto vars:     Size  Location     Type
  9725 ;;  i               2   21[COMRAM] int 
  9726 ;; Return value:  Size  Location     Type
  9727 ;;                  1    wreg      void 
  9728 ;; Registers used:
  9729 ;;		wreg, status,2, status,0, tblptrl, tblptrh, tblptru, cstack
  9730 ;; Tracked objects:
  9731 ;;		On entry : 0/0
  9732 ;;		On exit  : 0/0
  9733 ;;		Unchanged: 0/0
  9734 ;; Data sizes:     COMRAM   BANK0   BANK1   BANK2   BANK3   BANK4   BANK5   BANK6   BANK7   BANK8   BANK9  BANK10  BANK1
      +1  BANK12  BANK13  BANK14  BANK15  BANK16  BANK17  BANK18  BANK19  BANK20  BANK21  BANK22  BANK23  BANK24  BANK25  BANK2
      +6  BANK27  BANK28  BANK29  BANK30  BANK31
  9735 ;;      Params:         0       0       0       0       0       0       0       0       0       0       0       0       
      +0       0       0       0       0       0       0       0       0       0       0       0       0       0       0       
      +0       0       0       0       0       0
  9736 ;;      Locals:         2       0       0       0       0       0       0       0       0       0       0       0       
      +0       0       0       0       0       0       0       0       0       0       0       0       0       0       0       
      +0       0       0       0       0       0
  9737 ;;      Temps:          2       0       0       0       0       0       0       0       0       0       0       0       
      +0       0       0       0       0       0       0       0       0       0       0       0       0       0       0       
      +0       0       0       0       0       0
  9738 ;;      Totals:         4       0       0       0       0       0       0       0       0       0       0       0       
      +0       0       0       0       0       0       0       0       0       0       0       0       0       0       0       
      +0       0       0       0       0       0
  9739 ;;Total ram usage:        4 bytes
  9740 ;; Hardware stack levels used:    1
  9741 ;; Hardware stack levels required when called:    7
  9742 ;; This function calls:
  9743 ;;		_LCD_Cursor_Blink_Off
  9744 ;;		_LCD_Set_Cursor
  9745 ;;		_LCD_Write_String
  9746 ;;		_longLowBeep
  9747 ;; This function is called by:
  9748 ;;		_main
  9749 ;; This function uses a non-reentrant model
  9750 ;;
  9751                           
  9752                           	psect	text44
  9753  012A28                     __ptext44:
  9754                           	opt stack 0
  9755  012A28                     _LCD_printAccepted:
  9756                           	opt stack 23
  9757                           
  9758                           ;lcd.c: 119: LCD_Cursor_Blink_Off();
  9759                           
  9760                           ;incstack = 0
  9761  012A28  EC5A  F09A         	call	_LCD_Cursor_Blink_Off	;wreg free
  9762                           
  9763                           ;lcd.c: 120: LCD_Set_Cursor(2,1);
  9764  012A2C  0E00               	movlw	0
  9765  012A2E  6E30               	movwf	LCD_Set_Cursor@c+1,c
  9766  012A30  0E02               	movlw	2
  9767  012A32  6E2F               	movwf	LCD_Set_Cursor@c,c
  9768  012A34  0E00               	movlw	0
  9769  012A36  6E32               	movwf	LCD_Set_Cursor@d+1,c
  9770  012A38  0E01               	movlw	1
  9771  012A3A  6E31               	movwf	LCD_Set_Cursor@d,c
  9772  012A3C  ECE1  F098         	call	_LCD_Set_Cursor	;wreg free
  9773                           
  9774                           ;lcd.c: 121: LCD_Write_String("                ");
  9775  012A40  0E8C               	movlw	low STR_3
  9776  012A42  6E2F               	movwf	LCD_Write_String@f,c
  9777  012A44  0EFF               	movlw	high STR_3
  9778  012A46  6E30               	movwf	LCD_Write_String@f+1,c
  9779  012A48  ECD8  F096         	call	_LCD_Write_String	;wreg free
  9780                           
  9781                           ;lcd.c: 123: for (int i=0;i<=5;i++)
  9782  012A4C  0E00               	movlw	0
  9783  012A4E  6E38               	movwf	LCD_printAccepted@i+1,c
  9784  012A50  0E00               	movlw	0
  9785  012A52  6E37               	movwf	LCD_printAccepted@i,c
  9786  012A54                     l6569:
  9787  012A54  BE38               	btfsc	LCD_printAccepted@i+1,7,c
  9788  012A56  D006               	goto	l578
  9789  012A58  5038               	movf	LCD_printAccepted@i+1,w,c
  9790  012A5A  E141               	bnz	l580
  9791  012A5C  0E06               	movlw	6
  9792  012A5E  5C37               	subwf	LCD_printAccepted@i,w,c
  9793  012A60  B0D8               	btfsc	16344,0,c
  9794  012A62  0012               	return	
  9795  012A64                     l578:
  9796                           
  9797                           ;lcd.c: 124: {;lcd.c: 125: LCD_Set_Cursor(2,5);
  9798  012A64  0E00               	movlw	0
  9799  012A66  6E30               	movwf	LCD_Set_Cursor@c+1,c
  9800  012A68  0E02               	movlw	2
  9801  012A6A  6E2F               	movwf	LCD_Set_Cursor@c,c
  9802  012A6C  0E00               	movlw	0
  9803  012A6E  6E32               	movwf	LCD_Set_Cursor@d+1,c
  9804  012A70  0E05               	movlw	5
  9805  012A72  6E31               	movwf	LCD_Set_Cursor@d,c
  9806  012A74  ECE1  F098         	call	_LCD_Set_Cursor	;wreg free
  9807                           
  9808                           ;lcd.c: 126: LCD_Write_String("ACCEPTED");
  9809  012A78  0EE7               	movlw	low STR_4
  9810  012A7A  6E2F               	movwf	LCD_Write_String@f,c
  9811  012A7C  0EFF               	movlw	high STR_4
  9812  012A7E  6E30               	movwf	LCD_Write_String@f+1,c
  9813  012A80  ECD8  F096         	call	_LCD_Write_String	;wreg free
  9814                           
  9815                           ;lcd.c: 127: longLowBeep();
  9816  012A84  ECFF  F099         	call	_longLowBeep	;wreg free
  9817                           
  9818                           ;lcd.c: 128: _delay((unsigned long)((150)*(8000000/4000.0)));
  9819  012A88  0E02               	movlw	2
  9820  012A8A  6E36               	movwf	(??_LCD_printAccepted+1)& (0+255),c
  9821  012A8C  0E86               	movlw	134
  9822  012A8E  6E35               	movwf	??_LCD_printAccepted& (0+255),c
  9823  012A90  0E99               	movlw	153
  9824  012A92                     u9727:
  9825  012A92  2EE8               	decfsz	16360,f,c
  9826  012A94  D7FE               	bra	u9727
  9827  012A96  2E35               	decfsz	??_LCD_printAccepted& (0+255),f,c
  9828  012A98  D7FC               	bra	u9727
  9829  012A9A  2E36               	decfsz	(??_LCD_printAccepted+1)& (0+255),f,c
  9830  012A9C  D7FA               	bra	u9727
  9831  012A9E  F000               	nop	
  9832                           
  9833                           ;lcd.c: 129: LCD_Set_Cursor(2,5);
  9834  012AA0  0E00               	movlw	0
  9835  012AA2  6E30               	movwf	LCD_Set_Cursor@c+1,c
  9836  012AA4  0E02               	movlw	2
  9837  012AA6  6E2F               	movwf	LCD_Set_Cursor@c,c
  9838  012AA8  0E00               	movlw	0
  9839  012AAA  6E32               	movwf	LCD_Set_Cursor@d+1,c
  9840  012AAC  0E05               	movlw	5
  9841  012AAE  6E31               	movwf	LCD_Set_Cursor@d,c
  9842  012AB0  ECE1  F098         	call	_LCD_Set_Cursor	;wreg free
  9843                           
  9844                           ;lcd.c: 130: LCD_Write_String("        ");
  9845  012AB4  0E94               	movlw	low (STR_3+8)
  9846  012AB6  6E2F               	movwf	LCD_Write_String@f,c
  9847  012AB8  0EFF               	movlw	high (STR_3+8)
  9848  012ABA  6E30               	movwf	LCD_Write_String@f+1,c
  9849  012ABC  ECD8  F096         	call	_LCD_Write_String	;wreg free
  9850                           
  9851                           ;lcd.c: 131: _delay((unsigned long)((150)*(8000000/4000.0)));
  9852  012AC0  0E02               	movlw	2
  9853  012AC2  6E36               	movwf	(??_LCD_printAccepted+1)& (0+255),c
  9854  012AC4  0E86               	movlw	134
  9855  012AC6  6E35               	movwf	??_LCD_printAccepted& (0+255),c
  9856  012AC8  0E99               	movlw	153
  9857  012ACA                     u9737:
  9858  012ACA  2EE8               	decfsz	16360,f,c
  9859  012ACC  D7FE               	bra	u9737
  9860  012ACE  2E35               	decfsz	??_LCD_printAccepted& (0+255),f,c
  9861  012AD0  D7FC               	bra	u9737
  9862  012AD2  2E36               	decfsz	(??_LCD_printAccepted+1)& (0+255),f,c
  9863  012AD4  D7FA               	bra	u9737
  9864  012AD6  F000               	nop	
  9865  012AD8  4A37               	infsnz	LCD_printAccepted@i,f,c
  9866  012ADA  2A38               	incf	LCD_printAccepted@i+1,f,c
  9867  012ADC  D7BB               	goto	l6569
  9868  012ADE                     l580:
  9869  012ADE  0012               	return		;funcret
  9870  012AE0                     __end_of_LCD_printAccepted:
  9871                           	opt stack 0
  9872                           
  9873 ;; *************** function _longLowBeep *****************
  9874 ;; Defined at:
  9875 ;;		line 154 in file "beeper.c"
  9876 ;; Parameters:    Size  Location     Type
  9877 ;;		None
  9878 ;; Auto vars:     Size  Location     Type
  9879 ;;		None
  9880 ;; Return value:  Size  Location     Type
  9881 ;;                  1    wreg      void 
  9882 ;; Registers used:
  9883 ;;		wreg, status,2
  9884 ;; Tracked objects:
  9885 ;;		On entry : 0/0
  9886 ;;		On exit  : 0/0
  9887 ;;		Unchanged: 0/0
  9888 ;; Data sizes:     COMRAM   BANK0   BANK1   BANK2   BANK3   BANK4   BANK5   BANK6   BANK7   BANK8   BANK9  BANK10  BANK1
      +1  BANK12  BANK13  BANK14  BANK15  BANK16  BANK17  BANK18  BANK19  BANK20  BANK21  BANK22  BANK23  BANK24  BANK25  BANK2
      +6  BANK27  BANK28  BANK29  BANK30  BANK31
  9889 ;;      Params:         0       0       0       0       0       0       0       0       0       0       0       0       
      +0       0       0       0       0       0       0       0       0       0       0       0       0       0       0       
      +0       0       0       0       0       0
  9890 ;;      Locals:         0       0       0       0       0       0       0       0       0       0       0       0       
      +0       0       0       0       0       0       0       0       0       0       0       0       0       0       0       
      +0       0       0       0       0       0
  9891 ;;      Temps:          0       0       0       0       0       0       0       0       0       0       0       0       
      +0       0       0       0       0       0       0       0       0       0       0       0       0       0       0       
      +0       0       0       0       0       0
  9892 ;;      Totals:         0       0       0       0       0       0       0       0       0       0       0       0       
      +0       0       0       0       0       0       0       0       0       0       0       0       0       0       0       
      +0       0       0       0       0       0
  9893 ;;Total ram usage:        0 bytes
  9894 ;; Hardware stack levels used:    1
  9895 ;; Hardware stack levels required when called:    5
  9896 ;; This function calls:
  9897 ;;		Nothing
  9898 ;; This function is called by:
  9899 ;;		_LCD_printAccepted
  9900 ;;		_LCD_printDeclined
  9901 ;; This function uses a non-reentrant model
  9902 ;;
  9903                           
  9904                           	psect	text45
  9905  0133FE                     __ptext45:
  9906                           	opt stack 0
  9907  0133FE                     _longLowBeep:
  9908                           	opt stack 24
  9909                           
  9910                           ;beeper.c: 156: T2PR = 0xF2;
  9911                           
  9912                           ;incstack = 0
  9913  0133FE  0EF2               	movlw	242
  9914  013400  013F               	movlb	63	; () banked
  9915  013402  6FAB               	movwf	171,b	;volatile
  9916                           
  9917                           ;beeper.c: 157: TMR1H = 0x54;
  9918  013404  0E54               	movlw	84
  9919  013406  6FB1               	movwf	177,b	;volatile
  9920                           
  9921                           ;beeper.c: 158: TMR1L = 0x1F;
  9922  013408  0E1F               	movlw	31
  9923  01340A  6FB0               	movwf	176,b	;volatile
  9924                           
  9925                           ; BSR set to: 63
  9926                           ;beeper.c: 159: PWM5CONbits.EN = 1;
  9927  01340C  8F6E               	bsf	110,7,b	;volatile
  9928                           
  9929                           ; BSR set to: 63
  9930                           ;beeper.c: 160: LATAbits.LATA0 = 1;
  9931  01340E  81BA               	bsf	186,0,b	;volatile
  9932                           
  9933                           ; BSR set to: 63
  9934                           ;beeper.c: 161: T1CONbits.ON = 1;
  9935  013410  81B2               	bsf	178,0,b	;volatile
  9936                           
  9937                           ; BSR set to: 63
  9938  013412  0012               	return		;funcret
  9939  013414                     __end_of_longLowBeep:
  9940                           	opt stack 0
  9941                           
  9942 ;; *************** function _LCD_Write_String *****************
  9943 ;; Defined at:
  9944 ;;		line 89 in file "lcd.c"
  9945 ;; Parameters:    Size  Location     Type
  9946 ;;  f               2   13[COMRAM] PTR unsigned char 
  9947 ;;		 -> STR_36(17), STR_35(17), STR_34(17), STR_33(17), 
  9948 ;;		 -> STR_32(17), STR_31(17), STR_30(17), STR_29(17), 
  9949 ;;		 -> STR_28(17), STR_27(17), STR_26(17), STR_25(17), 
  9950 ;;		 -> STR_24(17), STR_23(17), STR_22(17), STR_21(17), 
  9951 ;;		 -> STR_20(17), STR_19(17), STR_18(17), STR_17(13), 
  9952 ;;		 -> STR_16(17), STR_15(17), STR_14(17), STR_13(7), 
  9953 ;;		 -> STR_12(9), STR_11(7), STR_10(9), STR_9(17), 
  9954 ;;		 -> STR_8(9), STR_7(9), STR_6(17), STR_5(9), 
  9955 ;;		 -> STR_4(9), STR_3(17), STR_2(17), STR_1(7), 
  9956 ;; Auto vars:     Size  Location     Type
  9957 ;;  i               2   17[COMRAM] int 
  9958 ;; Return value:  Size  Location     Type
  9959 ;;                  1    wreg      void 
  9960 ;; Registers used:
  9961 ;;		wreg, status,2, status,0, tblptrl, tblptrh, tblptru, cstack
  9962 ;; Tracked objects:
  9963 ;;		On entry : 0/0
  9964 ;;		On exit  : 0/0
  9965 ;;		Unchanged: 0/0
  9966 ;; Data sizes:     COMRAM   BANK0   BANK1   BANK2   BANK3   BANK4   BANK5   BANK6   BANK7   BANK8   BANK9  BANK10  BANK1
      +1  BANK12  BANK13  BANK14  BANK15  BANK16  BANK17  BANK18  BANK19  BANK20  BANK21  BANK22  BANK23  BANK24  BANK25  BANK2
      +6  BANK27  BANK28  BANK29  BANK30  BANK31
  9967 ;;      Params:         2       0       0       0       0       0       0       0       0       0       0       0       
      +0       0       0       0       0       0       0       0       0       0       0       0       0       0       0       
      +0       0       0       0       0       0
  9968 ;;      Locals:         2       0       0       0       0       0       0       0       0       0       0       0       
      +0       0       0       0       0       0       0       0       0       0       0       0       0       0       0       
      +0       0       0       0       0       0
  9969 ;;      Temps:          2       0       0       0       0       0       0       0       0       0       0       0       
      +0       0       0       0       0       0       0       0       0       0       0       0       0       0       0       
      +0       0       0       0       0       0
  9970 ;;      Totals:         6       0       0       0       0       0       0       0       0       0       0       0       
      +0       0       0       0       0       0       0       0       0       0       0       0       0       0       0       
      +0       0       0       0       0       0
  9971 ;;Total ram usage:        6 bytes
  9972 ;; Hardware stack levels used:    1
  9973 ;; Hardware stack levels required when called:    6
  9974 ;; This function calls:
  9975 ;;		_LCD_Write_Char
  9976 ;; This function is called by:
  9977 ;;		_LCD_printAccepted
  9978 ;;		_LCD_printDeclined
  9979 ;;		_LCD_resetPasswordEntry
  9980 ;;		_stanbyPageReset
  9981 ;;		_armedPageReset
  9982 ;;		_disarmedPageReset
  9983 ;;		_main
  9984 ;; This function uses a non-reentrant model
  9985 ;;
  9986                           
  9987                           	psect	text46
  9988  012DB0                     __ptext46:
  9989                           	opt stack 0
  9990  012DB0                     _LCD_Write_String:
  9991                           	opt stack 22
  9992                           
  9993                           ;lcd.c: 91: int i;;lcd.c: 92: for(i=0;f[i]!='\0';i++)
  9994                           
  9995                           ; BSR set to: 63
  9996                           ;incstack = 0
  9997  012DB0  0E00               	movlw	0
  9998  012DB2  6E34               	movwf	LCD_Write_String@i+1,c
  9999  012DB4  0E00               	movlw	0
 10000  012DB6  6E33               	movwf	LCD_Write_String@i,c
 10001  012DB8  D012               	goto	l560
 10002  012DBA                     
 10003                           ;lcd.c: 93: LCD_Write_Char(f[i]);
 10004  012DBA  5033               	movf	LCD_Write_String@i,w,c
 10005  012DBC  242F               	addwf	LCD_Write_String@f,w,c
 10006  012DBE  6E31               	movwf	??_LCD_Write_String& (0+255),c
 10007  012DC0  5034               	movf	LCD_Write_String@i+1,w,c
 10008  012DC2  2030               	addwfc	LCD_Write_String@f+1,w,c
 10009  012DC4  6E32               	movwf	(??_LCD_Write_String+1)& (0+255),c
 10010  012DC6  0060  F0C7  FFF6   	movff	??_LCD_Write_String,16374
 10011  012DCC  0060  F0CB  FFF7   	movff	??_LCD_Write_String+1,16375
 10012  012DD2                     	if	0	;tblptru may be non-zero
 10013  012DD2                     	endif
 10014  012DD2                     	if	0	;tblptru may be non-zero
 10015  012DD2                     	endif
 10016  012DD2  0008               	tblrd		*
 10017  012DD4  50F5               	movf	16373,w,c
 10018  012DD6  EC5B  F099         	call	_LCD_Write_Char
 10019  012DDA  4A33               	infsnz	LCD_Write_String@i,f,c
 10020  012DDC  2A34               	incf	LCD_Write_String@i+1,f,c
 10021  012DDE                     l560:
 10022  012DDE  5033               	movf	LCD_Write_String@i,w,c
 10023  012DE0  242F               	addwf	LCD_Write_String@f,w,c
 10024  012DE2  6E31               	movwf	??_LCD_Write_String& (0+255),c
 10025  012DE4  5034               	movf	LCD_Write_String@i+1,w,c
 10026  012DE6  2030               	addwfc	LCD_Write_String@f+1,w,c
 10027  012DE8  6E32               	movwf	(??_LCD_Write_String+1)& (0+255),c
 10028  012DEA  0060  F0C7  FFF6   	movff	??_LCD_Write_String,16374
 10029  012DF0  0060  F0CB  FFF7   	movff	??_LCD_Write_String+1,16375
 10030  012DF6                     	if	0	;tblptru may be non-zero
 10031  012DF6                     	endif
 10032  012DF6                     	if	0	;tblptru may be non-zero
 10033  012DF6                     	endif
 10034  012DF6  0008               	tblrd		*
 10035  012DF8  50F5               	movf	16373,w,c
 10036  012DFA  0900               	iorlw	0
 10037  012DFC  B4D8               	btfsc	16344,2,c
 10038  012DFE  0012               	return	
 10039  012E00  D7DC               	goto	l561
 10040  012E02                     __end_of_LCD_Write_String:
 10041                           	opt stack 0
 10042                           
 10043 ;; *************** function _LCD_Write_Char *****************
 10044 ;; Defined at:
 10045 ;;		line 77 in file "lcd.c"
 10046 ;; Parameters:    Size  Location     Type
 10047 ;;  e               1    wreg     unsigned char 
 10048 ;; Auto vars:     Size  Location     Type
 10049 ;;  e               1   12[COMRAM] unsigned char 
 10050 ;; Return value:  Size  Location     Type
 10051 ;;                  1    wreg      void 
 10052 ;; Registers used:
 10053 ;;		wreg, status,2, status,0, cstack
 10054 ;; Tracked objects:
 10055 ;;		On entry : 0/0
 10056 ;;		On exit  : 0/0
 10057 ;;		Unchanged: 0/0
 10058 ;; Data sizes:     COMRAM   BANK0   BANK1   BANK2   BANK3   BANK4   BANK5   BANK6   BANK7   BANK8   BANK9  BANK10  BANK1
      +1  BANK12  BANK13  BANK14  BANK15  BANK16  BANK17  BANK18  BANK19  BANK20  BANK21  BANK22  BANK23  BANK24  BANK25  BANK2
      +6  BANK27  BANK28  BANK29  BANK30  BANK31
 10059 ;;      Params:         0       0       0       0       0       0       0       0       0       0       0       0       
      +0       0       0       0       0       0       0       0       0       0       0       0       0       0       0       
      +0       0       0       0       0       0
 10060 ;;      Locals:         1       0       0       0       0       0       0       0       0       0       0       0       
      +0       0       0       0       0       0       0       0       0       0       0       0       0       0       0       
      +0       0       0       0       0       0
 10061 ;;      Temps:          0       0       0       0       0       0       0       0       0       0       0       0       
      +0       0       0       0       0       0       0       0       0       0       0       0       0       0       0       
      +0       0       0       0       0       0
 10062 ;;      Totals:         1       0       0       0       0       0       0       0       0       0       0       0       
      +0       0       0       0       0       0       0       0       0       0       0       0       0       0       0       
      +0       0       0       0       0       0
 10063 ;;Total ram usage:        1 bytes
 10064 ;; Hardware stack levels used:    1
 10065 ;; Hardware stack levels required when called:    5
 10066 ;; This function calls:
 10067 ;;		Nothing
 10068 ;; This function is called by:
 10069 ;;		_LCD_Write_String
 10070 ;;		_LCD_printNowCountdown
 10071 ;;		_LCD_printInitialCountdown
 10072 ;;		_main
 10073 ;; This function uses a non-reentrant model
 10074 ;;
 10075                           
 10076                           	psect	text47
 10077  0132B6                     __ptext47:
 10078                           	opt stack 0
 10079  0132B6                     _LCD_Write_Char:
 10080                           	opt stack 22
 10081                           
 10082                           ;incstack = 0
 10083                           ;LCD_Write_Char@e stored from wreg
 10084  0132B6  6E2E               	movwf	LCD_Write_Char@e,c
 10085                           
 10086                           ;lcd.c: 79: LATCbits.LATC6 = 1;
 10087  0132B8  013F               	movlb	63	; () banked
 10088  0132BA  8DBC               	bsf	188,6,b	;volatile
 10089                           
 10090                           ; BSR set to: 63
 10091                           ;lcd.c: 80: LATD = 0;
 10092  0132BC  0E00               	movlw	0
 10093  0132BE  6FBD               	movwf	189,b	;volatile
 10094                           
 10095                           ; BSR set to: 63
 10096                           ;lcd.c: 81: LATD |= e;
 10097  0132C0  502E               	movf	LCD_Write_Char@e,w,c
 10098  0132C2  13BD               	iorwf	189,f,b	;volatile
 10099                           
 10100                           ; BSR set to: 63
 10101                           ;lcd.c: 82: LATCbits.LATC7 = 1;
 10102  0132C4  8FBC               	bsf	188,7,b	;volatile
 10103                           
 10104                           ; BSR set to: 63
 10105                           ;lcd.c: 83: _delay((unsigned long)((40)*(8000000/4000000.0)));
 10106  0132C6  0E1A               	movlw	26
 10107  0132C8                     u9747:
 10108  0132C8  2EE8               	decfsz	16360,f,c
 10109  0132CA  D7FE               	bra	u9747
 10110  0132CC  D000               	nop2	
 10111                           
 10112                           ;lcd.c: 84: LATCbits.LATC7 = 0;
 10113  0132CE  013F               	movlb	63	; () banked
 10114  0132D0  9FBC               	bcf	188,7,b	;volatile
 10115                           
 10116                           ; BSR set to: 63
 10117                           ;lcd.c: 85: LATD = 0;
 10118  0132D2  0E00               	movlw	0
 10119  0132D4  6FBD               	movwf	189,b	;volatile
 10120                           
 10121                           ; BSR set to: 63
 10122  0132D6  0012               	return		;funcret
 10123  0132D8                     __end_of_LCD_Write_Char:
 10124                           	opt stack 0
 10125                           
 10126 ;; *************** function _LCD_Set_Cursor *****************
 10127 ;; Defined at:
 10128 ;;		line 62 in file "lcd.c"
 10129 ;; Parameters:    Size  Location     Type
 10130 ;;  c               2   13[COMRAM] int 
 10131 ;;  d               2   15[COMRAM] int 
 10132 ;; Auto vars:     Size  Location     Type
 10133 ;;  temp            1   17[COMRAM] unsigned char 
 10134 ;; Return value:  Size  Location     Type
 10135 ;;                  1    wreg      void 
 10136 ;; Registers used:
 10137 ;;		wreg, status,2, status,0, cstack
 10138 ;; Tracked objects:
 10139 ;;		On entry : 0/0
 10140 ;;		On exit  : 0/0
 10141 ;;		Unchanged: 0/0
 10142 ;; Data sizes:     COMRAM   BANK0   BANK1   BANK2   BANK3   BANK4   BANK5   BANK6   BANK7   BANK8   BANK9  BANK10  BANK1
      +1  BANK12  BANK13  BANK14  BANK15  BANK16  BANK17  BANK18  BANK19  BANK20  BANK21  BANK22  BANK23  BANK24  BANK25  BANK2
      +6  BANK27  BANK28  BANK29  BANK30  BANK31
 10143 ;;      Params:         4       0       0       0       0       0       0       0       0       0       0       0       
      +0       0       0       0       0       0       0       0       0       0       0       0       0       0       0       
      +0       0       0       0       0       0
 10144 ;;      Locals:         1       0       0       0       0       0       0       0       0       0       0       0       
      +0       0       0       0       0       0       0       0       0       0       0       0       0       0       0       
      +0       0       0       0       0       0
 10145 ;;      Temps:          0       0       0       0       0       0       0       0       0       0       0       0       
      +0       0       0       0       0       0       0       0       0       0       0       0       0       0       0       
      +0       0       0       0       0       0
 10146 ;;      Totals:         5       0       0       0       0       0       0       0       0       0       0       0       
      +0       0       0       0       0       0       0       0       0       0       0       0       0       0       0       
      +0       0       0       0       0       0
 10147 ;;Total ram usage:        5 bytes
 10148 ;; Hardware stack levels used:    1
 10149 ;; Hardware stack levels required when called:    6
 10150 ;; This function calls:
 10151 ;;		_LCD_Cmd
 10152 ;; This function is called by:
 10153 ;;		_LCD_printAccepted
 10154 ;;		_LCD_printDeclined
 10155 ;;		_LCD_printNowCountdown
 10156 ;;		_LCD_printInitialCountdown
 10157 ;;		_LCD_resetPasswordEntry
 10158 ;;		_stanbyPageReset
 10159 ;;		_armedPageReset
 10160 ;;		_disarmedPageReset
 10161 ;;		_main
 10162 ;; This function uses a non-reentrant model
 10163 ;;
 10164                           
 10165                           	psect	text48
 10166  0131C2                     __ptext48:
 10167                           	opt stack 0
 10168  0131C2                     _LCD_Set_Cursor:
 10169                           	opt stack 22
 10170                           
 10171                           ;lcd.c: 64: char temp;;lcd.c: 65: if(c == 1)
 10172                           
 10173                           ; BSR set to: 63
 10174                           ;incstack = 0
 10175  0131C2  042F               	decf	LCD_Set_Cursor@c,w,c
 10176  0131C4  1030               	iorwf	LCD_Set_Cursor@c+1,w,c
 10177  0131C6  A4D8               	btfss	16344,2,c
 10178  0131C8  D007               	goto	l551
 10179                           
 10180                           ;lcd.c: 66: {;lcd.c: 67: temp = 0x80 + d - 1;
 10181  0131CA  5031               	movf	LCD_Set_Cursor@d,w,c
 10182  0131CC  0F7F               	addlw	127
 10183  0131CE  6E33               	movwf	LCD_Set_Cursor@temp,c
 10184                           
 10185                           ;lcd.c: 68: LCD_Cmd(temp);
 10186  0131D0  5033               	movf	LCD_Set_Cursor@temp,w,c
 10187  0131D2  ECBD  F099         	call	_LCD_Cmd
 10188                           
 10189                           ;lcd.c: 69: }
 10190  0131D6  0012               	return	
 10191  0131D8                     l551:
 10192                           
 10193                           ;lcd.c: 70: else if(c == 2)
 10194  0131D8  0E02               	movlw	2
 10195  0131DA  182F               	xorwf	LCD_Set_Cursor@c,w,c
 10196  0131DC  1030               	iorwf	LCD_Set_Cursor@c+1,w,c
 10197  0131DE  A4D8               	btfss	16344,2,c
 10198  0131E0  0012               	return	
 10199                           
 10200                           ;lcd.c: 71: {;lcd.c: 72: temp = 0xC0 + d - 1;
 10201  0131E2  5031               	movf	LCD_Set_Cursor@d,w,c
 10202  0131E4  0FBF               	addlw	191
 10203  0131E6  6E33               	movwf	LCD_Set_Cursor@temp,c
 10204                           
 10205                           ;lcd.c: 73: LCD_Cmd(temp);
 10206  0131E8  5033               	movf	LCD_Set_Cursor@temp,w,c
 10207  0131EA  ECBD  F099         	call	_LCD_Cmd
 10208  0131EE  0012               	return	
 10209  0131F0                     __end_of_LCD_Set_Cursor:
 10210                           	opt stack 0
 10211                           
 10212 ;; *************** function _LCD_Cursor_Blink_Off *****************
 10213 ;; Defined at:
 10214 ;;		line 101 in file "lcd.c"
 10215 ;; Parameters:    Size  Location     Type
 10216 ;;		None
 10217 ;; Auto vars:     Size  Location     Type
 10218 ;;		None
 10219 ;; Return value:  Size  Location     Type
 10220 ;;                  1    wreg      void 
 10221 ;; Registers used:
 10222 ;;		wreg, status,2, cstack
 10223 ;; Tracked objects:
 10224 ;;		On entry : 0/0
 10225 ;;		On exit  : 0/0
 10226 ;;		Unchanged: 0/0
 10227 ;; Data sizes:     COMRAM   BANK0   BANK1   BANK2   BANK3   BANK4   BANK5   BANK6   BANK7   BANK8   BANK9  BANK10  BANK1
      +1  BANK12  BANK13  BANK14  BANK15  BANK16  BANK17  BANK18  BANK19  BANK20  BANK21  BANK22  BANK23  BANK24  BANK25  BANK2
      +6  BANK27  BANK28  BANK29  BANK30  BANK31
 10228 ;;      Params:         0       0       0       0       0       0       0       0       0       0       0       0       
      +0       0       0       0       0       0       0       0       0       0       0       0       0       0       0       
      +0       0       0       0       0       0
 10229 ;;      Locals:         0       0       0       0       0       0       0       0       0       0       0       0       
      +0       0       0       0       0       0       0       0       0       0       0       0       0       0       0       
      +0       0       0       0       0       0
 10230 ;;      Temps:          0       0       0       0       0       0       0       0       0       0       0       0       
      +0       0       0       0       0       0       0       0       0       0       0       0       0       0       0       
      +0       0       0       0       0       0
 10231 ;;      Totals:         0       0       0       0       0       0       0       0       0       0       0       0       
      +0       0       0       0       0       0       0       0       0       0       0       0       0       0       0       
      +0       0       0       0       0       0
 10232 ;;Total ram usage:        0 bytes
 10233 ;; Hardware stack levels used:    1
 10234 ;; Hardware stack levels required when called:    6
 10235 ;; This function calls:
 10236 ;;		_LCD_Cmd
 10237 ;; This function is called by:
 10238 ;;		_LCD_printAccepted
 10239 ;;		_LCD_printDeclined
 10240 ;;		_verifyInterfaceOptions
 10241 ;;		_main
 10242 ;; This function uses a non-reentrant model
 10243 ;;
 10244                           
 10245                           	psect	text49
 10246  0134B4                     __ptext49:
 10247                           	opt stack 0
 10248  0134B4                     _LCD_Cursor_Blink_Off:
 10249                           	opt stack 23
 10250                           
 10251                           ;lcd.c: 103: LCD_Cmd(0x0C);
 10252                           
 10253                           ;incstack = 0
 10254  0134B4  0E0C               	movlw	12
 10255  0134B6  ECBD  F099         	call	_LCD_Cmd
 10256  0134BA  0012               	return		;funcret
 10257  0134BC                     __end_of_LCD_Cursor_Blink_Off:
 10258                           	opt stack 0
 10259                           
 10260 ;; *************** function _LCD_Cursor_Right *****************
 10261 ;; Defined at:
 10262 ;;		line 106 in file "lcd.c"
 10263 ;; Parameters:    Size  Location     Type
 10264 ;;		None
 10265 ;; Auto vars:     Size  Location     Type
 10266 ;;		None
 10267 ;; Return value:  Size  Location     Type
 10268 ;;                  1    wreg      void 
 10269 ;; Registers used:
 10270 ;;		wreg, status,2, cstack
 10271 ;; Tracked objects:
 10272 ;;		On entry : 0/0
 10273 ;;		On exit  : 0/0
 10274 ;;		Unchanged: 0/0
 10275 ;; Data sizes:     COMRAM   BANK0   BANK1   BANK2   BANK3   BANK4   BANK5   BANK6   BANK7   BANK8   BANK9  BANK10  BANK1
      +1  BANK12  BANK13  BANK14  BANK15  BANK16  BANK17  BANK18  BANK19  BANK20  BANK21  BANK22  BANK23  BANK24  BANK25  BANK2
      +6  BANK27  BANK28  BANK29  BANK30  BANK31
 10276 ;;      Params:         0       0       0       0       0       0       0       0       0       0       0       0       
      +0       0       0       0       0       0       0       0       0       0       0       0       0       0       0       
      +0       0       0       0       0       0
 10277 ;;      Locals:         0       0       0       0       0       0       0       0       0       0       0       0       
      +0       0       0       0       0       0       0       0       0       0       0       0       0       0       0       
      +0       0       0       0       0       0
 10278 ;;      Temps:          0       0       0       0       0       0       0       0       0       0       0       0       
      +0       0       0       0       0       0       0       0       0       0       0       0       0       0       0       
      +0       0       0       0       0       0
 10279 ;;      Totals:         0       0       0       0       0       0       0       0       0       0       0       0       
      +0       0       0       0       0       0       0       0       0       0       0       0       0       0       0       
      +0       0       0       0       0       0
 10280 ;;Total ram usage:        0 bytes
 10281 ;; Hardware stack levels used:    1
 10282 ;; Hardware stack levels required when called:    6
 10283 ;; This function calls:
 10284 ;;		_LCD_Cmd
 10285 ;; This function is called by:
 10286 ;;		_main
 10287 ;; This function uses a non-reentrant model
 10288 ;;
 10289                           
 10290                           	psect	text50
 10291  0134BC                     __ptext50:
 10292                           	opt stack 0
 10293  0134BC                     _LCD_Cursor_Right:
 10294                           	opt stack 24
 10295                           
 10296                           ;lcd.c: 108: LCD_Cmd(0x14);
 10297                           
 10298                           ;incstack = 0
 10299  0134BC  0E14               	movlw	20
 10300  0134BE  ECBD  F099         	call	_LCD_Cmd
 10301  0134C2  0012               	return		;funcret
 10302  0134C4                     __end_of_LCD_Cursor_Right:
 10303                           	opt stack 0
 10304                           
 10305 ;; *************** function _LCD_Cursor_Left *****************
 10306 ;; Defined at:
 10307 ;;		line 111 in file "lcd.c"
 10308 ;; Parameters:    Size  Location     Type
 10309 ;;		None
 10310 ;; Auto vars:     Size  Location     Type
 10311 ;;		None
 10312 ;; Return value:  Size  Location     Type
 10313 ;;                  1    wreg      void 
 10314 ;; Registers used:
 10315 ;;		wreg, status,2, cstack
 10316 ;; Tracked objects:
 10317 ;;		On entry : 0/0
 10318 ;;		On exit  : 0/0
 10319 ;;		Unchanged: 0/0
 10320 ;; Data sizes:     COMRAM   BANK0   BANK1   BANK2   BANK3   BANK4   BANK5   BANK6   BANK7   BANK8   BANK9  BANK10  BANK1
      +1  BANK12  BANK13  BANK14  BANK15  BANK16  BANK17  BANK18  BANK19  BANK20  BANK21  BANK22  BANK23  BANK24  BANK25  BANK2
      +6  BANK27  BANK28  BANK29  BANK30  BANK31
 10321 ;;      Params:         0       0       0       0       0       0       0       0       0       0       0       0       
      +0       0       0       0       0       0       0       0       0       0       0       0       0       0       0       
      +0       0       0       0       0       0
 10322 ;;      Locals:         0       0       0       0       0       0       0       0       0       0       0       0       
      +0       0       0       0       0       0       0       0       0       0       0       0       0       0       0       
      +0       0       0       0       0       0
 10323 ;;      Temps:          0       0       0       0       0       0       0       0       0       0       0       0       
      +0       0       0       0       0       0       0       0       0       0       0       0       0       0       0       
      +0       0       0       0       0       0
 10324 ;;      Totals:         0       0       0       0       0       0       0       0       0       0       0       0       
      +0       0       0       0       0       0       0       0       0       0       0       0       0       0       0       
      +0       0       0       0       0       0
 10325 ;;Total ram usage:        0 bytes
 10326 ;; Hardware stack levels used:    1
 10327 ;; Hardware stack levels required when called:    6
 10328 ;; This function calls:
 10329 ;;		_LCD_Cmd
 10330 ;; This function is called by:
 10331 ;;		_main
 10332 ;; This function uses a non-reentrant model
 10333 ;;
 10334                           
 10335                           	psect	text51
 10336  0134C4                     __ptext51:
 10337                           	opt stack 0
 10338  0134C4                     _LCD_Cursor_Left:
 10339                           	opt stack 24
 10340                           
 10341                           ;lcd.c: 113: LCD_Cmd(0x10);
 10342                           
 10343                           ;incstack = 0
 10344  0134C4  0E10               	movlw	16
 10345  0134C6  ECBD  F099         	call	_LCD_Cmd
 10346  0134CA  0012               	return		;funcret
 10347  0134CC                     __end_of_LCD_Cursor_Left:
 10348                           	opt stack 0
 10349                           
 10350 ;; *************** function _LCD_Cmd *****************
 10351 ;; Defined at:
 10352 ;;		line 43 in file "lcd.c"
 10353 ;; Parameters:    Size  Location     Type
 10354 ;;  b               1    wreg     unsigned char 
 10355 ;; Auto vars:     Size  Location     Type
 10356 ;;  b               1   12[COMRAM] unsigned char 
 10357 ;; Return value:  Size  Location     Type
 10358 ;;                  1    wreg      void 
 10359 ;; Registers used:
 10360 ;;		wreg, status,2, cstack
 10361 ;; Tracked objects:
 10362 ;;		On entry : 0/0
 10363 ;;		On exit  : 0/0
 10364 ;;		Unchanged: 0/0
 10365 ;; Data sizes:     COMRAM   BANK0   BANK1   BANK2   BANK3   BANK4   BANK5   BANK6   BANK7   BANK8   BANK9  BANK10  BANK1
      +1  BANK12  BANK13  BANK14  BANK15  BANK16  BANK17  BANK18  BANK19  BANK20  BANK21  BANK22  BANK23  BANK24  BANK25  BANK2
      +6  BANK27  BANK28  BANK29  BANK30  BANK31
 10366 ;;      Params:         0       0       0       0       0       0       0       0       0       0       0       0       
      +0       0       0       0       0       0       0       0       0       0       0       0       0       0       0       
      +0       0       0       0       0       0
 10367 ;;      Locals:         1       0       0       0       0       0       0       0       0       0       0       0       
      +0       0       0       0       0       0       0       0       0       0       0       0       0       0       0       
      +0       0       0       0       0       0
 10368 ;;      Temps:          0       0       0       0       0       0       0       0       0       0       0       0       
      +0       0       0       0       0       0       0       0       0       0       0       0       0       0       0       
      +0       0       0       0       0       0
 10369 ;;      Totals:         1       0       0       0       0       0       0       0       0       0       0       0       
      +0       0       0       0       0       0       0       0       0       0       0       0       0       0       0       
      +0       0       0       0       0       0
 10370 ;;Total ram usage:        1 bytes
 10371 ;; Hardware stack levels used:    1
 10372 ;; Hardware stack levels required when called:    5
 10373 ;; This function calls:
 10374 ;;		Nothing
 10375 ;; This function is called by:
 10376 ;;		_LCD_Initialize
 10377 ;;		_LCD_Set_Cursor
 10378 ;;		_LCD_Cursor_Blink_On
 10379 ;;		_LCD_Cursor_Blink_Off
 10380 ;;		_LCD_Cursor_Right
 10381 ;;		_LCD_Cursor_Left
 10382 ;; This function uses a non-reentrant model
 10383 ;;
 10384                           
 10385                           	psect	text52
 10386  01337A                     __ptext52:
 10387                           	opt stack 0
 10388  01337A                     _LCD_Cmd:
 10389                           	opt stack 23
 10390                           
 10391                           ;incstack = 0
 10392                           ;LCD_Cmd@b stored from wreg
 10393  01337A  6E2E               	movwf	LCD_Cmd@b,c
 10394                           
 10395                           ;lcd.c: 45: LATCbits.LATC6 = 0;
 10396  01337C  013F               	movlb	63	; () banked
 10397  01337E  9DBC               	bcf	188,6,b	;volatile
 10398                           
 10399                           ; BSR set to: 63
 10400                           ;lcd.c: 46: LATD = b;
 10401  013380  0060  F0BB  FFBD   	movff	LCD_Cmd@b,16317	;volatile
 10402                           
 10403                           ; BSR set to: 63
 10404                           ;lcd.c: 47: LATCbits.LATC7 = 1;
 10405  013386  8FBC               	bsf	188,7,b	;volatile
 10406                           
 10407                           ; BSR set to: 63
 10408                           ;lcd.c: 48: _delay((unsigned long)((50)*(8000000/4000000.0)));
 10409  013388  0E21               	movlw	33
 10410  01338A                     u9757:
 10411  01338A  2EE8               	decfsz	16360,f,c
 10412  01338C  D7FE               	bra	u9757
 10413  01338E  F000               	nop	
 10414                           
 10415                           ;lcd.c: 49: LATCbits.LATC7 = 0;
 10416  013390  013F               	movlb	63	; () banked
 10417  013392  9FBC               	bcf	188,7,b	;volatile
 10418                           
 10419                           ; BSR set to: 63
 10420  013394  0012               	return		;funcret
 10421  013396                     __end_of_LCD_Cmd:
 10422                           	opt stack 0
 10423                           
 10424 ;; *************** function _ISR *****************
 10425 ;; Defined at:
 10426 ;;		line 45 in file "beeper.c"
 10427 ;; Parameters:    Size  Location     Type
 10428 ;;		None
 10429 ;; Auto vars:     Size  Location     Type
 10430 ;;		None
 10431 ;; Return value:  Size  Location     Type
 10432 ;;                  1    wreg      void 
 10433 ;; Registers used:
 10434 ;;		wreg, fsr2l, fsr2h, status,2, status,0, tblptrl, tblptrh, tblptru, cstack
 10435 ;; Tracked objects:
 10436 ;;		On entry : 0/0
 10437 ;;		On exit  : 0/0
 10438 ;;		Unchanged: 0/0
 10439 ;; Data sizes:     COMRAM   BANK0   BANK1   BANK2   BANK3   BANK4   BANK5   BANK6   BANK7   BANK8   BANK9  BANK10  BANK1
      +1  BANK12  BANK13  BANK14  BANK15  BANK16  BANK17  BANK18  BANK19  BANK20  BANK21  BANK22  BANK23  BANK24  BANK25  BANK2
      +6  BANK27  BANK28  BANK29  BANK30  BANK31
 10440 ;;      Params:         0       0       0       0       0       0       0       0       0       0       0       0       
      +0       0       0       0       0       0       0       0       0       0       0       0       0       0       0       
      +0       0       0       0       0       0
 10441 ;;      Locals:         0       0       0       0       0       0       0       0       0       0       0       0       
      +0       0       0       0       0       0       0       0       0       0       0       0       0       0       0       
      +0       0       0       0       0       0
 10442 ;;      Temps:          4       0       0       0       0       0       0       0       0       0       0       0       
      +0       0       0       0       0       0       0       0       0       0       0       0       0       0       0       
      +0       0       0       0       0       0
 10443 ;;      Totals:         4       0       0       0       0       0       0       0       0       0       0       0       
      +0       0       0       0       0       0       0       0       0       0       0       0       0       0       0       
      +0       0       0       0       0       0
 10444 ;;Total ram usage:        4 bytes
 10445 ;; Hardware stack levels used:    1
 10446 ;; Hardware stack levels required when called:    4
 10447 ;; This function calls:
 10448 ;;		_countdown_drop_timer
 10449 ;;		i2_LCD_Set_Cursor
 10450 ;;		i2_LCD_Write_String
 10451 ;; This function is called by:
 10452 ;;		Interrupt level 2
 10453 ;; This function uses a non-reentrant model
 10454 ;;
 10455                           
 10456                           	psect	text53
 10457  0128AC                     __ptext53:
 10458                           	opt stack 0
 10459  0128AC                     _ISR:
 10460                           	opt stack 22
 10461                           
 10462                           ; BSR set to: 63
 10463                           ;incstack = 0
 10464  0128AC  006F FFD8  F02A    	movff	16374,??_ISR
 10465  0128B2  006F FFDC  F02B    	movff	16375,??_ISR+1
 10466  0128B8  006F FFE0  F02C    	movff	16376,??_ISR+2
 10467  0128BE  006F FFD4  F02D    	movff	16373,??_ISR+3
 10468                           
 10469                           ;beeper.c: 48: if (PIR4bits.TMR1IF == 1)
 10470  0128C4  0139               	movlb	57	; () banked
 10471  0128C6  A1A4               	btfss	164,0,b	;volatile
 10472  0128C8  D009               	goto	i2l112
 10473                           
 10474                           ; BSR set to: 57
 10475                           ;beeper.c: 49: {;beeper.c: 50: PWM5CONbits.EN = 0;
 10476  0128CA  013F               	movlb	63	; () banked
 10477  0128CC  9F6E               	bcf	110,7,b	;volatile
 10478                           
 10479                           ;beeper.c: 51: LATAbits.LATA0 = 0;
 10480  0128CE  91BA               	bcf	186,0,b	;volatile
 10481                           
 10482                           ;beeper.c: 52: T1CONbits.ON = 0;
 10483  0128D0  91B2               	bcf	178,0,b	;volatile
 10484                           
 10485                           ;beeper.c: 53: PIR4bits.TMR1IF = 0;
 10486  0128D2  0139               	movlb	57	; () banked
 10487  0128D4  91A4               	bcf	164,0,b	;volatile
 10488                           
 10489                           ; BSR set to: 57
 10490                           ;beeper.c: 54: T2PR = 0x72;
 10491  0128D6  0E72               	movlw	114
 10492  0128D8  013F               	movlb	63	; () banked
 10493  0128DA  6FAB               	movwf	171,b	;volatile
 10494  0128DC                     i2l112:
 10495                           
 10496                           ;beeper.c: 55: };beeper.c: 58: if (PIR3bits.TMR0IF == 1)
 10497                           
 10498                           ; BSR set to: 63
 10499  0128DC  0139               	movlb	57	; () banked
 10500  0128DE  AFA3               	btfss	163,7,b	;volatile
 10501  0128E0  D03A               	goto	i2l116
 10502                           
 10503                           ; BSR set to: 57
 10504                           ;beeper.c: 59: {;beeper.c: 60: PIR3bits.TMR0IF = 0;
 10505  0128E2  9FA3               	bcf	163,7,b	;volatile
 10506                           
 10507                           ;beeper.c: 61: T0CON0bits.EN = 0;
 10508  0128E4  013F               	movlb	63	; () banked
 10509  0128E6  9FB8               	bcf	184,7,b	;volatile
 10510                           
 10511                           ; BSR set to: 63
 10512                           ;beeper.c: 63: countdown_drop_timer();
 10513  0128E8  ECC3  F093         	call	_countdown_drop_timer	;wreg free
 10514                           
 10515                           ;beeper.c: 65: if (status == armed)
 10516  0128EC  501F               	movf	_armed,w,c
 10517  0128EE  1845               	xorwf	_status,w,c
 10518  0128F0  E10B               	bnz	i2l4973
 10519  0128F2  5020               	movf	_armed+1,w,c
 10520  0128F4  1846               	xorwf	_status+1,w,c
 10521  0128F6  A4D8               	btfss	16344,2,c
 10522  0128F8  D007               	goto	i2l114
 10523                           
 10524                           ;beeper.c: 66: {;beeper.c: 67: TMR0H = 0x63;
 10525  0128FA  0E63               	movlw	99
 10526  0128FC  013F               	movlb	63	; () banked
 10527  0128FE  6FB7               	movwf	183,b	;volatile
 10528                           
 10529                           ;beeper.c: 68: TMR0L = 0xBF;
 10530  012900  0EBF               	movlw	191
 10531  012902  6FB6               	movwf	182,b	;volatile
 10532                           
 10533                           ; BSR set to: 63
 10534                           ;beeper.c: 69: T0CON0bits.EN = 1;
 10535  012904  8FB8               	bsf	184,7,b	;volatile
 10536                           
 10537                           ;beeper.c: 70: }
 10538  012906  D027               	goto	i2l116
 10539  012908                     i2l114:
 10540  012908                     i2l4973:
 10541                           
 10542                           ;beeper.c: 72: else if (status == exploded)
 10543  012908  501B               	movf	_exploded,w,c
 10544  01290A  1845               	xorwf	_status,w,c
 10545  01290C  E124               	bnz	i2l117
 10546  01290E  501C               	movf	_exploded+1,w,c
 10547  012910  1846               	xorwf	_status+1,w,c
 10548  012912  A4D8               	btfss	16344,2,c
 10549  012914  D020               	goto	i2l116
 10550                           
 10551                           ;beeper.c: 73: {;beeper.c: 74: LCD_Set_Cursor(1,1);
 10552  012916  0E00               	movlw	0
 10553  012918  6E24               	movwf	i2LCD_Set_Cursor@c+1,c
 10554  01291A  0E01               	movlw	1
 10555  01291C  6E23               	movwf	i2LCD_Set_Cursor@c,c
 10556  01291E  0E00               	movlw	0
 10557  012920  6E26               	movwf	i2LCD_Set_Cursor@d+1,c
 10558  012922  0E01               	movlw	1
 10559  012924  6E25               	movwf	i2LCD_Set_Cursor@d,c
 10560  012926  ECF8  F098         	call	i2_LCD_Set_Cursor	;wreg free
 10561                           
 10562                           ;beeper.c: 75: LCD_Write_String("DONE  ");
 10563  01292A  0EF7               	movlw	low STR_1
 10564  01292C  6E23               	movwf	i2LCD_Write_String@f,c
 10565  01292E  0EFF               	movlw	high STR_1
 10566  012930  6E24               	movwf	i2LCD_Write_String@f+1,c
 10567  012932  EC01  F097         	call	i2_LCD_Write_String	;wreg free
 10568                           
 10569                           ;beeper.c: 76: LCD_Set_Cursor(2,1);
 10570  012936  0E00               	movlw	0
 10571  012938  6E24               	movwf	i2LCD_Set_Cursor@c+1,c
 10572  01293A  0E02               	movlw	2
 10573  01293C  6E23               	movwf	i2LCD_Set_Cursor@c,c
 10574  01293E  0E00               	movlw	0
 10575  012940  6E26               	movwf	i2LCD_Set_Cursor@d+1,c
 10576  012942  0E01               	movlw	1
 10577  012944  6E25               	movwf	i2LCD_Set_Cursor@d,c
 10578  012946  ECF8  F098         	call	i2_LCD_Set_Cursor	;wreg free
 10579                           
 10580                           ;beeper.c: 77: LCD_Write_String("    EXPLODED    ");
 10581  01294A  0EAE               	movlw	low STR_2
 10582  01294C  6E23               	movwf	i2LCD_Write_String@f,c
 10583  01294E  0EFF               	movlw	high STR_2
 10584  012950  6E24               	movwf	i2LCD_Write_String@f+1,c
 10585  012952  EC01  F097         	call	i2_LCD_Write_String	;wreg free
 10586  012956                     i2l116:
 10587  012956                     i2l117:
 10588  012956  0060  F0B7  FFF5   	movff	??_ISR+3,16373
 10589  01295C  0060  F0B3  FFF8   	movff	??_ISR+2,16376
 10590  012962  0060  F0AF  FFF7   	movff	??_ISR+1,16375
 10591  012968  0060  F0AB  FFF6   	movff	??_ISR,16374
 10592  01296E  0011               	retfie		f
 10593  012970                     __end_of_ISR:
 10594                           	opt stack 0
 10595                           
 10596 ;; *************** function i2_LCD_Write_String *****************
 10597 ;; Defined at:
 10598 ;;		line 89 in file "lcd.c"
 10599 ;; Parameters:    Size  Location     Type
 10600 ;;  f               2    1[COMRAM] PTR unsigned char 
 10601 ;;		 -> STR_36(17), STR_35(17), STR_34(17), STR_33(17), 
 10602 ;;		 -> STR_32(17), STR_31(17), STR_30(17), STR_29(17), 
 10603 ;;		 -> STR_28(17), STR_27(17), STR_26(17), STR_25(17), 
 10604 ;;		 -> STR_24(17), STR_23(17), STR_22(17), STR_21(17), 
 10605 ;;		 -> STR_20(17), STR_19(17), STR_18(17), STR_17(13), 
 10606 ;;		 -> STR_16(17), STR_15(17), STR_14(17), STR_13(7), 
 10607 ;;		 -> STR_12(9), STR_11(7), STR_10(9), STR_9(17), 
 10608 ;;		 -> STR_8(9), STR_7(9), STR_6(17), STR_5(9), 
 10609 ;;		 -> STR_4(9), STR_3(17), STR_2(17), STR_1(7), 
 10610 ;; Auto vars:     Size  Location     Type
 10611 ;;  LCD_Write_St    2    5[COMRAM] int 
 10612 ;; Return value:  Size  Location     Type
 10613 ;;                  1    wreg      void 
 10614 ;; Registers used:
 10615 ;;		wreg, status,2, status,0, tblptrl, tblptrh, tblptru, cstack
 10616 ;; Tracked objects:
 10617 ;;		On entry : 0/0
 10618 ;;		On exit  : 0/0
 10619 ;;		Unchanged: 0/0
 10620 ;; Data sizes:     COMRAM   BANK0   BANK1   BANK2   BANK3   BANK4   BANK5   BANK6   BANK7   BANK8   BANK9  BANK10  BANK1
      +1  BANK12  BANK13  BANK14  BANK15  BANK16  BANK17  BANK18  BANK19  BANK20  BANK21  BANK22  BANK23  BANK24  BANK25  BANK2
      +6  BANK27  BANK28  BANK29  BANK30  BANK31
 10621 ;;      Params:         2       0       0       0       0       0       0       0       0       0       0       0       
      +0       0       0       0       0       0       0       0       0       0       0       0       0       0       0       
      +0       0       0       0       0       0
 10622 ;;      Locals:         2       0       0       0       0       0       0       0       0       0       0       0       
      +0       0       0       0       0       0       0       0       0       0       0       0       0       0       0       
      +0       0       0       0       0       0
 10623 ;;      Temps:          2       0       0       0       0       0       0       0       0       0       0       0       
      +0       0       0       0       0       0       0       0       0       0       0       0       0       0       0       
      +0       0       0       0       0       0
 10624 ;;      Totals:         6       0       0       0       0       0       0       0       0       0       0       0       
      +0       0       0       0       0       0       0       0       0       0       0       0       0       0       0       
      +0       0       0       0       0       0
 10625 ;;Total ram usage:        6 bytes
 10626 ;; Hardware stack levels used:    1
 10627 ;; Hardware stack levels required when called:    1
 10628 ;; This function calls:
 10629 ;;		i2_LCD_Write_Char
 10630 ;; This function is called by:
 10631 ;;		_ISR
 10632 ;; This function uses a non-reentrant model
 10633 ;;
 10634                           
 10635                           	psect	text54
 10636  012E02                     __ptext54:
 10637                           	opt stack 0
 10638  012E02                     i2_LCD_Write_String:
 10639                           	opt stack 24
 10640                           
 10641                           ;lcd.c: 91: int i;;lcd.c: 92: for(i=0;f[i]!='\0';i++)
 10642                           
 10643                           ;incstack = 0
 10644  012E02  0E00               	movlw	0
 10645  012E04  6E28               	movwf	i2LCD_Write_String@i+1,c
 10646  012E06  0E00               	movlw	0
 10647  012E08  6E27               	movwf	i2LCD_Write_String@i,c
 10648  012E0A  D012               	goto	i2l560
 10649  012E0C                     
 10650                           ;lcd.c: 93: LCD_Write_Char(f[i]);
 10651  012E0C  5027               	movf	i2LCD_Write_String@i,w,c
 10652  012E0E  2423               	addwf	i2LCD_Write_String@f,w,c
 10653  012E10  6E25               	movwf	??i2_LCD_Write_String& (0+255),c
 10654  012E12  5028               	movf	i2LCD_Write_String@i+1,w,c
 10655  012E14  2024               	addwfc	i2LCD_Write_String@f+1,w,c
 10656  012E16  6E26               	movwf	(??i2_LCD_Write_String+1)& (0+255),c
 10657  012E18  0060  F097  FFF6   	movff	??i2_LCD_Write_String,16374
 10658  012E1E  0060  F09B  FFF7   	movff	??i2_LCD_Write_String+1,16375
 10659  012E24                     	if	0	;tblptru may be non-zero
 10660  012E24                     	endif
 10661  012E24                     	if	0	;tblptru may be non-zero
 10662  012E24                     	endif
 10663  012E24  0008               	tblrd		*
 10664  012E26  50F5               	movf	16373,w,c
 10665  012E28  EC6C  F099         	call	i2_LCD_Write_Char
 10666  012E2C  4A27               	infsnz	i2LCD_Write_String@i,f,c
 10667  012E2E  2A28               	incf	i2LCD_Write_String@i+1,f,c
 10668  012E30                     i2l560:
 10669  012E30  5027               	movf	i2LCD_Write_String@i,w,c
 10670  012E32  2423               	addwf	i2LCD_Write_String@f,w,c
 10671  012E34  6E25               	movwf	??i2_LCD_Write_String& (0+255),c
 10672  012E36  5028               	movf	i2LCD_Write_String@i+1,w,c
 10673  012E38  2024               	addwfc	i2LCD_Write_String@f+1,w,c
 10674  012E3A  6E26               	movwf	(??i2_LCD_Write_String+1)& (0+255),c
 10675  012E3C  0060  F097  FFF6   	movff	??i2_LCD_Write_String,16374
 10676  012E42  0060  F09B  FFF7   	movff	??i2_LCD_Write_String+1,16375
 10677  012E48                     	if	0	;tblptru may be non-zero
 10678  012E48                     	endif
 10679  012E48                     	if	0	;tblptru may be non-zero
 10680  012E48                     	endif
 10681  012E48  0008               	tblrd		*
 10682  012E4A  50F5               	movf	16373,w,c
 10683  012E4C  0900               	iorlw	0
 10684  012E4E  B4D8               	btfsc	16344,2,c
 10685  012E50  0012               	return	
 10686  012E52  D7DC               	goto	i2l561
 10687  012E54                     __end_ofi2_LCD_Write_String:
 10688                           	opt stack 0
 10689                           
 10690 ;; *************** function _countdown_drop_timer *****************
 10691 ;; Defined at:
 10692 ;;		line 144 in file "countdown.c"
 10693 ;; Parameters:    Size  Location     Type
 10694 ;;		None
 10695 ;; Auto vars:     Size  Location     Type
 10696 ;;		None
 10697 ;; Return value:  Size  Location     Type
 10698 ;;                  1    wreg      void 
 10699 ;; Registers used:
 10700 ;;		wreg, fsr2l, fsr2h, status,2, status,0, cstack
 10701 ;; Tracked objects:
 10702 ;;		On entry : 0/0
 10703 ;;		On exit  : 0/0
 10704 ;;		Unchanged: 0/0
 10705 ;; Data sizes:     COMRAM   BANK0   BANK1   BANK2   BANK3   BANK4   BANK5   BANK6   BANK7   BANK8   BANK9  BANK10  BANK1
      +1  BANK12  BANK13  BANK14  BANK15  BANK16  BANK17  BANK18  BANK19  BANK20  BANK21  BANK22  BANK23  BANK24  BANK25  BANK2
      +6  BANK27  BANK28  BANK29  BANK30  BANK31
 10706 ;;      Params:         0       0       0       0       0       0       0       0       0       0       0       0       
      +0       0       0       0       0       0       0       0       0       0       0       0       0       0       0       
      +0       0       0       0       0       0
 10707 ;;      Locals:         0       0       0       0       0       0       0       0       0       0       0       0       
      +0       0       0       0       0       0       0       0       0       0       0       0       0       0       0       
      +0       0       0       0       0       0
 10708 ;;      Temps:          0       0       0       0       0       0       0       0       0       0       0       0       
      +0       0       0       0       0       0       0       0       0       0       0       0       0       0       0       
      +0       0       0       0       0       0
 10709 ;;      Totals:         0       0       0       0       0       0       0       0       0       0       0       0       
      +0       0       0       0       0       0       0       0       0       0       0       0       0       0       0       
      +0       0       0       0       0       0
 10710 ;;Total ram usage:        0 bytes
 10711 ;; Hardware stack levels used:    1
 10712 ;; Hardware stack levels required when called:    3
 10713 ;; This function calls:
 10714 ;;		_countdown_now_num2str
 10715 ;;		_endBeep
 10716 ;;		i2_LCD_printNowCountdown
 10717 ;;		i2_countdownStop
 10718 ;;		i2_normalBeep
 10719 ;;		i2_serialSend
 10720 ;; This function is called by:
 10721 ;;		_ISR
 10722 ;; This function uses a non-reentrant model
 10723 ;;
 10724                           
 10725                           	psect	text55
 10726  012786                     __ptext55:
 10727                           	opt stack 0
 10728  012786                     _countdown_drop_timer:
 10729                           	opt stack 22
 10730                           
 10731                           ;countdown.c: 146: if(numCountdownNowTime[5]!=0){numCountdownNowTime[5]--;}
 10732                           
 10733                           ;incstack = 0
 10734  012786  500B               	movf	_numCountdownNowTime+10,w,c	;volatile
 10735  012788  100C               	iorwf	_numCountdownNowTime+11,w,c	;volatile
 10736  01278A  B4D8               	btfsc	16344,2,c
 10737  01278C  D004               	goto	i2l335
 10738  01278E  060B               	decf	_numCountdownNowTime+10,f,c	;volatile
 10739  012790  A0D8               	btfss	16344,0,c
 10740  012792  060C               	decf	_numCountdownNowTime+11,f,c	;volatile
 10741  012794  D086               	goto	i2l348
 10742  012796                     i2l335:
 10743                           
 10744                           ;countdown.c: 147: else;countdown.c: 148: {;countdown.c: 149: if (numCountdownNowTime[4]
      +                          !=0)
 10745  012796  5009               	movf	_numCountdownNowTime+8,w,c	;volatile
 10746  012798  100A               	iorwf	_numCountdownNowTime+9,w,c	;volatile
 10747  01279A  B4D8               	btfsc	16344,2,c
 10748  01279C  D008               	goto	i2l337
 10749                           
 10750                           ;countdown.c: 150: {;countdown.c: 152: numCountdownNowTime[5]=9;
 10751  01279E  0E00               	movlw	0
 10752  0127A0  6E0C               	movwf	_numCountdownNowTime+11,c	;volatile
 10753  0127A2  0E09               	movlw	9
 10754  0127A4  6E0B               	movwf	_numCountdownNowTime+10,c	;volatile
 10755                           
 10756                           ;countdown.c: 153: numCountdownNowTime[4]--;
 10757  0127A6  0609               	decf	_numCountdownNowTime+8,f,c	;volatile
 10758  0127A8  A0D8               	btfss	16344,0,c
 10759  0127AA  060A               	decf	_numCountdownNowTime+9,f,c	;volatile
 10760                           
 10761                           ;countdown.c: 154: }
 10762  0127AC  D07A               	goto	i2l348
 10763  0127AE                     i2l337:
 10764                           
 10765                           ;countdown.c: 155: else;countdown.c: 156: {;countdown.c: 158: if (numCountdownNowTime[3]
      +                          !=0)
 10766  0127AE  5007               	movf	_numCountdownNowTime+6,w,c	;volatile
 10767  0127B0  1008               	iorwf	_numCountdownNowTime+7,w,c	;volatile
 10768  0127B2  B4D8               	btfsc	16344,2,c
 10769  0127B4  D018               	goto	i2l339
 10770                           
 10771                           ;countdown.c: 159: {;countdown.c: 161: if (countdownBeeps == ON){normalBeep();serialSend
      +                          ('T');}
 10772  0127B6  5011               	movf	_ON,w,c
 10773  0127B8  1817               	xorwf	_countdownBeeps,w,c
 10774  0127BA  E109               	bnz	i2l4527
 10775  0127BC  5012               	movf	_ON+1,w,c
 10776  0127BE  1818               	xorwf	_countdownBeeps+1,w,c
 10777  0127C0  A4D8               	btfss	16344,2,c
 10778  0127C2  D005               	goto	i2l340
 10779  0127C4  EC26  F09A         	call	i2_normalBeep	;wreg free
 10780  0127C8  0E54               	movlw	84
 10781  0127CA  EC51  F09A         	call	i2_serialSend
 10782  0127CE                     i2l340:
 10783  0127CE                     i2l4527:
 10784                           
 10785                           ;countdown.c: 162: numCountdownNowTime[3]--;
 10786  0127CE  0607               	decf	_numCountdownNowTime+6,f,c	;volatile
 10787  0127D0  A0D8               	btfss	16344,0,c
 10788  0127D2  0608               	decf	_numCountdownNowTime+7,f,c	;volatile
 10789                           
 10790                           ;countdown.c: 163: numCountdownNowTime[5]=9;
 10791  0127D4  0E00               	movlw	0
 10792  0127D6  6E0C               	movwf	_numCountdownNowTime+11,c	;volatile
 10793  0127D8  0E09               	movlw	9
 10794  0127DA  6E0B               	movwf	_numCountdownNowTime+10,c	;volatile
 10795                           
 10796                           ;countdown.c: 164: numCountdownNowTime[4]=9;
 10797  0127DC  0E00               	movlw	0
 10798  0127DE  6E0A               	movwf	_numCountdownNowTime+9,c	;volatile
 10799  0127E0  0E09               	movlw	9
 10800  0127E2  6E09               	movwf	_numCountdownNowTime+8,c	;volatile
 10801                           
 10802                           ;countdown.c: 165: }
 10803  0127E4  D05E               	goto	i2l348
 10804  0127E6                     i2l339:
 10805                           
 10806                           ;countdown.c: 166: else;countdown.c: 167: {;countdown.c: 168: if (countdownBeeps == ON){
      +                          normalBeep();serialSend('T');}
 10807  0127E6  5011               	movf	_ON,w,c
 10808  0127E8  1817               	xorwf	_countdownBeeps,w,c
 10809  0127EA  E109               	bnz	i2l4539
 10810  0127EC  5012               	movf	_ON+1,w,c
 10811  0127EE  1818               	xorwf	_countdownBeeps+1,w,c
 10812  0127F0  A4D8               	btfss	16344,2,c
 10813  0127F2  D005               	goto	i2l342
 10814  0127F4  EC26  F09A         	call	i2_normalBeep	;wreg free
 10815  0127F8  0E54               	movlw	84
 10816  0127FA  EC51  F09A         	call	i2_serialSend
 10817  0127FE                     i2l342:
 10818  0127FE                     i2l4539:
 10819                           
 10820                           ;countdown.c: 169: if (numCountdownNowTime[2]!=0)
 10821  0127FE  5005               	movf	_numCountdownNowTime+4,w,c	;volatile
 10822  012800  1006               	iorwf	_numCountdownNowTime+5,w,c	;volatile
 10823  012802  B4D8               	btfsc	16344,2,c
 10824  012804  D010               	goto	i2l343
 10825                           
 10826                           ;countdown.c: 170: {;countdown.c: 172: numCountdownNowTime[2]--;
 10827  012806  0605               	decf	_numCountdownNowTime+4,f,c	;volatile
 10828  012808  A0D8               	btfss	16344,0,c
 10829  01280A  0606               	decf	_numCountdownNowTime+5,f,c	;volatile
 10830                           
 10831                           ;countdown.c: 173: numCountdownNowTime[5]=9;
 10832  01280C  0E00               	movlw	0
 10833  01280E  6E0C               	movwf	_numCountdownNowTime+11,c	;volatile
 10834  012810  0E09               	movlw	9
 10835  012812  6E0B               	movwf	_numCountdownNowTime+10,c	;volatile
 10836                           
 10837                           ;countdown.c: 174: numCountdownNowTime[4]=9;
 10838  012814  0E00               	movlw	0
 10839  012816  6E0A               	movwf	_numCountdownNowTime+9,c	;volatile
 10840  012818  0E09               	movlw	9
 10841  01281A  6E09               	movwf	_numCountdownNowTime+8,c	;volatile
 10842                           
 10843                           ;countdown.c: 175: numCountdownNowTime[3]=9;
 10844  01281C  0E00               	movlw	0
 10845  01281E  6E08               	movwf	_numCountdownNowTime+7,c	;volatile
 10846  012820  0E09               	movlw	9
 10847  012822  6E07               	movwf	_numCountdownNowTime+6,c	;volatile
 10848                           
 10849                           ;countdown.c: 176: }
 10850  012824  D03E               	goto	i2l348
 10851  012826                     i2l343:
 10852                           
 10853                           ;countdown.c: 177: else;countdown.c: 178: {;countdown.c: 180: if (numCountdownNowTime[1]
      +                          !=0)
 10854  012826  5003               	movf	_numCountdownNowTime+2,w,c	;volatile
 10855  012828  1004               	iorwf	_numCountdownNowTime+3,w,c	;volatile
 10856  01282A  B4D8               	btfsc	16344,2,c
 10857  01282C  D014               	goto	i2l345
 10858                           
 10859                           ;countdown.c: 181: {;countdown.c: 183: numCountdownNowTime[1]--;
 10860  01282E  0603               	decf	_numCountdownNowTime+2,f,c	;volatile
 10861  012830  A0D8               	btfss	16344,0,c
 10862  012832  0604               	decf	_numCountdownNowTime+3,f,c	;volatile
 10863                           
 10864                           ;countdown.c: 184: numCountdownNowTime[5]=9;
 10865  012834  0E00               	movlw	0
 10866  012836  6E0C               	movwf	_numCountdownNowTime+11,c	;volatile
 10867  012838  0E09               	movlw	9
 10868  01283A  6E0B               	movwf	_numCountdownNowTime+10,c	;volatile
 10869                           
 10870                           ;countdown.c: 185: numCountdownNowTime[4]=9;
 10871  01283C  0E00               	movlw	0
 10872  01283E  6E0A               	movwf	_numCountdownNowTime+9,c	;volatile
 10873  012840  0E09               	movlw	9
 10874  012842  6E09               	movwf	_numCountdownNowTime+8,c	;volatile
 10875                           
 10876                           ;countdown.c: 186: numCountdownNowTime[3]=9;
 10877  012844  0E00               	movlw	0
 10878  012846  6E08               	movwf	_numCountdownNowTime+7,c	;volatile
 10879  012848  0E09               	movlw	9
 10880  01284A  6E07               	movwf	_numCountdownNowTime+6,c	;volatile
 10881                           
 10882                           ;countdown.c: 187: numCountdownNowTime[2]=5;
 10883  01284C  0E00               	movlw	0
 10884  01284E  6E06               	movwf	_numCountdownNowTime+5,c	;volatile
 10885  012850  0E05               	movlw	5
 10886  012852  6E05               	movwf	_numCountdownNowTime+4,c	;volatile
 10887                           
 10888                           ;countdown.c: 188: }
 10889  012854  D026               	goto	i2l348
 10890  012856                     i2l345:
 10891                           
 10892                           ;countdown.c: 189: else;countdown.c: 190: {;countdown.c: 192: if (numCountdownNowTime[0]
      +                          !=0)
 10893  012856  5001               	movf	_numCountdownNowTime,w,c	;volatile
 10894  012858  1002               	iorwf	_numCountdownNowTime+1,w,c	;volatile
 10895  01285A  B4D8               	btfsc	16344,2,c
 10896  01285C  D018               	goto	i2l347
 10897                           
 10898                           ;countdown.c: 193: {;countdown.c: 194: numCountdownNowTime[0]--;
 10899  01285E  0601               	decf	_numCountdownNowTime,f,c	;volatile
 10900  012860  A0D8               	btfss	16344,0,c
 10901  012862  0602               	decf	_numCountdownNowTime+1,f,c	;volatile
 10902                           
 10903                           ;countdown.c: 195: numCountdownNowTime[5]=9;
 10904  012864  0E00               	movlw	0
 10905  012866  6E0C               	movwf	_numCountdownNowTime+11,c	;volatile
 10906  012868  0E09               	movlw	9
 10907  01286A  6E0B               	movwf	_numCountdownNowTime+10,c	;volatile
 10908                           
 10909                           ;countdown.c: 196: numCountdownNowTime[4]=9;
 10910  01286C  0E00               	movlw	0
 10911  01286E  6E0A               	movwf	_numCountdownNowTime+9,c	;volatile
 10912  012870  0E09               	movlw	9
 10913  012872  6E09               	movwf	_numCountdownNowTime+8,c	;volatile
 10914                           
 10915                           ;countdown.c: 197: numCountdownNowTime[3]=9;
 10916  012874  0E00               	movlw	0
 10917  012876  6E08               	movwf	_numCountdownNowTime+7,c	;volatile
 10918  012878  0E09               	movlw	9
 10919  01287A  6E07               	movwf	_numCountdownNowTime+6,c	;volatile
 10920                           
 10921                           ;countdown.c: 198: numCountdownNowTime[2]=5;
 10922  01287C  0E00               	movlw	0
 10923  01287E  6E06               	movwf	_numCountdownNowTime+5,c	;volatile
 10924  012880  0E05               	movlw	5
 10925  012882  6E05               	movwf	_numCountdownNowTime+4,c	;volatile
 10926                           
 10927                           ;countdown.c: 199: numCountdownNowTime[1]=9;
 10928  012884  0E00               	movlw	0
 10929  012886  6E04               	movwf	_numCountdownNowTime+3,c	;volatile
 10930  012888  0E09               	movlw	9
 10931  01288A  6E03               	movwf	_numCountdownNowTime+2,c	;volatile
 10932                           
 10933                           ;countdown.c: 200: }
 10934  01288C  D00A               	goto	i2l348
 10935  01288E                     i2l347:
 10936                           
 10937                           ;countdown.c: 201: else {countdownStop(); status = exploded; endBeep();}
 10938  01288E  EC69  F09A         	call	i2_countdownStop	;wreg free
 10939  012892  0060  F06C  F045   	movff	_exploded,_status
 10940  012898  0060  F070  F046   	movff	_exploded+1,_status+1
 10941  01289E  EC70  F095         	call	_endBeep	;wreg free
 10942  0128A2                     i2l348:
 10943                           
 10944                           ;countdown.c: 203: };countdown.c: 204: };countdown.c: 205: };countdown.c: 206: };countdo
      +                          wn.c: 207: };countdown.c: 209: countdown_now_num2str();
 10945  0128A2  ECA8  F08E         	call	_countdown_now_num2str	;wreg free
 10946                           
 10947                           ;countdown.c: 210: LCD_printNowCountdown();
 10948  0128A6  EC74  F097         	call	i2_LCD_printNowCountdown	;wreg free
 10949  0128AA  0012               	return		;funcret
 10950  0128AC                     __end_of_countdown_drop_timer:
 10951                           	opt stack 0
 10952                           
 10953 ;; *************** function i2_serialSend *****************
 10954 ;; Defined at:
 10955 ;;		line 31 in file "UART.c"
 10956 ;; Parameters:    Size  Location     Type
 10957 ;;  word            1    wreg     unsigned char 
 10958 ;; Auto vars:     Size  Location     Type
 10959 ;;  word            1    0[COMRAM] unsigned char 
 10960 ;; Return value:  Size  Location     Type
 10961 ;;                  1    wreg      void 
 10962 ;; Registers used:
 10963 ;;		wreg
 10964 ;; Tracked objects:
 10965 ;;		On entry : 0/0
 10966 ;;		On exit  : 0/0
 10967 ;;		Unchanged: 0/0
 10968 ;; Data sizes:     COMRAM   BANK0   BANK1   BANK2   BANK3   BANK4   BANK5   BANK6   BANK7   BANK8   BANK9  BANK10  BANK1
      +1  BANK12  BANK13  BANK14  BANK15  BANK16  BANK17  BANK18  BANK19  BANK20  BANK21  BANK22  BANK23  BANK24  BANK25  BANK2
      +6  BANK27  BANK28  BANK29  BANK30  BANK31
 10969 ;;      Params:         0       0       0       0       0       0       0       0       0       0       0       0       
      +0       0       0       0       0       0       0       0       0       0       0       0       0       0       0       
      +0       0       0       0       0       0
 10970 ;;      Locals:         1       0       0       0       0       0       0       0       0       0       0       0       
      +0       0       0       0       0       0       0       0       0       0       0       0       0       0       0       
      +0       0       0       0       0       0
 10971 ;;      Temps:          0       0       0       0       0       0       0       0       0       0       0       0       
      +0       0       0       0       0       0       0       0       0       0       0       0       0       0       0       
      +0       0       0       0       0       0
 10972 ;;      Totals:         1       0       0       0       0       0       0       0       0       0       0       0       
      +0       0       0       0       0       0       0       0       0       0       0       0       0       0       0       
      +0       0       0       0       0       0
 10973 ;;Total ram usage:        1 bytes
 10974 ;; Hardware stack levels used:    1
 10975 ;; This function calls:
 10976 ;;		Nothing
 10977 ;; This function is called by:
 10978 ;;		_countdown_drop_timer
 10979 ;; This function uses a non-reentrant model
 10980 ;;
 10981                           
 10982                           	psect	text56
 10983  0134A2                     __ptext56:
 10984                           	opt stack 0
 10985  0134A2                     i2_serialSend:
 10986                           	opt stack 24
 10987                           
 10988                           ;incstack = 0
 10989                           ;i2serialSend@word stored from wreg
 10990  0134A2  6E22               	movwf	i2serialSend@word,c
 10991                           
 10992                           ;UART.c: 33: U1TXB = word;
 10993  0134A4  0060  F08B  FDEA   	movff	i2serialSend@word,15850	;volatile
 10994  0134AA  0012               	return		;funcret
 10995  0134AC                     __end_ofi2_serialSend:
 10996                           	opt stack 0
 10997                           
 10998 ;; *************** function i2_normalBeep *****************
 10999 ;; Defined at:
 11000 ;;		line 110 in file "beeper.c"
 11001 ;; Parameters:    Size  Location     Type
 11002 ;;		None
 11003 ;; Auto vars:     Size  Location     Type
 11004 ;;		None
 11005 ;; Return value:  Size  Location     Type
 11006 ;;                  1    wreg      void 
 11007 ;; Registers used:
 11008 ;;		wreg, status,2
 11009 ;; Tracked objects:
 11010 ;;		On entry : 0/0
 11011 ;;		On exit  : 0/0
 11012 ;;		Unchanged: 0/0
 11013 ;; Data sizes:     COMRAM   BANK0   BANK1   BANK2   BANK3   BANK4   BANK5   BANK6   BANK7   BANK8   BANK9  BANK10  BANK1
      +1  BANK12  BANK13  BANK14  BANK15  BANK16  BANK17  BANK18  BANK19  BANK20  BANK21  BANK22  BANK23  BANK24  BANK25  BANK2
      +6  BANK27  BANK28  BANK29  BANK30  BANK31
 11014 ;;      Params:         0       0       0       0       0       0       0       0       0       0       0       0       
      +0       0       0       0       0       0       0       0       0       0       0       0       0       0       0       
      +0       0       0       0       0       0
 11015 ;;      Locals:         0       0       0       0       0       0       0       0       0       0       0       0       
      +0       0       0       0       0       0       0       0       0       0       0       0       0       0       0       
      +0       0       0       0       0       0
 11016 ;;      Temps:          0       0       0       0       0       0       0       0       0       0       0       0       
      +0       0       0       0       0       0       0       0       0       0       0       0       0       0       0       
      +0       0       0       0       0       0
 11017 ;;      Totals:         0       0       0       0       0       0       0       0       0       0       0       0       
      +0       0       0       0       0       0       0       0       0       0       0       0       0       0       0       
      +0       0       0       0       0       0
 11018 ;;Total ram usage:        0 bytes
 11019 ;; Hardware stack levels used:    1
 11020 ;; This function calls:
 11021 ;;		Nothing
 11022 ;; This function is called by:
 11023 ;;		_countdown_drop_timer
 11024 ;; This function uses a non-reentrant model
 11025 ;;
 11026                           
 11027                           	psect	text57
 11028  01344C                     __ptext57:
 11029                           	opt stack 0
 11030  01344C                     i2_normalBeep:
 11031                           	opt stack 24
 11032                           
 11033                           ;beeper.c: 112: TMR1H = 0xAE;
 11034                           
 11035                           ;incstack = 0
 11036  01344C  0EAE               	movlw	174
 11037  01344E  013F               	movlb	63	; () banked
 11038  013450  6FB1               	movwf	177,b	;volatile
 11039                           
 11040                           ;beeper.c: 113: TMR1L = 0x57;
 11041  013452  0E57               	movlw	87
 11042  013454  6FB0               	movwf	176,b	;volatile
 11043                           
 11044                           ; BSR set to: 63
 11045                           ;beeper.c: 114: PWM5CONbits.EN = 1;
 11046  013456  8F6E               	bsf	110,7,b	;volatile
 11047                           
 11048                           ; BSR set to: 63
 11049                           ;beeper.c: 115: LATAbits.LATA0 = 1;
 11050  013458  81BA               	bsf	186,0,b	;volatile
 11051                           
 11052                           ; BSR set to: 63
 11053                           ;beeper.c: 116: T1CONbits.ON = 1;
 11054  01345A  81B2               	bsf	178,0,b	;volatile
 11055                           
 11056                           ; BSR set to: 63
 11057  01345C  0012               	return		;funcret
 11058  01345E                     __end_ofi2_normalBeep:
 11059                           	opt stack 0
 11060                           
 11061 ;; *************** function i2_countdownStop *****************
 11062 ;; Defined at:
 11063 ;;		line 32 in file "countdown.c"
 11064 ;; Parameters:    Size  Location     Type
 11065 ;;		None
 11066 ;; Auto vars:     Size  Location     Type
 11067 ;;		None
 11068 ;; Return value:  Size  Location     Type
 11069 ;;                  1    wreg      void 
 11070 ;; Registers used:
 11071 ;;		None
 11072 ;; Tracked objects:
 11073 ;;		On entry : 0/0
 11074 ;;		On exit  : 0/0
 11075 ;;		Unchanged: 0/0
 11076 ;; Data sizes:     COMRAM   BANK0   BANK1   BANK2   BANK3   BANK4   BANK5   BANK6   BANK7   BANK8   BANK9  BANK10  BANK1
      +1  BANK12  BANK13  BANK14  BANK15  BANK16  BANK17  BANK18  BANK19  BANK20  BANK21  BANK22  BANK23  BANK24  BANK25  BANK2
      +6  BANK27  BANK28  BANK29  BANK30  BANK31
 11077 ;;      Params:         0       0       0       0       0       0       0       0       0       0       0       0       
      +0       0       0       0       0       0       0       0       0       0       0       0       0       0       0       
      +0       0       0       0       0       0
 11078 ;;      Locals:         0       0       0       0       0       0       0       0       0       0       0       0       
      +0       0       0       0       0       0       0       0       0       0       0       0       0       0       0       
      +0       0       0       0       0       0
 11079 ;;      Temps:          0       0       0       0       0       0       0       0       0       0       0       0       
      +0       0       0       0       0       0       0       0       0       0       0       0       0       0       0       
      +0       0       0       0       0       0
 11080 ;;      Totals:         0       0       0       0       0       0       0       0       0       0       0       0       
      +0       0       0       0       0       0       0       0       0       0       0       0       0       0       0       
      +0       0       0       0       0       0
 11081 ;;Total ram usage:        0 bytes
 11082 ;; Hardware stack levels used:    1
 11083 ;; This function calls:
 11084 ;;		Nothing
 11085 ;; This function is called by:
 11086 ;;		_countdown_drop_timer
 11087 ;; This function uses a non-reentrant model
 11088 ;;
 11089                           
 11090                           	psect	text58
 11091  0134D2                     __ptext58:
 11092                           	opt stack 0
 11093  0134D2                     i2_countdownStop:
 11094                           	opt stack 24
 11095                           
 11096                           ;countdown.c: 34: T0CON0bits.EN = 0;
 11097                           
 11098                           ; BSR set to: 63
 11099                           ;incstack = 0
 11100  0134D2  013F               	movlb	63	; () banked
 11101  0134D4  9FB8               	bcf	184,7,b	;volatile
 11102                           
 11103                           ; BSR set to: 63
 11104  0134D6  0012               	return		;funcret
 11105  0134D8                     __end_ofi2_countdownStop:
 11106                           	opt stack 0
 11107                           
 11108 ;; *************** function i2_LCD_printNowCountdown *****************
 11109 ;; Defined at:
 11110 ;;		line 153 in file "lcd.c"
 11111 ;; Parameters:    Size  Location     Type
 11112 ;;		None
 11113 ;; Auto vars:     Size  Location     Type
 11114 ;;  LCD_printNow    2    6[COMRAM] int 
 11115 ;; Return value:  Size  Location     Type
 11116 ;;                  1    wreg      void 
 11117 ;; Registers used:
 11118 ;;		wreg, fsr2l, fsr2h, status,2, status,0, cstack
 11119 ;; Tracked objects:
 11120 ;;		On entry : 0/0
 11121 ;;		On exit  : 0/0
 11122 ;;		Unchanged: 0/0
 11123 ;; Data sizes:     COMRAM   BANK0   BANK1   BANK2   BANK3   BANK4   BANK5   BANK6   BANK7   BANK8   BANK9  BANK10  BANK1
      +1  BANK12  BANK13  BANK14  BANK15  BANK16  BANK17  BANK18  BANK19  BANK20  BANK21  BANK22  BANK23  BANK24  BANK25  BANK2
      +6  BANK27  BANK28  BANK29  BANK30  BANK31
 11124 ;;      Params:         0       0       0       0       0       0       0       0       0       0       0       0       
      +0       0       0       0       0       0       0       0       0       0       0       0       0       0       0       
      +0       0       0       0       0       0
 11125 ;;      Locals:         2       0       0       0       0       0       0       0       0       0       0       0       
      +0       0       0       0       0       0       0       0       0       0       0       0       0       0       0       
      +0       0       0       0       0       0
 11126 ;;      Temps:          0       0       0       0       0       0       0       0       0       0       0       0       
      +0       0       0       0       0       0       0       0       0       0       0       0       0       0       0       
      +0       0       0       0       0       0
 11127 ;;      Totals:         2       0       0       0       0       0       0       0       0       0       0       0       
      +0       0       0       0       0       0       0       0       0       0       0       0       0       0       0       
      +0       0       0       0       0       0
 11128 ;;Total ram usage:        2 bytes
 11129 ;; Hardware stack levels used:    1
 11130 ;; Hardware stack levels required when called:    2
 11131 ;; This function calls:
 11132 ;;		i2_LCD_Set_Cursor
 11133 ;;		i2_LCD_Write_Char
 11134 ;; This function is called by:
 11135 ;;		_countdown_drop_timer
 11136 ;; This function uses a non-reentrant model
 11137 ;;
 11138                           
 11139                           	psect	text59
 11140  012EE8                     __ptext59:
 11141                           	opt stack 0
 11142  012EE8                     i2_LCD_printNowCountdown:
 11143                           	opt stack 22
 11144                           
 11145                           ;lcd.c: 155: for(int i=0;i<=7;i++)
 11146                           
 11147                           ; BSR set to: 63
 11148                           ;incstack = 0
 11149  012EE8  0E00               	movlw	0
 11150  012EEA  6E29               	movwf	i2LCD_printNowCountdown@i+1,c
 11151  012EEC  0E00               	movlw	0
 11152  012EEE  6E28               	movwf	i2LCD_printNowCountdown@i,c
 11153  012EF0                     i2l4495:
 11154  012EF0  BE29               	btfsc	i2LCD_printNowCountdown@i+1,7,c
 11155  012EF2  D006               	goto	i2l588
 11156  012EF4  5029               	movf	i2LCD_printNowCountdown@i+1,w,c
 11157  012EF6  E11C               	bnz	i2l590
 11158  012EF8  0E08               	movlw	8
 11159  012EFA  5C28               	subwf	i2LCD_printNowCountdown@i,w,c
 11160  012EFC  B0D8               	btfsc	16344,0,c
 11161  012EFE  0012               	return	
 11162  012F00                     i2l588:
 11163                           
 11164                           ;lcd.c: 156: {;lcd.c: 157: LCD_Set_Cursor(1,9+i);
 11165  012F00  0E00               	movlw	0
 11166  012F02  6E24               	movwf	i2LCD_Set_Cursor@c+1,c
 11167  012F04  0E01               	movlw	1
 11168  012F06  6E23               	movwf	i2LCD_Set_Cursor@c,c
 11169  012F08  0E09               	movlw	9
 11170  012F0A  2428               	addwf	i2LCD_printNowCountdown@i,w,c
 11171  012F0C  6E25               	movwf	i2LCD_Set_Cursor@d,c
 11172  012F0E  0E00               	movlw	0
 11173  012F10  2029               	addwfc	i2LCD_printNowCountdown@i+1,w,c
 11174  012F12  6E26               	movwf	i2LCD_Set_Cursor@d+1,c
 11175  012F14  ECF8  F098         	call	i2_LCD_Set_Cursor	;wreg free
 11176                           
 11177                           ;lcd.c: 158: LCD_Write_Char(strCountdownNowTime[i]);
 11178  012F18  0E76               	movlw	low _strCountdownNowTime
 11179  012F1A  2428               	addwf	i2LCD_printNowCountdown@i,w,c
 11180  012F1C  6ED9               	movwf	16345,c
 11181  012F1E  0E00               	movlw	high _strCountdownNowTime
 11182  012F20  2029               	addwfc	i2LCD_printNowCountdown@i+1,w,c
 11183  012F22  6EDA               	movwf	16346,c
 11184  012F24  50DF               	movf	16351,w,c
 11185  012F26  EC6C  F099         	call	i2_LCD_Write_Char
 11186  012F2A  4A28               	infsnz	i2LCD_printNowCountdown@i,f,c
 11187  012F2C  2A29               	incf	i2LCD_printNowCountdown@i+1,f,c
 11188  012F2E  D7E0               	goto	i2l4495
 11189  012F30                     i2l590:
 11190  012F30  0012               	return		;funcret
 11191  012F32                     __end_ofi2_LCD_printNowCountdown:
 11192                           	opt stack 0
 11193                           
 11194 ;; *************** function i2_LCD_Write_Char *****************
 11195 ;; Defined at:
 11196 ;;		line 77 in file "lcd.c"
 11197 ;; Parameters:    Size  Location     Type
 11198 ;;  e               1    wreg     unsigned char 
 11199 ;; Auto vars:     Size  Location     Type
 11200 ;;  e               1    0[COMRAM] unsigned char 
 11201 ;; Return value:  Size  Location     Type
 11202 ;;                  1    wreg      void 
 11203 ;; Registers used:
 11204 ;;		wreg, status,2, status,0, cstack
 11205 ;; Tracked objects:
 11206 ;;		On entry : 0/0
 11207 ;;		On exit  : 0/0
 11208 ;;		Unchanged: 0/0
 11209 ;; Data sizes:     COMRAM   BANK0   BANK1   BANK2   BANK3   BANK4   BANK5   BANK6   BANK7   BANK8   BANK9  BANK10  BANK1
      +1  BANK12  BANK13  BANK14  BANK15  BANK16  BANK17  BANK18  BANK19  BANK20  BANK21  BANK22  BANK23  BANK24  BANK25  BANK2
      +6  BANK27  BANK28  BANK29  BANK30  BANK31
 11210 ;;      Params:         0       0       0       0       0       0       0       0       0       0       0       0       
      +0       0       0       0       0       0       0       0       0       0       0       0       0       0       0       
      +0       0       0       0       0       0
 11211 ;;      Locals:         1       0       0       0       0       0       0       0       0       0       0       0       
      +0       0       0       0       0       0       0       0       0       0       0       0       0       0       0       
      +0       0       0       0       0       0
 11212 ;;      Temps:          0       0       0       0       0       0       0       0       0       0       0       0       
      +0       0       0       0       0       0       0       0       0       0       0       0       0       0       0       
      +0       0       0       0       0       0
 11213 ;;      Totals:         1       0       0       0       0       0       0       0       0       0       0       0       
      +0       0       0       0       0       0       0       0       0       0       0       0       0       0       0       
      +0       0       0       0       0       0
 11214 ;;Total ram usage:        1 bytes
 11215 ;; Hardware stack levels used:    1
 11216 ;; This function calls:
 11217 ;;		Nothing
 11218 ;; This function is called by:
 11219 ;;		i2_LCD_Write_String
 11220 ;;		i2_LCD_printNowCountdown
 11221 ;; This function uses a non-reentrant model
 11222 ;;
 11223                           
 11224                           	psect	text60
 11225  0132D8                     __ptext60:
 11226                           	opt stack 0
 11227  0132D8                     i2_LCD_Write_Char:
 11228                           	opt stack 24
 11229                           
 11230                           ;incstack = 0
 11231                           ;i2LCD_Write_Char@e stored from wreg
 11232  0132D8  6E22               	movwf	i2LCD_Write_Char@e,c
 11233                           
 11234                           ;lcd.c: 79: LATCbits.LATC6 = 1;
 11235  0132DA  013F               	movlb	63	; () banked
 11236  0132DC  8DBC               	bsf	188,6,b	;volatile
 11237                           
 11238                           ; BSR set to: 63
 11239                           ;lcd.c: 80: LATD = 0;
 11240  0132DE  0E00               	movlw	0
 11241  0132E0  6FBD               	movwf	189,b	;volatile
 11242                           
 11243                           ; BSR set to: 63
 11244                           ;lcd.c: 81: LATD |= e;
 11245  0132E2  5022               	movf	i2LCD_Write_Char@e,w,c
 11246  0132E4  13BD               	iorwf	189,f,b	;volatile
 11247                           
 11248                           ; BSR set to: 63
 11249                           ;lcd.c: 82: LATCbits.LATC7 = 1;
 11250  0132E6  8FBC               	bsf	188,7,b	;volatile
 11251                           
 11252                           ; BSR set to: 63
 11253                           ;lcd.c: 83: _delay((unsigned long)((40)*(8000000/4000000.0)));
 11254  0132E8  0E1A               	movlw	26
 11255  0132EA                     i2u976_47:
 11256  0132EA  2EE8               	decfsz	16360,f,c
 11257  0132EC  D7FE               	bra	i2u976_47
 11258  0132EE  D000               	nop2	
 11259                           
 11260                           ;lcd.c: 84: LATCbits.LATC7 = 0;
 11261  0132F0  013F               	movlb	63	; () banked
 11262  0132F2  9FBC               	bcf	188,7,b	;volatile
 11263                           
 11264                           ; BSR set to: 63
 11265                           ;lcd.c: 85: LATD = 0;
 11266  0132F4  0E00               	movlw	0
 11267  0132F6  6FBD               	movwf	189,b	;volatile
 11268                           
 11269                           ; BSR set to: 63
 11270  0132F8  0012               	return		;funcret
 11271  0132FA                     __end_ofi2_LCD_Write_Char:
 11272                           	opt stack 0
 11273                           
 11274 ;; *************** function i2_LCD_Set_Cursor *****************
 11275 ;; Defined at:
 11276 ;;		line 62 in file "lcd.c"
 11277 ;; Parameters:    Size  Location     Type
 11278 ;;  c               2    1[COMRAM] int 
 11279 ;;  d               2    3[COMRAM] int 
 11280 ;; Auto vars:     Size  Location     Type
 11281 ;;  LCD_Set_Curs    1    5[COMRAM] unsigned char 
 11282 ;; Return value:  Size  Location     Type
 11283 ;;                  1    wreg      void 
 11284 ;; Registers used:
 11285 ;;		wreg, status,2, status,0, cstack
 11286 ;; Tracked objects:
 11287 ;;		On entry : 0/0
 11288 ;;		On exit  : 0/0
 11289 ;;		Unchanged: 0/0
 11290 ;; Data sizes:     COMRAM   BANK0   BANK1   BANK2   BANK3   BANK4   BANK5   BANK6   BANK7   BANK8   BANK9  BANK10  BANK1
      +1  BANK12  BANK13  BANK14  BANK15  BANK16  BANK17  BANK18  BANK19  BANK20  BANK21  BANK22  BANK23  BANK24  BANK25  BANK2
      +6  BANK27  BANK28  BANK29  BANK30  BANK31
 11291 ;;      Params:         4       0       0       0       0       0       0       0       0       0       0       0       
      +0       0       0       0       0       0       0       0       0       0       0       0       0       0       0       
      +0       0       0       0       0       0
 11292 ;;      Locals:         1       0       0       0       0       0       0       0       0       0       0       0       
      +0       0       0       0       0       0       0       0       0       0       0       0       0       0       0       
      +0       0       0       0       0       0
 11293 ;;      Temps:          0       0       0       0       0       0       0       0       0       0       0       0       
      +0       0       0       0       0       0       0       0       0       0       0       0       0       0       0       
      +0       0       0       0       0       0
 11294 ;;      Totals:         5       0       0       0       0       0       0       0       0       0       0       0       
      +0       0       0       0       0       0       0       0       0       0       0       0       0       0       0       
      +0       0       0       0       0       0
 11295 ;;Total ram usage:        5 bytes
 11296 ;; Hardware stack levels used:    1
 11297 ;; Hardware stack levels required when called:    1
 11298 ;; This function calls:
 11299 ;;		i2_LCD_Cmd
 11300 ;; This function is called by:
 11301 ;;		_ISR
 11302 ;;		i2_LCD_printNowCountdown
 11303 ;; This function uses a non-reentrant model
 11304 ;;
 11305                           
 11306                           	psect	text61
 11307  0131F0                     __ptext61:
 11308                           	opt stack 0
 11309  0131F0                     i2_LCD_Set_Cursor:
 11310                           	opt stack 24
 11311                           
 11312                           ;lcd.c: 64: char temp;;lcd.c: 65: if(c == 1)
 11313                           
 11314                           ; BSR set to: 63
 11315                           ;incstack = 0
 11316  0131F0  0423               	decf	i2LCD_Set_Cursor@c,w,c
 11317  0131F2  1024               	iorwf	i2LCD_Set_Cursor@c+1,w,c
 11318  0131F4  A4D8               	btfss	16344,2,c
 11319  0131F6  D007               	goto	i2l551
 11320                           
 11321                           ;lcd.c: 66: {;lcd.c: 67: temp = 0x80 + d - 1;
 11322  0131F8  5025               	movf	i2LCD_Set_Cursor@d,w,c
 11323  0131FA  0F7F               	addlw	127
 11324  0131FC  6E27               	movwf	i2LCD_Set_Cursor@temp,c
 11325                           
 11326                           ;lcd.c: 68: LCD_Cmd(temp);
 11327  0131FE  5027               	movf	i2LCD_Set_Cursor@temp,w,c
 11328  013200  ECCB  F099         	call	i2_LCD_Cmd
 11329                           
 11330                           ;lcd.c: 69: }
 11331  013204  0012               	return	
 11332  013206                     i2l551:
 11333                           
 11334                           ;lcd.c: 70: else if(c == 2)
 11335  013206  0E02               	movlw	2
 11336  013208  1823               	xorwf	i2LCD_Set_Cursor@c,w,c
 11337  01320A  1024               	iorwf	i2LCD_Set_Cursor@c+1,w,c
 11338  01320C  A4D8               	btfss	16344,2,c
 11339  01320E  0012               	return	
 11340                           
 11341                           ;lcd.c: 71: {;lcd.c: 72: temp = 0xC0 + d - 1;
 11342  013210  5025               	movf	i2LCD_Set_Cursor@d,w,c
 11343  013212  0FBF               	addlw	191
 11344  013214  6E27               	movwf	i2LCD_Set_Cursor@temp,c
 11345                           
 11346                           ;lcd.c: 73: LCD_Cmd(temp);
 11347  013216  5027               	movf	i2LCD_Set_Cursor@temp,w,c
 11348  013218  ECCB  F099         	call	i2_LCD_Cmd
 11349  01321C  0012               	return	
 11350  01321E                     __end_ofi2_LCD_Set_Cursor:
 11351                           	opt stack 0
 11352                           
 11353 ;; *************** function i2_LCD_Cmd *****************
 11354 ;; Defined at:
 11355 ;;		line 43 in file "lcd.c"
 11356 ;; Parameters:    Size  Location     Type
 11357 ;;  b               1    wreg     unsigned char 
 11358 ;; Auto vars:     Size  Location     Type
 11359 ;;  b               1    0[COMRAM] unsigned char 
 11360 ;; Return value:  Size  Location     Type
 11361 ;;                  1    wreg      void 
 11362 ;; Registers used:
 11363 ;;		wreg, status,2, cstack
 11364 ;; Tracked objects:
 11365 ;;		On entry : 0/0
 11366 ;;		On exit  : 0/0
 11367 ;;		Unchanged: 0/0
 11368 ;; Data sizes:     COMRAM   BANK0   BANK1   BANK2   BANK3   BANK4   BANK5   BANK6   BANK7   BANK8   BANK9  BANK10  BANK1
      +1  BANK12  BANK13  BANK14  BANK15  BANK16  BANK17  BANK18  BANK19  BANK20  BANK21  BANK22  BANK23  BANK24  BANK25  BANK2
      +6  BANK27  BANK28  BANK29  BANK30  BANK31
 11369 ;;      Params:         0       0       0       0       0       0       0       0       0       0       0       0       
      +0       0       0       0       0       0       0       0       0       0       0       0       0       0       0       
      +0       0       0       0       0       0
 11370 ;;      Locals:         1       0       0       0       0       0       0       0       0       0       0       0       
      +0       0       0       0       0       0       0       0       0       0       0       0       0       0       0       
      +0       0       0       0       0       0
 11371 ;;      Temps:          0       0       0       0       0       0       0       0       0       0       0       0       
      +0       0       0       0       0       0       0       0       0       0       0       0       0       0       0       
      +0       0       0       0       0       0
 11372 ;;      Totals:         1       0       0       0       0       0       0       0       0       0       0       0       
      +0       0       0       0       0       0       0       0       0       0       0       0       0       0       0       
      +0       0       0       0       0       0
 11373 ;;Total ram usage:        1 bytes
 11374 ;; Hardware stack levels used:    1
 11375 ;; This function calls:
 11376 ;;		Nothing
 11377 ;; This function is called by:
 11378 ;;		i2_LCD_Set_Cursor
 11379 ;; This function uses a non-reentrant model
 11380 ;;
 11381                           
 11382                           	psect	text62
 11383  013396                     __ptext62:
 11384                           	opt stack 0
 11385  013396                     i2_LCD_Cmd:
 11386                           	opt stack 24
 11387                           
 11388                           ;incstack = 0
 11389                           ;i2LCD_Cmd@b stored from wreg
 11390  013396  6E22               	movwf	i2LCD_Cmd@b,c
 11391                           
 11392                           ;lcd.c: 45: LATCbits.LATC6 = 0;
 11393  013398  013F               	movlb	63	; () banked
 11394  01339A  9DBC               	bcf	188,6,b	;volatile
 11395                           
 11396                           ; BSR set to: 63
 11397                           ;lcd.c: 46: LATD = b;
 11398  01339C  0060  F08B  FFBD   	movff	i2LCD_Cmd@b,16317	;volatile
 11399                           
 11400                           ; BSR set to: 63
 11401                           ;lcd.c: 47: LATCbits.LATC7 = 1;
 11402  0133A2  8FBC               	bsf	188,7,b	;volatile
 11403                           
 11404                           ; BSR set to: 63
 11405                           ;lcd.c: 48: _delay((unsigned long)((50)*(8000000/4000000.0)));
 11406  0133A4  0E21               	movlw	33
 11407  0133A6                     i2u977_47:
 11408  0133A6  2EE8               	decfsz	16360,f,c
 11409  0133A8  D7FE               	bra	i2u977_47
 11410  0133AA  F000               	nop	
 11411                           
 11412                           ;lcd.c: 49: LATCbits.LATC7 = 0;
 11413  0133AC  013F               	movlb	63	; () banked
 11414  0133AE  9FBC               	bcf	188,7,b	;volatile
 11415                           
 11416                           ; BSR set to: 63
 11417  0133B0  0012               	return		;funcret
 11418  0133B2                     __end_ofi2_LCD_Cmd:
 11419                           	opt stack 0
 11420                           
 11421 ;; *************** function _endBeep *****************
 11422 ;; Defined at:
 11423 ;;		line 165 in file "beeper.c"
 11424 ;; Parameters:    Size  Location     Type
 11425 ;;		None
 11426 ;; Auto vars:     Size  Location     Type
 11427 ;;  i               2    3[COMRAM] int 
 11428 ;;  i               2    1[COMRAM] int 
 11429 ;; Return value:  Size  Location     Type
 11430 ;;                  1    wreg      void 
 11431 ;; Registers used:
 11432 ;;		wreg, status,2, status,0
 11433 ;; Tracked objects:
 11434 ;;		On entry : 0/0
 11435 ;;		On exit  : 0/0
 11436 ;;		Unchanged: 0/0
 11437 ;; Data sizes:     COMRAM   BANK0   BANK1   BANK2   BANK3   BANK4   BANK5   BANK6   BANK7   BANK8   BANK9  BANK10  BANK1
      +1  BANK12  BANK13  BANK14  BANK15  BANK16  BANK17  BANK18  BANK19  BANK20  BANK21  BANK22  BANK23  BANK24  BANK25  BANK2
      +6  BANK27  BANK28  BANK29  BANK30  BANK31
 11438 ;;      Params:         0       0       0       0       0       0       0       0       0       0       0       0       
      +0       0       0       0       0       0       0       0       0       0       0       0       0       0       0       
      +0       0       0       0       0       0
 11439 ;;      Locals:         4       0       0       0       0       0       0       0       0       0       0       0       
      +0       0       0       0       0       0       0       0       0       0       0       0       0       0       0       
      +0       0       0       0       0       0
 11440 ;;      Temps:          1       0       0       0       0       0       0       0       0       0       0       0       
      +0       0       0       0       0       0       0       0       0       0       0       0       0       0       0       
      +0       0       0       0       0       0
 11441 ;;      Totals:         5       0       0       0       0       0       0       0       0       0       0       0       
      +0       0       0       0       0       0       0       0       0       0       0       0       0       0       0       
      +0       0       0       0       0       0
 11442 ;;Total ram usage:        5 bytes
 11443 ;; Hardware stack levels used:    1
 11444 ;; This function calls:
 11445 ;;		Nothing
 11446 ;; This function is called by:
 11447 ;;		_countdown_drop_timer
 11448 ;; This function uses a non-reentrant model
 11449 ;;
 11450                           
 11451                           	psect	text63
 11452  012AE0                     __ptext63:
 11453                           	opt stack 0
 11454  012AE0                     _endBeep:
 11455                           	opt stack 24
 11456                           
 11457                           ;beeper.c: 167: PWM5CONbits.EN = 1;
 11458                           
 11459                           ; BSR set to: 63
 11460                           ;incstack = 0
 11461  012AE0  013F               	movlb	63	; () banked
 11462  012AE2  8F6E               	bsf	110,7,b	;volatile
 11463                           
 11464                           ; BSR set to: 63
 11465                           ;beeper.c: 169: T2PR = 0xB4;
 11466  012AE4  0EB4               	movlw	180
 11467  012AE6  6FAB               	movwf	171,b	;volatile
 11468                           
 11469                           ;beeper.c: 170: for (int i=0;i<32;i++)
 11470  012AE8  0E00               	movlw	0
 11471  012AEA  6E24               	movwf	endBeep@i+1,c
 11472  012AEC  0E00               	movlw	0
 11473  012AEE  6E23               	movwf	endBeep@i,c
 11474  012AF0                     i2l2099:
 11475                           
 11476                           ; BSR set to: 63
 11477  012AF0  BE24               	btfsc	endBeep@i+1,7,c
 11478  012AF2  D006               	goto	i2l147
 11479  012AF4  5024               	movf	endBeep@i+1,w,c
 11480  012AF6  E112               	bnz	i2l2109
 11481  012AF8  0E20               	movlw	32
 11482  012AFA  5C23               	subwf	endBeep@i,w,c
 11483  012AFC  B0D8               	btfsc	16344,0,c
 11484  012AFE  D00E               	goto	i2u8_40
 11485  012B00                     i2l147:
 11486                           
 11487                           ;beeper.c: 171: {;beeper.c: 172: T2PR = T2PR-1;
 11488                           
 11489                           ; BSR set to: 63
 11490  012B00  013F               	movlb	63	; () banked
 11491  012B02  05AB               	decf	171,w,b	;volatile
 11492  012B04  6FAB               	movwf	171,b	;volatile
 11493                           
 11494                           ; BSR set to: 63
 11495                           ;beeper.c: 173: _delay((unsigned long)((32)*(8000000/4000.0)));}
 11496  012B06  0E54               	movlw	84
 11497  012B08  6E22               	movwf	??_endBeep& (0+255),c
 11498  012B0A  0E1C               	movlw	28
 11499  012B0C                     i2u978_47:
 11500  012B0C  2EE8               	decfsz	16360,f,c
 11501  012B0E  D7FE               	bra	i2u978_47
 11502  012B10  2E22               	decfsz	??_endBeep& (0+255),f,c
 11503  012B12  D7FC               	bra	i2u978_47
 11504  012B14  D000               	nop2	
 11505  012B16  4A23               	infsnz	endBeep@i,f,c
 11506  012B18  2A24               	incf	endBeep@i+1,f,c
 11507  012B1A  D7EA               	goto	i2l2099
 11508  012B1C                     i2u8_40:
 11509  012B1C                     i2l2109:
 11510                           
 11511                           ;beeper.c: 175: T2PR = 0xF4;
 11512  012B1C  0EF4               	movlw	244
 11513  012B1E  013F               	movlb	63	; () banked
 11514  012B20  6FAB               	movwf	171,b	;volatile
 11515                           
 11516                           ;beeper.c: 177: for (int i=0;i<12;i++)
 11517  012B22  0E00               	movlw	0
 11518  012B24  6E26               	movwf	endBeep@i_538+1,c
 11519  012B26  0E00               	movlw	0
 11520  012B28  6E25               	movwf	endBeep@i_538,c
 11521                           
 11522                           ; BSR set to: 63
 11523  012B2A  BE26               	btfsc	endBeep@i_538+1,7,c
 11524  012B2C  D003               	goto	i2l149
 11525  012B2E  5026               	movf	endBeep@i_538+1,w,c
 11526  012B30  E11E               	bnz	i2l150
 11527  012B32  D019               	goto	L17
 11528  012B34                     i2l149:
 11529                           
 11530                           ;beeper.c: 178: {;beeper.c: 179: PWM5CONbits.EN=0;
 11531  012B34  013F               	movlb	63	; () banked
 11532  012B36  9F6E               	bcf	110,7,b	;volatile
 11533                           
 11534                           ; BSR set to: 63
 11535                           ;beeper.c: 180: _delay((unsigned long)((52)*(8000000/4000.0)));
 11536  012B38  0E88               	movlw	136
 11537  012B3A  6E22               	movwf	??_endBeep& (0+255),c
 11538  012B3C  0E0F               	movlw	15
 11539  012B3E                     i2u979_47:
 11540  012B3E  2EE8               	decfsz	16360,f,c
 11541  012B40  D7FE               	bra	i2u979_47
 11542  012B42  2E22               	decfsz	??_endBeep& (0+255),f,c
 11543  012B44  D7FC               	bra	i2u979_47
 11544  012B46  F000               	nop	
 11545                           
 11546                           ;beeper.c: 181: PWM5CONbits.EN=1;
 11547  012B48  013F               	movlb	63	; () banked
 11548  012B4A  8F6E               	bsf	110,7,b	;volatile
 11549                           
 11550                           ;beeper.c: 182: _delay((unsigned long)((29)*(8000000/4000.0)));
 11551  012B4C  0E4C               	movlw	76
 11552  012B4E  6E22               	movwf	??_endBeep& (0+255),c
 11553  012B50  0E52               	movlw	82
 11554  012B52                     i2u980_47:
 11555  012B52  2EE8               	decfsz	16360,f,c
 11556  012B54  D7FE               	bra	i2u980_47
 11557  012B56  2E22               	decfsz	??_endBeep& (0+255),f,c
 11558  012B58  D7FC               	bra	i2u980_47
 11559  012B5A  4A25               	infsnz	endBeep@i_538,f,c
 11560  012B5C  2A26               	incf	endBeep@i_538+1,f,c
 11561  012B5E  BE26               	btfsc	endBeep@i_538+1,7,c
 11562  012B60  D7E9               	goto	i2l149
 11563  012B62  5026               	movf	endBeep@i_538+1,w,c
 11564  012B64  E104               	bnz	i2u10_40
 11565  012B66                     L17:
 11566  012B66  0E0C               	movlw	12
 11567  012B68  5C25               	subwf	endBeep@i_538,w,c
 11568  012B6A  A0D8               	btfss	16344,0,c
 11569  012B6C  D7E3               	goto	i2l149
 11570  012B6E                     i2u10_40:
 11571  012B6E                     i2l150:
 11572                           
 11573                           ;beeper.c: 183: };beeper.c: 184: PWM5CONbits.EN = 0;
 11574  012B6E  013F               	movlb	63	; () banked
 11575  012B70  9F6E               	bcf	110,7,b	;volatile
 11576                           
 11577                           ; BSR set to: 63
 11578                           ;beeper.c: 185: T2PR = 0x72;
 11579  012B72  0E72               	movlw	114
 11580  012B74  6FAB               	movwf	171,b	;volatile
 11581                           
 11582                           ; BSR set to: 63
 11583  012B76  0012               	return		;funcret
 11584  012B78                     __end_of_endBeep:
 11585                           	opt stack 0
 11586                           
 11587 ;; *************** function _countdown_now_num2str *****************
 11588 ;; Defined at:
 11589 ;;		line 96 in file "countdown.c"
 11590 ;; Parameters:    Size  Location     Type
 11591 ;;		None
 11592 ;; Auto vars:     Size  Location     Type
 11593 ;;  i               2    2[COMRAM] int 
 11594 ;; Return value:  Size  Location     Type
 11595 ;;                  1    wreg      void 
 11596 ;; Registers used:
 11597 ;;		wreg, fsr2l, fsr2h, status,2, status,0
 11598 ;; Tracked objects:
 11599 ;;		On entry : 0/0
 11600 ;;		On exit  : 0/0
 11601 ;;		Unchanged: 0/0
 11602 ;; Data sizes:     COMRAM   BANK0   BANK1   BANK2   BANK3   BANK4   BANK5   BANK6   BANK7   BANK8   BANK9  BANK10  BANK1
      +1  BANK12  BANK13  BANK14  BANK15  BANK16  BANK17  BANK18  BANK19  BANK20  BANK21  BANK22  BANK23  BANK24  BANK25  BANK2
      +6  BANK27  BANK28  BANK29  BANK30  BANK31
 11603 ;;      Params:         0       0       0       0       0       0       0       0       0       0       0       0       
      +0       0       0       0       0       0       0       0       0       0       0       0       0       0       0       
      +0       0       0       0       0       0
 11604 ;;      Locals:         2       0       0       0       0       0       0       0       0       0       0       0       
      +0       0       0       0       0       0       0       0       0       0       0       0       0       0       0       
      +0       0       0       0       0       0
 11605 ;;      Temps:          2       0       0       0       0       0       0       0       0       0       0       0       
      +0       0       0       0       0       0       0       0       0       0       0       0       0       0       0       
      +0       0       0       0       0       0
 11606 ;;      Totals:         4       0       0       0       0       0       0       0       0       0       0       0       
      +0       0       0       0       0       0       0       0       0       0       0       0       0       0       0       
      +0       0       0       0       0       0
 11607 ;;Total ram usage:        4 bytes
 11608 ;; Hardware stack levels used:    1
 11609 ;; This function calls:
 11610 ;;		Nothing
 11611 ;; This function is called by:
 11612 ;;		_countdown_drop_timer
 11613 ;; This function uses a non-reentrant model
 11614 ;;
 11615                           
 11616                           	psect	text64
 11617  011D50                     __ptext64:
 11618                           	opt stack 0
 11619  011D50                     _countdown_now_num2str:
 11620                           	opt stack 24
 11621                           
 11622                           ;countdown.c: 98: for(int i=0;i<=5;i++)
 11623                           
 11624                           ; BSR set to: 63
 11625                           ;incstack = 0
 11626  011D50  0E00               	movlw	0
 11627  011D52  6E25               	movwf	countdown_now_num2str@i+1,c
 11628  011D54  0E00               	movlw	0
 11629  011D56  6E24               	movwf	countdown_now_num2str@i,c
 11630  011D58  BE25               	btfsc	countdown_now_num2str@i+1,7,c
 11631  011D5A  D008               	goto	i2l291
 11632  011D5C  5025               	movf	countdown_now_num2str@i+1,w,c
 11633  011D5E  E105               	bnz	i2u337_40
 11634  011D60  0E06               	movlw	6
 11635  011D62  5C24               	subwf	countdown_now_num2str@i,w,c
 11636  011D64  B0D8               	btfsc	16344,0,c
 11637  011D66  0012               	return	
 11638  011D68  D001               	goto	i2l291
 11639  011D6A                     i2u337_40:
 11640  011D6A  0012               	return	
 11641  011D6C                     i2l291:
 11642                           
 11643                           ;countdown.c: 99: {;countdown.c: 100: if(i==0||i==1)
 11644  011D6C  5024               	movf	countdown_now_num2str@i,w,c
 11645  011D6E  1025               	iorwf	countdown_now_num2str@i+1,w,c
 11646  011D70  B4D8               	btfsc	16344,2,c
 11647  011D72  D004               	goto	i2u339_40
 11648  011D74  0424               	decf	countdown_now_num2str@i,w,c
 11649  011D76  1025               	iorwf	countdown_now_num2str@i+1,w,c
 11650  011D78  A4D8               	btfss	16344,2,c
 11651  011D7A  D0DA               	goto	i2l305
 11652  011D7C                     i2u339_40:
 11653                           
 11654                           ;countdown.c: 101: {;countdown.c: 102: if(numCountdownNowTime[i]==0){strCountdownNowTime
      +                          [i] = '0';}
 11655  011D7C  90D8               	bcf	16344,0,c
 11656  011D7E  3424               	rlcf	countdown_now_num2str@i,w,c
 11657  011D80  6ED9               	movwf	16345,c
 11658  011D82  3425               	rlcf	countdown_now_num2str@i+1,w,c
 11659  011D84  6EDA               	movwf	16346,c
 11660  011D86  0E01               	movlw	low _numCountdownNowTime
 11661  011D88  26D9               	addwf	16345,f,c
 11662  011D8A  0E00               	movlw	high _numCountdownNowTime
 11663  011D8C  22DA               	addwfc	16346,f,c
 11664  011D8E  50DE               	movf	16350,w,c
 11665  011D90  10DE               	iorwf	16350,w,c
 11666  011D92  A4D8               	btfss	16344,2,c
 11667  011D94  D008               	goto	i2l296
 11668  011D96  0E76               	movlw	low _strCountdownNowTime
 11669  011D98  2424               	addwf	countdown_now_num2str@i,w,c
 11670  011D9A  6ED9               	movwf	16345,c
 11671  011D9C  0E00               	movlw	high _strCountdownNowTime
 11672  011D9E  2025               	addwfc	countdown_now_num2str@i+1,w,c
 11673  011DA0  6EDA               	movwf	16346,c
 11674  011DA2  0E30               	movlw	48
 11675  011DA4  6EDF               	movwf	16351,c
 11676  011DA6                     i2l296:
 11677                           
 11678                           ;countdown.c: 103: if(numCountdownNowTime[i]==1){strCountdownNowTime[i] = '1';}
 11679  011DA6  90D8               	bcf	16344,0,c
 11680  011DA8  3424               	rlcf	countdown_now_num2str@i,w,c
 11681  011DAA  6ED9               	movwf	16345,c
 11682  011DAC  3425               	rlcf	countdown_now_num2str@i+1,w,c
 11683  011DAE  6EDA               	movwf	16346,c
 11684  011DB0  0E01               	movlw	low _numCountdownNowTime
 11685  011DB2  26D9               	addwf	16345,f,c
 11686  011DB4  0E00               	movlw	high _numCountdownNowTime
 11687  011DB6  22DA               	addwfc	16346,f,c
 11688  011DB8  04DE               	decf	16350,w,c
 11689  011DBA  10DE               	iorwf	16350,w,c
 11690  011DBC  A4D8               	btfss	16344,2,c
 11691  011DBE  D008               	goto	i2l297
 11692  011DC0  0E76               	movlw	low _strCountdownNowTime
 11693  011DC2  2424               	addwf	countdown_now_num2str@i,w,c
 11694  011DC4  6ED9               	movwf	16345,c
 11695  011DC6  0E00               	movlw	high _strCountdownNowTime
 11696  011DC8  2025               	addwfc	countdown_now_num2str@i+1,w,c
 11697  011DCA  6EDA               	movwf	16346,c
 11698  011DCC  0E31               	movlw	49
 11699  011DCE  6EDF               	movwf	16351,c
 11700  011DD0                     i2l297:
 11701                           
 11702                           ;countdown.c: 104: if(numCountdownNowTime[i]==2){strCountdownNowTime[i] = '2';}
 11703  011DD0  90D8               	bcf	16344,0,c
 11704  011DD2  3424               	rlcf	countdown_now_num2str@i,w,c
 11705  011DD4  6ED9               	movwf	16345,c
 11706  011DD6  3425               	rlcf	countdown_now_num2str@i+1,w,c
 11707  011DD8  6EDA               	movwf	16346,c
 11708  011DDA  0E01               	movlw	low _numCountdownNowTime
 11709  011DDC  26D9               	addwf	16345,f,c
 11710  011DDE  0E00               	movlw	high _numCountdownNowTime
 11711  011DE0  22DA               	addwfc	16346,f,c
 11712  011DE2  0E02               	movlw	2
 11713  011DE4  18DE               	xorwf	16350,w,c
 11714  011DE6  10DE               	iorwf	16350,w,c
 11715  011DE8  A4D8               	btfss	16344,2,c
 11716  011DEA  D008               	goto	i2l298
 11717  011DEC  0E76               	movlw	low _strCountdownNowTime
 11718  011DEE  2424               	addwf	countdown_now_num2str@i,w,c
 11719  011DF0  6ED9               	movwf	16345,c
 11720  011DF2  0E00               	movlw	high _strCountdownNowTime
 11721  011DF4  2025               	addwfc	countdown_now_num2str@i+1,w,c
 11722  011DF6  6EDA               	movwf	16346,c
 11723  011DF8  0E32               	movlw	50
 11724  011DFA  6EDF               	movwf	16351,c
 11725  011DFC                     i2l298:
 11726                           
 11727                           ;countdown.c: 105: if(numCountdownNowTime[i]==3){strCountdownNowTime[i] = '3';}
 11728  011DFC  90D8               	bcf	16344,0,c
 11729  011DFE  3424               	rlcf	countdown_now_num2str@i,w,c
 11730  011E00  6ED9               	movwf	16345,c
 11731  011E02  3425               	rlcf	countdown_now_num2str@i+1,w,c
 11732  011E04  6EDA               	movwf	16346,c
 11733  011E06  0E01               	movlw	low _numCountdownNowTime
 11734  011E08  26D9               	addwf	16345,f,c
 11735  011E0A  0E00               	movlw	high _numCountdownNowTime
 11736  011E0C  22DA               	addwfc	16346,f,c
 11737  011E0E  0E03               	movlw	3
 11738  011E10  18DE               	xorwf	16350,w,c
 11739  011E12  10DE               	iorwf	16350,w,c
 11740  011E14  A4D8               	btfss	16344,2,c
 11741  011E16  D008               	goto	i2l299
 11742  011E18  0E76               	movlw	low _strCountdownNowTime
 11743  011E1A  2424               	addwf	countdown_now_num2str@i,w,c
 11744  011E1C  6ED9               	movwf	16345,c
 11745  011E1E  0E00               	movlw	high _strCountdownNowTime
 11746  011E20  2025               	addwfc	countdown_now_num2str@i+1,w,c
 11747  011E22  6EDA               	movwf	16346,c
 11748  011E24  0E33               	movlw	51
 11749  011E26  6EDF               	movwf	16351,c
 11750  011E28                     i2l299:
 11751                           
 11752                           ;countdown.c: 106: if(numCountdownNowTime[i]==4){strCountdownNowTime[i] = '4';}
 11753  011E28  90D8               	bcf	16344,0,c
 11754  011E2A  3424               	rlcf	countdown_now_num2str@i,w,c
 11755  011E2C  6ED9               	movwf	16345,c
 11756  011E2E  3425               	rlcf	countdown_now_num2str@i+1,w,c
 11757  011E30  6EDA               	movwf	16346,c
 11758  011E32  0E01               	movlw	low _numCountdownNowTime
 11759  011E34  26D9               	addwf	16345,f,c
 11760  011E36  0E00               	movlw	high _numCountdownNowTime
 11761  011E38  22DA               	addwfc	16346,f,c
 11762  011E3A  0E04               	movlw	4
 11763  011E3C  18DE               	xorwf	16350,w,c
 11764  011E3E  10DE               	iorwf	16350,w,c
 11765  011E40  A4D8               	btfss	16344,2,c
 11766  011E42  D008               	goto	i2l300
 11767  011E44  0E76               	movlw	low _strCountdownNowTime
 11768  011E46  2424               	addwf	countdown_now_num2str@i,w,c
 11769  011E48  6ED9               	movwf	16345,c
 11770  011E4A  0E00               	movlw	high _strCountdownNowTime
 11771  011E4C  2025               	addwfc	countdown_now_num2str@i+1,w,c
 11772  011E4E  6EDA               	movwf	16346,c
 11773  011E50  0E34               	movlw	52
 11774  011E52  6EDF               	movwf	16351,c
 11775  011E54                     i2l300:
 11776                           
 11777                           ;countdown.c: 107: if(numCountdownNowTime[i]==5){strCountdownNowTime[i] = '5';}
 11778  011E54  90D8               	bcf	16344,0,c
 11779  011E56  3424               	rlcf	countdown_now_num2str@i,w,c
 11780  011E58  6ED9               	movwf	16345,c
 11781  011E5A  3425               	rlcf	countdown_now_num2str@i+1,w,c
 11782  011E5C  6EDA               	movwf	16346,c
 11783  011E5E  0E01               	movlw	low _numCountdownNowTime
 11784  011E60  26D9               	addwf	16345,f,c
 11785  011E62  0E00               	movlw	high _numCountdownNowTime
 11786  011E64  22DA               	addwfc	16346,f,c
 11787  011E66  0E05               	movlw	5
 11788  011E68  18DE               	xorwf	16350,w,c
 11789  011E6A  10DE               	iorwf	16350,w,c
 11790  011E6C  A4D8               	btfss	16344,2,c
 11791  011E6E  D008               	goto	i2l301
 11792  011E70  0E76               	movlw	low _strCountdownNowTime
 11793  011E72  2424               	addwf	countdown_now_num2str@i,w,c
 11794  011E74  6ED9               	movwf	16345,c
 11795  011E76  0E00               	movlw	high _strCountdownNowTime
 11796  011E78  2025               	addwfc	countdown_now_num2str@i+1,w,c
 11797  011E7A  6EDA               	movwf	16346,c
 11798  011E7C  0E35               	movlw	53
 11799  011E7E  6EDF               	movwf	16351,c
 11800  011E80                     i2l301:
 11801                           
 11802                           ;countdown.c: 108: if(numCountdownNowTime[i]==6){strCountdownNowTime[i] = '6';}
 11803  011E80  90D8               	bcf	16344,0,c
 11804  011E82  3424               	rlcf	countdown_now_num2str@i,w,c
 11805  011E84  6ED9               	movwf	16345,c
 11806  011E86  3425               	rlcf	countdown_now_num2str@i+1,w,c
 11807  011E88  6EDA               	movwf	16346,c
 11808  011E8A  0E01               	movlw	low _numCountdownNowTime
 11809  011E8C  26D9               	addwf	16345,f,c
 11810  011E8E  0E00               	movlw	high _numCountdownNowTime
 11811  011E90  22DA               	addwfc	16346,f,c
 11812  011E92  0E06               	movlw	6
 11813  011E94  18DE               	xorwf	16350,w,c
 11814  011E96  10DE               	iorwf	16350,w,c
 11815  011E98  A4D8               	btfss	16344,2,c
 11816  011E9A  D008               	goto	i2l302
 11817  011E9C  0E76               	movlw	low _strCountdownNowTime
 11818  011E9E  2424               	addwf	countdown_now_num2str@i,w,c
 11819  011EA0  6ED9               	movwf	16345,c
 11820  011EA2  0E00               	movlw	high _strCountdownNowTime
 11821  011EA4  2025               	addwfc	countdown_now_num2str@i+1,w,c
 11822  011EA6  6EDA               	movwf	16346,c
 11823  011EA8  0E36               	movlw	54
 11824  011EAA  6EDF               	movwf	16351,c
 11825  011EAC                     i2l302:
 11826                           
 11827                           ;countdown.c: 109: if(numCountdownNowTime[i]==7){strCountdownNowTime[i] = '7';}
 11828  011EAC  90D8               	bcf	16344,0,c
 11829  011EAE  3424               	rlcf	countdown_now_num2str@i,w,c
 11830  011EB0  6ED9               	movwf	16345,c
 11831  011EB2  3425               	rlcf	countdown_now_num2str@i+1,w,c
 11832  011EB4  6EDA               	movwf	16346,c
 11833  011EB6  0E01               	movlw	low _numCountdownNowTime
 11834  011EB8  26D9               	addwf	16345,f,c
 11835  011EBA  0E00               	movlw	high _numCountdownNowTime
 11836  011EBC  22DA               	addwfc	16346,f,c
 11837  011EBE  0E07               	movlw	7
 11838  011EC0  18DE               	xorwf	16350,w,c
 11839  011EC2  10DE               	iorwf	16350,w,c
 11840  011EC4  A4D8               	btfss	16344,2,c
 11841  011EC6  D008               	goto	i2l303
 11842  011EC8  0E76               	movlw	low _strCountdownNowTime
 11843  011ECA  2424               	addwf	countdown_now_num2str@i,w,c
 11844  011ECC  6ED9               	movwf	16345,c
 11845  011ECE  0E00               	movlw	high _strCountdownNowTime
 11846  011ED0  2025               	addwfc	countdown_now_num2str@i+1,w,c
 11847  011ED2  6EDA               	movwf	16346,c
 11848  011ED4  0E37               	movlw	55
 11849  011ED6  6EDF               	movwf	16351,c
 11850  011ED8                     i2l303:
 11851                           
 11852                           ;countdown.c: 110: if(numCountdownNowTime[i]==8){strCountdownNowTime[i] = '8';}
 11853  011ED8  90D8               	bcf	16344,0,c
 11854  011EDA  3424               	rlcf	countdown_now_num2str@i,w,c
 11855  011EDC  6ED9               	movwf	16345,c
 11856  011EDE  3425               	rlcf	countdown_now_num2str@i+1,w,c
 11857  011EE0  6EDA               	movwf	16346,c
 11858  011EE2  0E01               	movlw	low _numCountdownNowTime
 11859  011EE4  26D9               	addwf	16345,f,c
 11860  011EE6  0E00               	movlw	high _numCountdownNowTime
 11861  011EE8  22DA               	addwfc	16346,f,c
 11862  011EEA  0E08               	movlw	8
 11863  011EEC  18DE               	xorwf	16350,w,c
 11864  011EEE  10DE               	iorwf	16350,w,c
 11865  011EF0  A4D8               	btfss	16344,2,c
 11866  011EF2  D008               	goto	i2l304
 11867  011EF4  0E76               	movlw	low _strCountdownNowTime
 11868  011EF6  2424               	addwf	countdown_now_num2str@i,w,c
 11869  011EF8  6ED9               	movwf	16345,c
 11870  011EFA  0E00               	movlw	high _strCountdownNowTime
 11871  011EFC  2025               	addwfc	countdown_now_num2str@i+1,w,c
 11872  011EFE  6EDA               	movwf	16346,c
 11873  011F00  0E38               	movlw	56
 11874  011F02  6EDF               	movwf	16351,c
 11875  011F04                     i2l304:
 11876                           
 11877                           ;countdown.c: 111: if(numCountdownNowTime[i]==9){strCountdownNowTime[i] = '9';}
 11878  011F04  90D8               	bcf	16344,0,c
 11879  011F06  3424               	rlcf	countdown_now_num2str@i,w,c
 11880  011F08  6ED9               	movwf	16345,c
 11881  011F0A  3425               	rlcf	countdown_now_num2str@i+1,w,c
 11882  011F0C  6EDA               	movwf	16346,c
 11883  011F0E  0E01               	movlw	low _numCountdownNowTime
 11884  011F10  26D9               	addwf	16345,f,c
 11885  011F12  0E00               	movlw	high _numCountdownNowTime
 11886  011F14  22DA               	addwfc	16346,f,c
 11887  011F16  0E09               	movlw	9
 11888  011F18  18DE               	xorwf	16350,w,c
 11889  011F1A  10DE               	iorwf	16350,w,c
 11890  011F1C  A4D8               	btfss	16344,2,c
 11891  011F1E  D008               	goto	i2l305
 11892  011F20  0E76               	movlw	low _strCountdownNowTime
 11893  011F22  2424               	addwf	countdown_now_num2str@i,w,c
 11894  011F24  6ED9               	movwf	16345,c
 11895  011F26  0E00               	movlw	high _strCountdownNowTime
 11896  011F28  2025               	addwfc	countdown_now_num2str@i+1,w,c
 11897  011F2A  6EDA               	movwf	16346,c
 11898  011F2C  0E39               	movlw	57
 11899  011F2E  6EDF               	movwf	16351,c
 11900  011F30                     i2l305:
 11901                           
 11902                           ;countdown.c: 112: };countdown.c: 114: if(i==2||i==3)
 11903  011F30  0E02               	movlw	2
 11904  011F32  1824               	xorwf	countdown_now_num2str@i,w,c
 11905  011F34  1025               	iorwf	countdown_now_num2str@i+1,w,c
 11906  011F36  B4D8               	btfsc	16344,2,c
 11907  011F38  D005               	goto	i2u351_40
 11908  011F3A  0E03               	movlw	3
 11909  011F3C  1824               	xorwf	countdown_now_num2str@i,w,c
 11910  011F3E  1025               	iorwf	countdown_now_num2str@i+1,w,c
 11911  011F40  A4D8               	btfss	16344,2,c
 11912  011F42  D116               	goto	i2l318
 11913  011F44                     i2u351_40:
 11914                           
 11915                           ;countdown.c: 115: {;countdown.c: 116: if(numCountdownNowTime[i]==0){strCountdownNowTime
      +                          [i+1] = '0';}
 11916  011F44  90D8               	bcf	16344,0,c
 11917  011F46  3424               	rlcf	countdown_now_num2str@i,w,c
 11918  011F48  6ED9               	movwf	16345,c
 11919  011F4A  3425               	rlcf	countdown_now_num2str@i+1,w,c
 11920  011F4C  6EDA               	movwf	16346,c
 11921  011F4E  0E01               	movlw	low _numCountdownNowTime
 11922  011F50  26D9               	addwf	16345,f,c
 11923  011F52  0E00               	movlw	high _numCountdownNowTime
 11924  011F54  22DA               	addwfc	16346,f,c
 11925  011F56  50DE               	movf	16350,w,c
 11926  011F58  10DE               	iorwf	16350,w,c
 11927  011F5A  A4D8               	btfss	16344,2,c
 11928  011F5C  D00E               	goto	i2l309
 11929  011F5E  0E01               	movlw	1
 11930  011F60  2424               	addwf	countdown_now_num2str@i,w,c
 11931  011F62  6E22               	movwf	??_countdown_now_num2str& (0+255),c
 11932  011F64  0E00               	movlw	0
 11933  011F66  2025               	addwfc	countdown_now_num2str@i+1,w,c
 11934  011F68  6E23               	movwf	(??_countdown_now_num2str+1)& (0+255),c
 11935  011F6A  0E76               	movlw	low _strCountdownNowTime
 11936  011F6C  2422               	addwf	??_countdown_now_num2str,w,c
 11937  011F6E  6ED9               	movwf	16345,c
 11938  011F70  0E00               	movlw	high _strCountdownNowTime
 11939  011F72  2023               	addwfc	??_countdown_now_num2str+1,w,c
 11940  011F74  6EDA               	movwf	16346,c
 11941  011F76  0E30               	movlw	48
 11942  011F78  6EDF               	movwf	16351,c
 11943  011F7A                     i2l309:
 11944                           
 11945                           ;countdown.c: 117: if(numCountdownNowTime[i]==1){strCountdownNowTime[i+1] = '1';}
 11946  011F7A  90D8               	bcf	16344,0,c
 11947  011F7C  3424               	rlcf	countdown_now_num2str@i,w,c
 11948  011F7E  6ED9               	movwf	16345,c
 11949  011F80  3425               	rlcf	countdown_now_num2str@i+1,w,c
 11950  011F82  6EDA               	movwf	16346,c
 11951  011F84  0E01               	movlw	low _numCountdownNowTime
 11952  011F86  26D9               	addwf	16345,f,c
 11953  011F88  0E00               	movlw	high _numCountdownNowTime
 11954  011F8A  22DA               	addwfc	16346,f,c
 11955  011F8C  04DE               	decf	16350,w,c
 11956  011F8E  10DE               	iorwf	16350,w,c
 11957  011F90  A4D8               	btfss	16344,2,c
 11958  011F92  D00E               	goto	i2l310
 11959  011F94  0E01               	movlw	1
 11960  011F96  2424               	addwf	countdown_now_num2str@i,w,c
 11961  011F98  6E22               	movwf	??_countdown_now_num2str& (0+255),c
 11962  011F9A  0E00               	movlw	0
 11963  011F9C  2025               	addwfc	countdown_now_num2str@i+1,w,c
 11964  011F9E  6E23               	movwf	(??_countdown_now_num2str+1)& (0+255),c
 11965  011FA0  0E76               	movlw	low _strCountdownNowTime
 11966  011FA2  2422               	addwf	??_countdown_now_num2str,w,c
 11967  011FA4  6ED9               	movwf	16345,c
 11968  011FA6  0E00               	movlw	high _strCountdownNowTime
 11969  011FA8  2023               	addwfc	??_countdown_now_num2str+1,w,c
 11970  011FAA  6EDA               	movwf	16346,c
 11971  011FAC  0E31               	movlw	49
 11972  011FAE  6EDF               	movwf	16351,c
 11973  011FB0                     i2l310:
 11974                           
 11975                           ;countdown.c: 118: if(numCountdownNowTime[i]==2){strCountdownNowTime[i+1] = '2';}
 11976  011FB0  90D8               	bcf	16344,0,c
 11977  011FB2  3424               	rlcf	countdown_now_num2str@i,w,c
 11978  011FB4  6ED9               	movwf	16345,c
 11979  011FB6  3425               	rlcf	countdown_now_num2str@i+1,w,c
 11980  011FB8  6EDA               	movwf	16346,c
 11981  011FBA  0E01               	movlw	low _numCountdownNowTime
 11982  011FBC  26D9               	addwf	16345,f,c
 11983  011FBE  0E00               	movlw	high _numCountdownNowTime
 11984  011FC0  22DA               	addwfc	16346,f,c
 11985  011FC2  0E02               	movlw	2
 11986  011FC4  18DE               	xorwf	16350,w,c
 11987  011FC6  10DE               	iorwf	16350,w,c
 11988  011FC8  A4D8               	btfss	16344,2,c
 11989  011FCA  D00E               	goto	i2l311
 11990  011FCC  0E01               	movlw	1
 11991  011FCE  2424               	addwf	countdown_now_num2str@i,w,c
 11992  011FD0  6E22               	movwf	??_countdown_now_num2str& (0+255),c
 11993  011FD2  0E00               	movlw	0
 11994  011FD4  2025               	addwfc	countdown_now_num2str@i+1,w,c
 11995  011FD6  6E23               	movwf	(??_countdown_now_num2str+1)& (0+255),c
 11996  011FD8  0E76               	movlw	low _strCountdownNowTime
 11997  011FDA  2422               	addwf	??_countdown_now_num2str,w,c
 11998  011FDC  6ED9               	movwf	16345,c
 11999  011FDE  0E00               	movlw	high _strCountdownNowTime
 12000  011FE0  2023               	addwfc	??_countdown_now_num2str+1,w,c
 12001  011FE2  6EDA               	movwf	16346,c
 12002  011FE4  0E32               	movlw	50
 12003  011FE6  6EDF               	movwf	16351,c
 12004  011FE8                     i2l311:
 12005                           
 12006                           ;countdown.c: 119: if(numCountdownNowTime[i]==3){strCountdownNowTime[i+1] = '3';}
 12007  011FE8  90D8               	bcf	16344,0,c
 12008  011FEA  3424               	rlcf	countdown_now_num2str@i,w,c
 12009  011FEC  6ED9               	movwf	16345,c
 12010  011FEE  3425               	rlcf	countdown_now_num2str@i+1,w,c
 12011  011FF0  6EDA               	movwf	16346,c
 12012  011FF2  0E01               	movlw	low _numCountdownNowTime
 12013  011FF4  26D9               	addwf	16345,f,c
 12014  011FF6  0E00               	movlw	high _numCountdownNowTime
 12015  011FF8  22DA               	addwfc	16346,f,c
 12016  011FFA  0E03               	movlw	3
 12017  011FFC  18DE               	xorwf	16350,w,c
 12018  011FFE  10DE               	iorwf	16350,w,c
 12019  012000  A4D8               	btfss	16344,2,c
 12020  012002  D00E               	goto	i2l312
 12021  012004  0E01               	movlw	1
 12022  012006  2424               	addwf	countdown_now_num2str@i,w,c
 12023  012008  6E22               	movwf	??_countdown_now_num2str& (0+255),c
 12024  01200A  0E00               	movlw	0
 12025  01200C  2025               	addwfc	countdown_now_num2str@i+1,w,c
 12026  01200E  6E23               	movwf	(??_countdown_now_num2str+1)& (0+255),c
 12027  012010  0E76               	movlw	low _strCountdownNowTime
 12028  012012  2422               	addwf	??_countdown_now_num2str,w,c
 12029  012014  6ED9               	movwf	16345,c
 12030  012016  0E00               	movlw	high _strCountdownNowTime
 12031  012018  2023               	addwfc	??_countdown_now_num2str+1,w,c
 12032  01201A  6EDA               	movwf	16346,c
 12033  01201C  0E33               	movlw	51
 12034  01201E  6EDF               	movwf	16351,c
 12035  012020                     i2l312:
 12036                           
 12037                           ;countdown.c: 120: if(numCountdownNowTime[i]==4){strCountdownNowTime[i+1] = '4';}
 12038  012020  90D8               	bcf	16344,0,c
 12039  012022  3424               	rlcf	countdown_now_num2str@i,w,c
 12040  012024  6ED9               	movwf	16345,c
 12041  012026  3425               	rlcf	countdown_now_num2str@i+1,w,c
 12042  012028  6EDA               	movwf	16346,c
 12043  01202A  0E01               	movlw	low _numCountdownNowTime
 12044  01202C  26D9               	addwf	16345,f,c
 12045  01202E  0E00               	movlw	high _numCountdownNowTime
 12046  012030  22DA               	addwfc	16346,f,c
 12047  012032  0E04               	movlw	4
 12048  012034  18DE               	xorwf	16350,w,c
 12049  012036  10DE               	iorwf	16350,w,c
 12050  012038  A4D8               	btfss	16344,2,c
 12051  01203A  D00E               	goto	i2l313
 12052  01203C  0E01               	movlw	1
 12053  01203E  2424               	addwf	countdown_now_num2str@i,w,c
 12054  012040  6E22               	movwf	??_countdown_now_num2str& (0+255),c
 12055  012042  0E00               	movlw	0
 12056  012044  2025               	addwfc	countdown_now_num2str@i+1,w,c
 12057  012046  6E23               	movwf	(??_countdown_now_num2str+1)& (0+255),c
 12058  012048  0E76               	movlw	low _strCountdownNowTime
 12059  01204A  2422               	addwf	??_countdown_now_num2str,w,c
 12060  01204C  6ED9               	movwf	16345,c
 12061  01204E  0E00               	movlw	high _strCountdownNowTime
 12062  012050  2023               	addwfc	??_countdown_now_num2str+1,w,c
 12063  012052  6EDA               	movwf	16346,c
 12064  012054  0E34               	movlw	52
 12065  012056  6EDF               	movwf	16351,c
 12066  012058                     i2l313:
 12067                           
 12068                           ;countdown.c: 121: if(numCountdownNowTime[i]==5){strCountdownNowTime[i+1] = '5';}
 12069  012058  90D8               	bcf	16344,0,c
 12070  01205A  3424               	rlcf	countdown_now_num2str@i,w,c
 12071  01205C  6ED9               	movwf	16345,c
 12072  01205E  3425               	rlcf	countdown_now_num2str@i+1,w,c
 12073  012060  6EDA               	movwf	16346,c
 12074  012062  0E01               	movlw	low _numCountdownNowTime
 12075  012064  26D9               	addwf	16345,f,c
 12076  012066  0E00               	movlw	high _numCountdownNowTime
 12077  012068  22DA               	addwfc	16346,f,c
 12078  01206A  0E05               	movlw	5
 12079  01206C  18DE               	xorwf	16350,w,c
 12080  01206E  10DE               	iorwf	16350,w,c
 12081  012070  A4D8               	btfss	16344,2,c
 12082  012072  D00E               	goto	i2l314
 12083  012074  0E01               	movlw	1
 12084  012076  2424               	addwf	countdown_now_num2str@i,w,c
 12085  012078  6E22               	movwf	??_countdown_now_num2str& (0+255),c
 12086  01207A  0E00               	movlw	0
 12087  01207C  2025               	addwfc	countdown_now_num2str@i+1,w,c
 12088  01207E  6E23               	movwf	(??_countdown_now_num2str+1)& (0+255),c
 12089  012080  0E76               	movlw	low _strCountdownNowTime
 12090  012082  2422               	addwf	??_countdown_now_num2str,w,c
 12091  012084  6ED9               	movwf	16345,c
 12092  012086  0E00               	movlw	high _strCountdownNowTime
 12093  012088  2023               	addwfc	??_countdown_now_num2str+1,w,c
 12094  01208A  6EDA               	movwf	16346,c
 12095  01208C  0E35               	movlw	53
 12096  01208E  6EDF               	movwf	16351,c
 12097  012090                     i2l314:
 12098                           
 12099                           ;countdown.c: 122: if(numCountdownNowTime[i]==6){strCountdownNowTime[i+1] = '6';}
 12100  012090  90D8               	bcf	16344,0,c
 12101  012092  3424               	rlcf	countdown_now_num2str@i,w,c
 12102  012094  6ED9               	movwf	16345,c
 12103  012096  3425               	rlcf	countdown_now_num2str@i+1,w,c
 12104  012098  6EDA               	movwf	16346,c
 12105  01209A  0E01               	movlw	low _numCountdownNowTime
 12106  01209C  26D9               	addwf	16345,f,c
 12107  01209E  0E00               	movlw	high _numCountdownNowTime
 12108  0120A0  22DA               	addwfc	16346,f,c
 12109  0120A2  0E06               	movlw	6
 12110  0120A4  18DE               	xorwf	16350,w,c
 12111  0120A6  10DE               	iorwf	16350,w,c
 12112  0120A8  A4D8               	btfss	16344,2,c
 12113  0120AA  D00E               	goto	i2l315
 12114  0120AC  0E01               	movlw	1
 12115  0120AE  2424               	addwf	countdown_now_num2str@i,w,c
 12116  0120B0  6E22               	movwf	??_countdown_now_num2str& (0+255),c
 12117  0120B2  0E00               	movlw	0
 12118  0120B4  2025               	addwfc	countdown_now_num2str@i+1,w,c
 12119  0120B6  6E23               	movwf	(??_countdown_now_num2str+1)& (0+255),c
 12120  0120B8  0E76               	movlw	low _strCountdownNowTime
 12121  0120BA  2422               	addwf	??_countdown_now_num2str,w,c
 12122  0120BC  6ED9               	movwf	16345,c
 12123  0120BE  0E00               	movlw	high _strCountdownNowTime
 12124  0120C0  2023               	addwfc	??_countdown_now_num2str+1,w,c
 12125  0120C2  6EDA               	movwf	16346,c
 12126  0120C4  0E36               	movlw	54
 12127  0120C6  6EDF               	movwf	16351,c
 12128  0120C8                     i2l315:
 12129                           
 12130                           ;countdown.c: 123: if(numCountdownNowTime[i]==7){strCountdownNowTime[i+1] = '7';}
 12131  0120C8  90D8               	bcf	16344,0,c
 12132  0120CA  3424               	rlcf	countdown_now_num2str@i,w,c
 12133  0120CC  6ED9               	movwf	16345,c
 12134  0120CE  3425               	rlcf	countdown_now_num2str@i+1,w,c
 12135  0120D0  6EDA               	movwf	16346,c
 12136  0120D2  0E01               	movlw	low _numCountdownNowTime
 12137  0120D4  26D9               	addwf	16345,f,c
 12138  0120D6  0E00               	movlw	high _numCountdownNowTime
 12139  0120D8  22DA               	addwfc	16346,f,c
 12140  0120DA  0E07               	movlw	7
 12141  0120DC  18DE               	xorwf	16350,w,c
 12142  0120DE  10DE               	iorwf	16350,w,c
 12143  0120E0  A4D8               	btfss	16344,2,c
 12144  0120E2  D00E               	goto	i2l316
 12145  0120E4  0E01               	movlw	1
 12146  0120E6  2424               	addwf	countdown_now_num2str@i,w,c
 12147  0120E8  6E22               	movwf	??_countdown_now_num2str& (0+255),c
 12148  0120EA  0E00               	movlw	0
 12149  0120EC  2025               	addwfc	countdown_now_num2str@i+1,w,c
 12150  0120EE  6E23               	movwf	(??_countdown_now_num2str+1)& (0+255),c
 12151  0120F0  0E76               	movlw	low _strCountdownNowTime
 12152  0120F2  2422               	addwf	??_countdown_now_num2str,w,c
 12153  0120F4  6ED9               	movwf	16345,c
 12154  0120F6  0E00               	movlw	high _strCountdownNowTime
 12155  0120F8  2023               	addwfc	??_countdown_now_num2str+1,w,c
 12156  0120FA  6EDA               	movwf	16346,c
 12157  0120FC  0E37               	movlw	55
 12158  0120FE  6EDF               	movwf	16351,c
 12159  012100                     i2l316:
 12160                           
 12161                           ;countdown.c: 124: if(numCountdownNowTime[i]==8){strCountdownNowTime[i+1] = '8';}
 12162  012100  90D8               	bcf	16344,0,c
 12163  012102  3424               	rlcf	countdown_now_num2str@i,w,c
 12164  012104  6ED9               	movwf	16345,c
 12165  012106  3425               	rlcf	countdown_now_num2str@i+1,w,c
 12166  012108  6EDA               	movwf	16346,c
 12167  01210A  0E01               	movlw	low _numCountdownNowTime
 12168  01210C  26D9               	addwf	16345,f,c
 12169  01210E  0E00               	movlw	high _numCountdownNowTime
 12170  012110  22DA               	addwfc	16346,f,c
 12171  012112  0E08               	movlw	8
 12172  012114  18DE               	xorwf	16350,w,c
 12173  012116  10DE               	iorwf	16350,w,c
 12174  012118  A4D8               	btfss	16344,2,c
 12175  01211A  D00E               	goto	i2l317
 12176  01211C  0E01               	movlw	1
 12177  01211E  2424               	addwf	countdown_now_num2str@i,w,c
 12178  012120  6E22               	movwf	??_countdown_now_num2str& (0+255),c
 12179  012122  0E00               	movlw	0
 12180  012124  2025               	addwfc	countdown_now_num2str@i+1,w,c
 12181  012126  6E23               	movwf	(??_countdown_now_num2str+1)& (0+255),c
 12182  012128  0E76               	movlw	low _strCountdownNowTime
 12183  01212A  2422               	addwf	??_countdown_now_num2str,w,c
 12184  01212C  6ED9               	movwf	16345,c
 12185  01212E  0E00               	movlw	high _strCountdownNowTime
 12186  012130  2023               	addwfc	??_countdown_now_num2str+1,w,c
 12187  012132  6EDA               	movwf	16346,c
 12188  012134  0E38               	movlw	56
 12189  012136  6EDF               	movwf	16351,c
 12190  012138                     i2l317:
 12191                           
 12192                           ;countdown.c: 125: if(numCountdownNowTime[i]==9){strCountdownNowTime[i+1] = '9';}
 12193  012138  90D8               	bcf	16344,0,c
 12194  01213A  3424               	rlcf	countdown_now_num2str@i,w,c
 12195  01213C  6ED9               	movwf	16345,c
 12196  01213E  3425               	rlcf	countdown_now_num2str@i+1,w,c
 12197  012140  6EDA               	movwf	16346,c
 12198  012142  0E01               	movlw	low _numCountdownNowTime
 12199  012144  26D9               	addwf	16345,f,c
 12200  012146  0E00               	movlw	high _numCountdownNowTime
 12201  012148  22DA               	addwfc	16346,f,c
 12202  01214A  0E09               	movlw	9
 12203  01214C  18DE               	xorwf	16350,w,c
 12204  01214E  10DE               	iorwf	16350,w,c
 12205  012150  A4D8               	btfss	16344,2,c
 12206  012152  D00E               	goto	i2l318
 12207  012154  0E01               	movlw	1
 12208  012156  2424               	addwf	countdown_now_num2str@i,w,c
 12209  012158  6E22               	movwf	??_countdown_now_num2str& (0+255),c
 12210  01215A  0E00               	movlw	0
 12211  01215C  2025               	addwfc	countdown_now_num2str@i+1,w,c
 12212  01215E  6E23               	movwf	(??_countdown_now_num2str+1)& (0+255),c
 12213  012160  0E76               	movlw	low _strCountdownNowTime
 12214  012162  2422               	addwf	??_countdown_now_num2str,w,c
 12215  012164  6ED9               	movwf	16345,c
 12216  012166  0E00               	movlw	high _strCountdownNowTime
 12217  012168  2023               	addwfc	??_countdown_now_num2str+1,w,c
 12218  01216A  6EDA               	movwf	16346,c
 12219  01216C  0E39               	movlw	57
 12220  01216E  6EDF               	movwf	16351,c
 12221  012170                     i2l318:
 12222                           
 12223                           ;countdown.c: 126: };countdown.c: 128: if(i==4||i==5)
 12224  012170  0E04               	movlw	4
 12225  012172  1824               	xorwf	countdown_now_num2str@i,w,c
 12226  012174  1025               	iorwf	countdown_now_num2str@i+1,w,c
 12227  012176  B4D8               	btfsc	16344,2,c
 12228  012178  D005               	goto	i2u363_40
 12229  01217A  0E05               	movlw	5
 12230  01217C  1824               	xorwf	countdown_now_num2str@i,w,c
 12231  01217E  1025               	iorwf	countdown_now_num2str@i+1,w,c
 12232  012180  A4D8               	btfss	16344,2,c
 12233  012182  D116               	goto	i2l331
 12234  012184                     i2u363_40:
 12235                           
 12236                           ;countdown.c: 129: {;countdown.c: 130: if(numCountdownNowTime[i]==0){strCountdownNowTime
      +                          [i+2] = '0';}
 12237  012184  90D8               	bcf	16344,0,c
 12238  012186  3424               	rlcf	countdown_now_num2str@i,w,c
 12239  012188  6ED9               	movwf	16345,c
 12240  01218A  3425               	rlcf	countdown_now_num2str@i+1,w,c
 12241  01218C  6EDA               	movwf	16346,c
 12242  01218E  0E01               	movlw	low _numCountdownNowTime
 12243  012190  26D9               	addwf	16345,f,c
 12244  012192  0E00               	movlw	high _numCountdownNowTime
 12245  012194  22DA               	addwfc	16346,f,c
 12246  012196  50DE               	movf	16350,w,c
 12247  012198  10DE               	iorwf	16350,w,c
 12248  01219A  A4D8               	btfss	16344,2,c
 12249  01219C  D00E               	goto	i2l322
 12250  01219E  0E02               	movlw	2
 12251  0121A0  2424               	addwf	countdown_now_num2str@i,w,c
 12252  0121A2  6E22               	movwf	??_countdown_now_num2str& (0+255),c
 12253  0121A4  0E00               	movlw	0
 12254  0121A6  2025               	addwfc	countdown_now_num2str@i+1,w,c
 12255  0121A8  6E23               	movwf	(??_countdown_now_num2str+1)& (0+255),c
 12256  0121AA  0E76               	movlw	low _strCountdownNowTime
 12257  0121AC  2422               	addwf	??_countdown_now_num2str,w,c
 12258  0121AE  6ED9               	movwf	16345,c
 12259  0121B0  0E00               	movlw	high _strCountdownNowTime
 12260  0121B2  2023               	addwfc	??_countdown_now_num2str+1,w,c
 12261  0121B4  6EDA               	movwf	16346,c
 12262  0121B6  0E30               	movlw	48
 12263  0121B8  6EDF               	movwf	16351,c
 12264  0121BA                     i2l322:
 12265                           
 12266                           ;countdown.c: 131: if(numCountdownNowTime[i]==1){strCountdownNowTime[i+2] = '1';}
 12267  0121BA  90D8               	bcf	16344,0,c
 12268  0121BC  3424               	rlcf	countdown_now_num2str@i,w,c
 12269  0121BE  6ED9               	movwf	16345,c
 12270  0121C0  3425               	rlcf	countdown_now_num2str@i+1,w,c
 12271  0121C2  6EDA               	movwf	16346,c
 12272  0121C4  0E01               	movlw	low _numCountdownNowTime
 12273  0121C6  26D9               	addwf	16345,f,c
 12274  0121C8  0E00               	movlw	high _numCountdownNowTime
 12275  0121CA  22DA               	addwfc	16346,f,c
 12276  0121CC  04DE               	decf	16350,w,c
 12277  0121CE  10DE               	iorwf	16350,w,c
 12278  0121D0  A4D8               	btfss	16344,2,c
 12279  0121D2  D00E               	goto	i2l323
 12280  0121D4  0E02               	movlw	2
 12281  0121D6  2424               	addwf	countdown_now_num2str@i,w,c
 12282  0121D8  6E22               	movwf	??_countdown_now_num2str& (0+255),c
 12283  0121DA  0E00               	movlw	0
 12284  0121DC  2025               	addwfc	countdown_now_num2str@i+1,w,c
 12285  0121DE  6E23               	movwf	(??_countdown_now_num2str+1)& (0+255),c
 12286  0121E0  0E76               	movlw	low _strCountdownNowTime
 12287  0121E2  2422               	addwf	??_countdown_now_num2str,w,c
 12288  0121E4  6ED9               	movwf	16345,c
 12289  0121E6  0E00               	movlw	high _strCountdownNowTime
 12290  0121E8  2023               	addwfc	??_countdown_now_num2str+1,w,c
 12291  0121EA  6EDA               	movwf	16346,c
 12292  0121EC  0E31               	movlw	49
 12293  0121EE  6EDF               	movwf	16351,c
 12294  0121F0                     i2l323:
 12295                           
 12296                           ;countdown.c: 132: if(numCountdownNowTime[i]==2){strCountdownNowTime[i+2] = '2';}
 12297  0121F0  90D8               	bcf	16344,0,c
 12298  0121F2  3424               	rlcf	countdown_now_num2str@i,w,c
 12299  0121F4  6ED9               	movwf	16345,c
 12300  0121F6  3425               	rlcf	countdown_now_num2str@i+1,w,c
 12301  0121F8  6EDA               	movwf	16346,c
 12302  0121FA  0E01               	movlw	low _numCountdownNowTime
 12303  0121FC  26D9               	addwf	16345,f,c
 12304  0121FE  0E00               	movlw	high _numCountdownNowTime
 12305  012200  22DA               	addwfc	16346,f,c
 12306  012202  0E02               	movlw	2
 12307  012204  18DE               	xorwf	16350,w,c
 12308  012206  10DE               	iorwf	16350,w,c
 12309  012208  A4D8               	btfss	16344,2,c
 12310  01220A  D00E               	goto	i2l324
 12311  01220C  0E02               	movlw	2
 12312  01220E  2424               	addwf	countdown_now_num2str@i,w,c
 12313  012210  6E22               	movwf	??_countdown_now_num2str& (0+255),c
 12314  012212  0E00               	movlw	0
 12315  012214  2025               	addwfc	countdown_now_num2str@i+1,w,c
 12316  012216  6E23               	movwf	(??_countdown_now_num2str+1)& (0+255),c
 12317  012218  0E76               	movlw	low _strCountdownNowTime
 12318  01221A  2422               	addwf	??_countdown_now_num2str,w,c
 12319  01221C  6ED9               	movwf	16345,c
 12320  01221E  0E00               	movlw	high _strCountdownNowTime
 12321  012220  2023               	addwfc	??_countdown_now_num2str+1,w,c
 12322  012222  6EDA               	movwf	16346,c
 12323  012224  0E32               	movlw	50
 12324  012226  6EDF               	movwf	16351,c
 12325  012228                     i2l324:
 12326                           
 12327                           ;countdown.c: 133: if(numCountdownNowTime[i]==3){strCountdownNowTime[i+2] = '3';}
 12328  012228  90D8               	bcf	16344,0,c
 12329  01222A  3424               	rlcf	countdown_now_num2str@i,w,c
 12330  01222C  6ED9               	movwf	16345,c
 12331  01222E  3425               	rlcf	countdown_now_num2str@i+1,w,c
 12332  012230  6EDA               	movwf	16346,c
 12333  012232  0E01               	movlw	low _numCountdownNowTime
 12334  012234  26D9               	addwf	16345,f,c
 12335  012236  0E00               	movlw	high _numCountdownNowTime
 12336  012238  22DA               	addwfc	16346,f,c
 12337  01223A  0E03               	movlw	3
 12338  01223C  18DE               	xorwf	16350,w,c
 12339  01223E  10DE               	iorwf	16350,w,c
 12340  012240  A4D8               	btfss	16344,2,c
 12341  012242  D00E               	goto	i2l325
 12342  012244  0E02               	movlw	2
 12343  012246  2424               	addwf	countdown_now_num2str@i,w,c
 12344  012248  6E22               	movwf	??_countdown_now_num2str& (0+255),c
 12345  01224A  0E00               	movlw	0
 12346  01224C  2025               	addwfc	countdown_now_num2str@i+1,w,c
 12347  01224E  6E23               	movwf	(??_countdown_now_num2str+1)& (0+255),c
 12348  012250  0E76               	movlw	low _strCountdownNowTime
 12349  012252  2422               	addwf	??_countdown_now_num2str,w,c
 12350  012254  6ED9               	movwf	16345,c
 12351  012256  0E00               	movlw	high _strCountdownNowTime
 12352  012258  2023               	addwfc	??_countdown_now_num2str+1,w,c
 12353  01225A  6EDA               	movwf	16346,c
 12354  01225C  0E33               	movlw	51
 12355  01225E  6EDF               	movwf	16351,c
 12356  012260                     i2l325:
 12357                           
 12358                           ;countdown.c: 134: if(numCountdownNowTime[i]==4){strCountdownNowTime[i+2] = '4';}
 12359  012260  90D8               	bcf	16344,0,c
 12360  012262  3424               	rlcf	countdown_now_num2str@i,w,c
 12361  012264  6ED9               	movwf	16345,c
 12362  012266  3425               	rlcf	countdown_now_num2str@i+1,w,c
 12363  012268  6EDA               	movwf	16346,c
 12364  01226A  0E01               	movlw	low _numCountdownNowTime
 12365  01226C  26D9               	addwf	16345,f,c
 12366  01226E  0E00               	movlw	high _numCountdownNowTime
 12367  012270  22DA               	addwfc	16346,f,c
 12368  012272  0E04               	movlw	4
 12369  012274  18DE               	xorwf	16350,w,c
 12370  012276  10DE               	iorwf	16350,w,c
 12371  012278  A4D8               	btfss	16344,2,c
 12372  01227A  D00E               	goto	i2l326
 12373  01227C  0E02               	movlw	2
 12374  01227E  2424               	addwf	countdown_now_num2str@i,w,c
 12375  012280  6E22               	movwf	??_countdown_now_num2str& (0+255),c
 12376  012282  0E00               	movlw	0
 12377  012284  2025               	addwfc	countdown_now_num2str@i+1,w,c
 12378  012286  6E23               	movwf	(??_countdown_now_num2str+1)& (0+255),c
 12379  012288  0E76               	movlw	low _strCountdownNowTime
 12380  01228A  2422               	addwf	??_countdown_now_num2str,w,c
 12381  01228C  6ED9               	movwf	16345,c
 12382  01228E  0E00               	movlw	high _strCountdownNowTime
 12383  012290  2023               	addwfc	??_countdown_now_num2str+1,w,c
 12384  012292  6EDA               	movwf	16346,c
 12385  012294  0E34               	movlw	52
 12386  012296  6EDF               	movwf	16351,c
 12387  012298                     i2l326:
 12388                           
 12389                           ;countdown.c: 135: if(numCountdownNowTime[i]==5){strCountdownNowTime[i+2] = '5';}
 12390  012298  90D8               	bcf	16344,0,c
 12391  01229A  3424               	rlcf	countdown_now_num2str@i,w,c
 12392  01229C  6ED9               	movwf	16345,c
 12393  01229E  3425               	rlcf	countdown_now_num2str@i+1,w,c
 12394  0122A0  6EDA               	movwf	16346,c
 12395  0122A2  0E01               	movlw	low _numCountdownNowTime
 12396  0122A4  26D9               	addwf	16345,f,c
 12397  0122A6  0E00               	movlw	high _numCountdownNowTime
 12398  0122A8  22DA               	addwfc	16346,f,c
 12399  0122AA  0E05               	movlw	5
 12400  0122AC  18DE               	xorwf	16350,w,c
 12401  0122AE  10DE               	iorwf	16350,w,c
 12402  0122B0  A4D8               	btfss	16344,2,c
 12403  0122B2  D00E               	goto	i2l327
 12404  0122B4  0E02               	movlw	2
 12405  0122B6  2424               	addwf	countdown_now_num2str@i,w,c
 12406  0122B8  6E22               	movwf	??_countdown_now_num2str& (0+255),c
 12407  0122BA  0E00               	movlw	0
 12408  0122BC  2025               	addwfc	countdown_now_num2str@i+1,w,c
 12409  0122BE  6E23               	movwf	(??_countdown_now_num2str+1)& (0+255),c
 12410  0122C0  0E76               	movlw	low _strCountdownNowTime
 12411  0122C2  2422               	addwf	??_countdown_now_num2str,w,c
 12412  0122C4  6ED9               	movwf	16345,c
 12413  0122C6  0E00               	movlw	high _strCountdownNowTime
 12414  0122C8  2023               	addwfc	??_countdown_now_num2str+1,w,c
 12415  0122CA  6EDA               	movwf	16346,c
 12416  0122CC  0E35               	movlw	53
 12417  0122CE  6EDF               	movwf	16351,c
 12418  0122D0                     i2l327:
 12419                           
 12420                           ;countdown.c: 136: if(numCountdownNowTime[i]==6){strCountdownNowTime[i+2] = '6';}
 12421  0122D0  90D8               	bcf	16344,0,c
 12422  0122D2  3424               	rlcf	countdown_now_num2str@i,w,c
 12423  0122D4  6ED9               	movwf	16345,c
 12424  0122D6  3425               	rlcf	countdown_now_num2str@i+1,w,c
 12425  0122D8  6EDA               	movwf	16346,c
 12426  0122DA  0E01               	movlw	low _numCountdownNowTime
 12427  0122DC  26D9               	addwf	16345,f,c
 12428  0122DE  0E00               	movlw	high _numCountdownNowTime
 12429  0122E0  22DA               	addwfc	16346,f,c
 12430  0122E2  0E06               	movlw	6
 12431  0122E4  18DE               	xorwf	16350,w,c
 12432  0122E6  10DE               	iorwf	16350,w,c
 12433  0122E8  A4D8               	btfss	16344,2,c
 12434  0122EA  D00E               	goto	i2l328
 12435  0122EC  0E02               	movlw	2
 12436  0122EE  2424               	addwf	countdown_now_num2str@i,w,c
 12437  0122F0  6E22               	movwf	??_countdown_now_num2str& (0+255),c
 12438  0122F2  0E00               	movlw	0
 12439  0122F4  2025               	addwfc	countdown_now_num2str@i+1,w,c
 12440  0122F6  6E23               	movwf	(??_countdown_now_num2str+1)& (0+255),c
 12441  0122F8  0E76               	movlw	low _strCountdownNowTime
 12442  0122FA  2422               	addwf	??_countdown_now_num2str,w,c
 12443  0122FC  6ED9               	movwf	16345,c
 12444  0122FE  0E00               	movlw	high _strCountdownNowTime
 12445  012300  2023               	addwfc	??_countdown_now_num2str+1,w,c
 12446  012302  6EDA               	movwf	16346,c
 12447  012304  0E36               	movlw	54
 12448  012306  6EDF               	movwf	16351,c
 12449  012308                     i2l328:
 12450                           
 12451                           ;countdown.c: 137: if(numCountdownNowTime[i]==7){strCountdownNowTime[i+2] = '7';}
 12452  012308  90D8               	bcf	16344,0,c
 12453  01230A  3424               	rlcf	countdown_now_num2str@i,w,c
 12454  01230C  6ED9               	movwf	16345,c
 12455  01230E  3425               	rlcf	countdown_now_num2str@i+1,w,c
 12456  012310  6EDA               	movwf	16346,c
 12457  012312  0E01               	movlw	low _numCountdownNowTime
 12458  012314  26D9               	addwf	16345,f,c
 12459  012316  0E00               	movlw	high _numCountdownNowTime
 12460  012318  22DA               	addwfc	16346,f,c
 12461  01231A  0E07               	movlw	7
 12462  01231C  18DE               	xorwf	16350,w,c
 12463  01231E  10DE               	iorwf	16350,w,c
 12464  012320  A4D8               	btfss	16344,2,c
 12465  012322  D00E               	goto	i2l329
 12466  012324  0E02               	movlw	2
 12467  012326  2424               	addwf	countdown_now_num2str@i,w,c
 12468  012328  6E22               	movwf	??_countdown_now_num2str& (0+255),c
 12469  01232A  0E00               	movlw	0
 12470  01232C  2025               	addwfc	countdown_now_num2str@i+1,w,c
 12471  01232E  6E23               	movwf	(??_countdown_now_num2str+1)& (0+255),c
 12472  012330  0E76               	movlw	low _strCountdownNowTime
 12473  012332  2422               	addwf	??_countdown_now_num2str,w,c
 12474  012334  6ED9               	movwf	16345,c
 12475  012336  0E00               	movlw	high _strCountdownNowTime
 12476  012338  2023               	addwfc	??_countdown_now_num2str+1,w,c
 12477  01233A  6EDA               	movwf	16346,c
 12478  01233C  0E37               	movlw	55
 12479  01233E  6EDF               	movwf	16351,c
 12480  012340                     i2l329:
 12481                           
 12482                           ;countdown.c: 138: if(numCountdownNowTime[i]==8){strCountdownNowTime[i+2] = '8';}
 12483  012340  90D8               	bcf	16344,0,c
 12484  012342  3424               	rlcf	countdown_now_num2str@i,w,c
 12485  012344  6ED9               	movwf	16345,c
 12486  012346  3425               	rlcf	countdown_now_num2str@i+1,w,c
 12487  012348  6EDA               	movwf	16346,c
 12488  01234A  0E01               	movlw	low _numCountdownNowTime
 12489  01234C  26D9               	addwf	16345,f,c
 12490  01234E  0E00               	movlw	high _numCountdownNowTime
 12491  012350  22DA               	addwfc	16346,f,c
 12492  012352  0E08               	movlw	8
 12493  012354  18DE               	xorwf	16350,w,c
 12494  012356  10DE               	iorwf	16350,w,c
 12495  012358  A4D8               	btfss	16344,2,c
 12496  01235A  D00E               	goto	i2l330
 12497  01235C  0E02               	movlw	2
 12498  01235E  2424               	addwf	countdown_now_num2str@i,w,c
 12499  012360  6E22               	movwf	??_countdown_now_num2str& (0+255),c
 12500  012362  0E00               	movlw	0
 12501  012364  2025               	addwfc	countdown_now_num2str@i+1,w,c
 12502  012366  6E23               	movwf	(??_countdown_now_num2str+1)& (0+255),c
 12503  012368  0E76               	movlw	low _strCountdownNowTime
 12504  01236A  2422               	addwf	??_countdown_now_num2str,w,c
 12505  01236C  6ED9               	movwf	16345,c
 12506  01236E  0E00               	movlw	high _strCountdownNowTime
 12507  012370  2023               	addwfc	??_countdown_now_num2str+1,w,c
 12508  012372  6EDA               	movwf	16346,c
 12509  012374  0E38               	movlw	56
 12510  012376  6EDF               	movwf	16351,c
 12511  012378                     i2l330:
 12512                           
 12513                           ;countdown.c: 139: if(numCountdownNowTime[i]==9){strCountdownNowTime[i+2] = '9';}
 12514  012378  90D8               	bcf	16344,0,c
 12515  01237A  3424               	rlcf	countdown_now_num2str@i,w,c
 12516  01237C  6ED9               	movwf	16345,c
 12517  01237E  3425               	rlcf	countdown_now_num2str@i+1,w,c
 12518  012380  6EDA               	movwf	16346,c
 12519  012382  0E01               	movlw	low _numCountdownNowTime
 12520  012384  26D9               	addwf	16345,f,c
 12521  012386  0E00               	movlw	high _numCountdownNowTime
 12522  012388  22DA               	addwfc	16346,f,c
 12523  01238A  0E09               	movlw	9
 12524  01238C  18DE               	xorwf	16350,w,c
 12525  01238E  10DE               	iorwf	16350,w,c
 12526  012390  A4D8               	btfss	16344,2,c
 12527  012392  D00E               	goto	i2l331
 12528  012394  0E02               	movlw	2
 12529  012396  2424               	addwf	countdown_now_num2str@i,w,c
 12530  012398  6E22               	movwf	??_countdown_now_num2str& (0+255),c
 12531  01239A  0E00               	movlw	0
 12532  01239C  2025               	addwfc	countdown_now_num2str@i+1,w,c
 12533  01239E  6E23               	movwf	(??_countdown_now_num2str+1)& (0+255),c
 12534  0123A0  0E76               	movlw	low _strCountdownNowTime
 12535  0123A2  2422               	addwf	??_countdown_now_num2str,w,c
 12536  0123A4  6ED9               	movwf	16345,c
 12537  0123A6  0E00               	movlw	high _strCountdownNowTime
 12538  0123A8  2023               	addwfc	??_countdown_now_num2str+1,w,c
 12539  0123AA  6EDA               	movwf	16346,c
 12540  0123AC  0E39               	movlw	57
 12541  0123AE  6EDF               	movwf	16351,c
 12542  0123B0                     i2l331:
 12543  0123B0  4A24               	infsnz	countdown_now_num2str@i,f,c
 12544  0123B2  2A25               	incf	countdown_now_num2str@i+1,f,c
 12545  0123B4  BE25               	btfsc	countdown_now_num2str@i+1,7,c
 12546  0123B6  D4DA               	goto	i2l291
 12547  0123B8  5025               	movf	countdown_now_num2str@i+1,w,c
 12548  0123BA  E101               	bnz	i2l332
 12549  0123BC  D4D1               	goto	L18
 12550  0123BE                     i2l332:
 12551  0123BE  0012               	return		;funcret
 12552  0123C0                     __end_of_countdown_now_num2str:
 12553                           	opt stack 0
 12554                           
 12555                           ;
 12556                           ; Interrupt Vector Table @ 0x8
 12557                           ;
 12558                           
 12559                           	psect	ivt0x8
 12560  000008                     __pivt0x8:
 12561                           	opt stack 0
 12562  000008                     ivt0x8_base:
 12563                           	opt stack 0
 12564                           
 12565                           ; high-priority vector
 12566  000008  EF56  F094         	goto	_ISR
 12567  000018                     	org	16
 12568                           
 12569                           ; low-priority vector
 12570  000018  00FF               	reset	
 12571                           
 12572                           	psect	rparam


Data Sizes:
    Strings     301
    Constant    0
    Data        71
    BSS         32
    Persistent  0
    Stack       0

Auto Spaces:
    Space          Size  Autos    Used
    COMRAM           95     25      82
    BANK0           160     19      65
    BANK1           256      0       0
    BANK2           256      0       0
    BANK3           256      0       0
    BANK4           256      0       0
    BANK5           256      0       0
    BANK6           256      0       0
    BANK7           256      0       0
    BANK8           256      0       0
    BANK9           256      0       0
    BANK10          256      0       0
    BANK11          256      0       0
    BANK12          256      0       0
    BANK13          256      0       0
    BANK14          256      0       0
    BANK15          256      0       0
    BANK16          256      0       0
    BANK17          256      0       0
    BANK18          256      0       0
    BANK19          256      0       0
    BANK20          256      0       0
    BANK21          256      0       0
    BANK22          256      0       0
    BANK23          256      0       0
    BANK24          256      0       0
    BANK25          256      0       0
    BANK26          256      0       0
    BANK27          256      0       0
    BANK28          256      0       0
    BANK29          256      0       0
    BANK30          256      0       0
    BANK31          256      0       0

Pointer List with Targets:

    strlen@s	PTR const unsigned char  size(2) Largest target is 8
		 -> userPswdEntry(BANK0[8]), strCountdownNowTime(BANK0[8]), 

    strlen@cp	PTR const unsigned char  size(2) Largest target is 8
		 -> userPswdEntry(BANK0[8]), strCountdownNowTime(BANK0[8]), 

    strcmp@s2	PTR const unsigned char  size(2) Largest target is 8
		 -> password(BANK0[8]), 

    strcmp@s1	PTR const unsigned char  size(2) Largest target is 8
		 -> userPswdEntry(BANK0[8]), 

    serialPrint@string	PTR unsigned char  size(2) Largest target is 8
		 -> strCountdownNowTime(BANK0[8]), 

    verifyPassword@pass	PTR unsigned char  size(2) Largest target is 8
		 -> password(BANK0[8]), 

    verifyPassword@user	PTR unsigned char  size(2) Largest target is 8
		 -> userPswdEntry(BANK0[8]), 

    resetEntry@str	PTR unsigned char  size(2) Largest target is 8
		 -> userPswdEntry(BANK0[8]), 

    LCD_Write_String@f	PTR unsigned char  size(2) Largest target is 17
		 -> STR_36(CODE[17]), STR_35(CODE[17]), STR_34(CODE[17]), STR_33(CODE[17]), 
		 -> STR_32(CODE[17]), STR_31(CODE[17]), STR_30(CODE[17]), STR_29(CODE[17]), 
		 -> STR_28(CODE[17]), STR_27(CODE[17]), STR_26(CODE[17]), STR_25(CODE[17]), 
		 -> STR_24(CODE[17]), STR_23(CODE[17]), STR_22(CODE[17]), STR_21(CODE[17]), 
		 -> STR_20(CODE[17]), STR_19(CODE[17]), STR_18(CODE[17]), STR_17(CODE[13]), 
		 -> STR_16(CODE[17]), STR_15(CODE[17]), STR_14(CODE[17]), STR_13(CODE[7]), 
		 -> STR_12(CODE[9]), STR_11(CODE[7]), STR_10(CODE[9]), STR_9(CODE[17]), 
		 -> STR_8(CODE[9]), STR_7(CODE[9]), STR_6(CODE[17]), STR_5(CODE[9]), 
		 -> STR_4(CODE[9]), STR_3(CODE[17]), STR_2(CODE[17]), STR_1(CODE[7]), 


Critical Paths under _main in COMRAM

    _main->_serialPrint
    _verifyPassword->_strcmp
    _LCD_Cursor_Blink_On->_LCD_Cmd
    _stanbyPageReset->_resetEntry
    _setup->_LCD_Initialize
    _LCD_Initialize->_LCD_Clear
    _LCD_Initialize->_LCD_Cmd
    _serialPrint->_strlen
    _keypadRead->_keypadScan
    _disarmedPageReset->_resetEntry
    _LCD_printNowCountdown->_LCD_Set_Cursor
    _armedPageReset->_resetEntry
    _resetEntry->_strlen
    _LCD_resetPasswordEntry->_LCD_Write_String
    _LCD_printInitialCountdown->_LCD_Set_Cursor
    _LCD_printDeclined->_LCD_Write_String
    _LCD_printAccepted->_LCD_Write_String
    _LCD_Write_String->_LCD_Write_Char
    _LCD_Set_Cursor->_LCD_Cmd
    _LCD_Cursor_Blink_Off->_LCD_Cmd
    _LCD_Cursor_Right->_LCD_Cmd
    _LCD_Cursor_Left->_LCD_Cmd

Critical Paths under _ISR in COMRAM

    i2_LCD_Write_String->i2_LCD_Write_Char
    _countdown_drop_timer->i2_LCD_printNowCountdown
    i2_LCD_printNowCountdown->i2_LCD_Set_Cursor
    i2_LCD_Set_Cursor->i2_LCD_Cmd

Critical Paths under _main in BANK0

    _main->_keypadRead

Critical Paths under _ISR in BANK0

    None.

Critical Paths under _main in BANK1

    None.

Critical Paths under _ISR in BANK1

    None.

Critical Paths under _main in BANK2

    None.

Critical Paths under _ISR in BANK2

    None.

Critical Paths under _main in BANK3

    None.

Critical Paths under _ISR in BANK3

    None.

Critical Paths under _main in BANK4

    None.

Critical Paths under _ISR in BANK4

    None.

Critical Paths under _main in BANK5

    None.

Critical Paths under _ISR in BANK5

    None.

Critical Paths under _main in BANK6

    None.

Critical Paths under _ISR in BANK6

    None.

Critical Paths under _main in BANK7

    None.

Critical Paths under _ISR in BANK7

    None.

Critical Paths under _main in BANK8

    None.

Critical Paths under _ISR in BANK8

    None.

Critical Paths under _main in BANK9

    None.

Critical Paths under _ISR in BANK9

    None.

Critical Paths under _main in BANK10

    None.

Critical Paths under _ISR in BANK10

    None.

Critical Paths under _main in BANK11

    None.

Critical Paths under _ISR in BANK11

    None.

Critical Paths under _main in BANK12

    None.

Critical Paths under _ISR in BANK12

    None.

Critical Paths under _main in BANK13

    None.

Critical Paths under _ISR in BANK13

    None.

Critical Paths under _main in BANK14

    None.

Critical Paths under _ISR in BANK14

    None.

Critical Paths under _main in BANK15

    None.

Critical Paths under _ISR in BANK15

    None.

Critical Paths under _main in BANK16

    None.

Critical Paths under _ISR in BANK16

    None.

Critical Paths under _main in BANK17

    None.

Critical Paths under _ISR in BANK17

    None.

Critical Paths under _main in BANK18

    None.

Critical Paths under _ISR in BANK18

    None.

Critical Paths under _main in BANK19

    None.

Critical Paths under _ISR in BANK19

    None.

Critical Paths under _main in BANK20

    None.

Critical Paths under _ISR in BANK20

    None.

Critical Paths under _main in BANK21

    None.

Critical Paths under _ISR in BANK21

    None.

Critical Paths under _main in BANK22

    None.

Critical Paths under _ISR in BANK22

    None.

Critical Paths under _main in BANK23

    None.

Critical Paths under _ISR in BANK23

    None.

Critical Paths under _main in BANK24

    None.

Critical Paths under _ISR in BANK24

    None.

Critical Paths under _main in BANK25

    None.

Critical Paths under _ISR in BANK25

    None.

Critical Paths under _main in BANK26

    None.

Critical Paths under _ISR in BANK26

    None.

Critical Paths under _main in BANK27

    None.

Critical Paths under _ISR in BANK27

    None.

Critical Paths under _main in BANK28

    None.

Critical Paths under _ISR in BANK28

    None.

Critical Paths under _main in BANK29

    None.

Critical Paths under _ISR in BANK29

    None.

Critical Paths under _main in BANK30

    None.

Critical Paths under _ISR in BANK30

    None.

Critical Paths under _main in BANK31

    None.

Critical Paths under _ISR in BANK31

    None.

Call Graph Tables:

 ---------------------------------------------------------------------------------
 (Depth) Function   	        Calls       Base Space   Used Autos Params    Refs
 ---------------------------------------------------------------------------------
 (0) _main                                                10    10      0  171273
                                              9 BANK0     10    10      0
               _LCD_Cursor_Blink_Off
                _LCD_Cursor_Blink_On
                    _LCD_Cursor_Left
                   _LCD_Cursor_Right
                     _LCD_Set_Cursor
                     _LCD_Write_Char
                   _LCD_Write_String
                  _LCD_printAccepted
                  _LCD_printDeclined
          _LCD_printInitialCountdown
              _LCD_printNowCountdown
             _LCD_resetPasswordEntry
                            _armBeep
                     _armedPageReset
                     _countdownStart
                      _countdownStop
          _countdown_initial_str2num
     _countdown_now_reset_to_initial
                         _disarmBeep
                  _disarmedPageReset
                         _keypadRead
                         _resetEntry
                 _resetPasswordEntry
                        _serialPrint
                         _serialSend
                              _setup
                    _stanbyPageReset
             _verifyInterfaceOptions
                     _verifyPassword
 ---------------------------------------------------------------------------------
 (1) _verifyPassword                                       4     0      4    1095
                                             18 COMRAM     4     0      4
                             _strcmp
 ---------------------------------------------------------------------------------
 (2) _strcmp                                               6     2      4     313
                                             12 COMRAM     6     2      4
 ---------------------------------------------------------------------------------
 (1) _verifyInterfaceOptions                               0     0      0      62
               _LCD_Cursor_Blink_Off
                _LCD_Cursor_Blink_On
 ---------------------------------------------------------------------------------
 (2) _LCD_Cursor_Blink_On                                  0     0      0      31
                            _LCD_Cmd
 ---------------------------------------------------------------------------------
 (1) _stanbyPageReset                                      0     0      0   34962
                          _LCD_Clear
                     _LCD_Set_Cursor
                   _LCD_Write_String
              _LCD_printNowCountdown
             _LCD_resetPasswordEntry
                         _resetEntry
 ---------------------------------------------------------------------------------
 (1) _setup                                                0     0      0      31
                  _BEEPER_Initialize
               _COUNTDOWN_Initialize
                  _KEYPAD_Initialize
                     _LCD_Initialize
                  _SYSTEM_Initialize
                   _UART1_Initialize
 ---------------------------------------------------------------------------------
 (2) _UART1_Initialize                                     0     0      0       0
 ---------------------------------------------------------------------------------
 (2) _SYSTEM_Initialize                                    0     0      0       0
             _ADC_MANAGER_Initialize
           _CONFIGURATION_Initialize
               _INTERRUPT_Initialize
              _OSCILLATOR_Initialize
             _PIN_MANAGER_Initialize
                     _PMD_Initialize
 ---------------------------------------------------------------------------------
 (3) _PMD_Initialize                                       0     0      0       0
 ---------------------------------------------------------------------------------
 (3) _PIN_MANAGER_Initialize                               0     0      0       0
 ---------------------------------------------------------------------------------
 (3) _OSCILLATOR_Initialize                                0     0      0       0
 ---------------------------------------------------------------------------------
 (3) _INTERRUPT_Initialize                                 0     0      0       0
 ---------------------------------------------------------------------------------
 (3) _CONFIGURATION_Initialize                             0     0      0       0
 ---------------------------------------------------------------------------------
 (3) _ADC_MANAGER_Initialize                               0     0      0       0
 ---------------------------------------------------------------------------------
 (2) _LCD_Initialize                                       1     1      0      31
                                             13 COMRAM     1     1      0
                          _LCD_Clear
                            _LCD_Cmd
 ---------------------------------------------------------------------------------
 (2) _KEYPAD_Initialize                                    0     0      0       0
 ---------------------------------------------------------------------------------
 (2) _COUNTDOWN_Initialize                                 0     0      0       0
 ---------------------------------------------------------------------------------
 (2) _BEEPER_Initialize                                    0     0      0       0
 ---------------------------------------------------------------------------------
 (1) _serialPrint                                          7     5      2     595
                                             18 COMRAM     7     5      2
                         _serialSend
                             _strlen
 ---------------------------------------------------------------------------------
 (1) _serialSend                                           1     1      0      31
                                             12 COMRAM     1     1      0
 ---------------------------------------------------------------------------------
 (1) _resetPasswordEntry                                   2     2      0      99
                                             12 COMRAM     2     2      0
 ---------------------------------------------------------------------------------
 (1) _keypadRead                                          13    11      2     386
                                             15 COMRAM     4     2      2
                                              0 BANK0      9     9      0
                         _keypadScan
                         _normalBeep
                        _normalBlink
                          _quickBeep
                         _quickBlink
 ---------------------------------------------------------------------------------
 (2) _quickBlink                                           0     0      0       0
 ---------------------------------------------------------------------------------
 (2) _quickBeep                                            0     0      0       0
 ---------------------------------------------------------------------------------
 (2) _normalBlink                                          0     0      0       0
 ---------------------------------------------------------------------------------
 (2) _normalBeep                                           0     0      0       0
 ---------------------------------------------------------------------------------
 (2) _keypadScan                                           3     1      2       0
                                             12 COMRAM     3     1      2
 ---------------------------------------------------------------------------------
 (1) _disarmedPageReset                                    0     0      0   34962
                          _LCD_Clear
                     _LCD_Set_Cursor
                   _LCD_Write_String
              _LCD_printNowCountdown
             _LCD_resetPasswordEntry
                         _resetEntry
 ---------------------------------------------------------------------------------
 (2) _LCD_printNowCountdown                                2     2      0    9244
                                             18 COMRAM     2     2      0
                     _LCD_Set_Cursor
                     _LCD_Write_Char
 ---------------------------------------------------------------------------------
 (2) _LCD_Clear                                            1     1      0       0
                                             12 COMRAM     1     1      0
 ---------------------------------------------------------------------------------
 (1) _disarmBeep                                           2     2      0       0
                                             12 COMRAM     2     2      0
                        _veryLowBeep
 ---------------------------------------------------------------------------------
 (1) _countdown_now_reset_to_initial                       6     6      0     471
                                             12 COMRAM     6     6      0
 ---------------------------------------------------------------------------------
 (1) _countdown_initial_str2num                            6     6      0    2114
                                             12 COMRAM     6     6      0
 ---------------------------------------------------------------------------------
 (1) _countdownStop                                        0     0      0       0
 ---------------------------------------------------------------------------------
 (1) _countdownStart                                       0     0      0       0
 ---------------------------------------------------------------------------------
 (1) _armedPageReset                                       0     0      0   25718
                     _LCD_Set_Cursor
                   _LCD_Write_String
             _LCD_resetPasswordEntry
                         _resetEntry
 ---------------------------------------------------------------------------------
 (2) _resetEntry                                           4     2      2     890
                                             18 COMRAM     4     2      2
                             _strlen
 ---------------------------------------------------------------------------------
 (3) _strlen                                               6     4      2     310
                                             12 COMRAM     6     4      2
 ---------------------------------------------------------------------------------
 (2) _LCD_resetPasswordEntry                               0     0      0   12414
                     _LCD_Set_Cursor
                   _LCD_Write_String
 ---------------------------------------------------------------------------------
 (1) _armBeep                                              2     2      0       0
                                             12 COMRAM     2     2      0
                        _veryLowBeep
 ---------------------------------------------------------------------------------
 (2) _veryLowBeep                                          0     0      0       0
 ---------------------------------------------------------------------------------
 (1) _LCD_printInitialCountdown                            2     2      0    9244
                                             18 COMRAM     2     2      0
                     _LCD_Set_Cursor
                     _LCD_Write_Char
 ---------------------------------------------------------------------------------
 (1) _LCD_printDeclined                                    4     4      0   12513
                                             19 COMRAM     4     4      0
               _LCD_Cursor_Blink_Off
                     _LCD_Set_Cursor
                   _LCD_Write_String
                        _longLowBeep
 ---------------------------------------------------------------------------------
 (1) _LCD_printAccepted                                    4     4      0   12513
                                             19 COMRAM     4     4      0
               _LCD_Cursor_Blink_Off
                     _LCD_Set_Cursor
                   _LCD_Write_String
                        _longLowBeep
 ---------------------------------------------------------------------------------
 (2) _longLowBeep                                          0     0      0       0
 ---------------------------------------------------------------------------------
 (3) _LCD_Write_String                                     6     4      2    3331
                                             13 COMRAM     6     4      2
                     _LCD_Write_Char
 ---------------------------------------------------------------------------------
 (4) _LCD_Write_Char                                       1     1      0      31
                                             12 COMRAM     1     1      0
 ---------------------------------------------------------------------------------
 (3) _LCD_Set_Cursor                                       5     1      4    9083
                                             13 COMRAM     5     1      4
                            _LCD_Cmd
 ---------------------------------------------------------------------------------
 (2) _LCD_Cursor_Blink_Off                                 0     0      0      31
                            _LCD_Cmd
 ---------------------------------------------------------------------------------
 (1) _LCD_Cursor_Right                                     0     0      0      31
                            _LCD_Cmd
 ---------------------------------------------------------------------------------
 (1) _LCD_Cursor_Left                                      0     0      0      31
                            _LCD_Cmd
 ---------------------------------------------------------------------------------
 (3) _LCD_Cmd                                              1     1      0      31
                                             12 COMRAM     1     1      0
 ---------------------------------------------------------------------------------
 Estimated maximum stack depth 4
 ---------------------------------------------------------------------------------
 (Depth) Function   	        Calls       Base Space   Used Autos Params    Refs
 ---------------------------------------------------------------------------------
 (5) _ISR                                                  4     4      0    2480
                                              8 COMRAM     4     4      0
               _countdown_drop_timer
                   i2_LCD_Set_Cursor
                 i2_LCD_Write_String
 ---------------------------------------------------------------------------------
 (6) i2_LCD_Write_String                                   6     4      2     164
                                              1 COMRAM     6     4      2
                   i2_LCD_Write_Char
 ---------------------------------------------------------------------------------
 (6) _countdown_drop_timer                                 0     0      0    2004
              _countdown_now_num2str
                            _endBeep
            i2_LCD_printNowCountdown
                    i2_countdownStop
                       i2_normalBeep
                       i2_serialSend
 ---------------------------------------------------------------------------------
 (7) i2_serialSend                                         1     1      0      22
                                              0 COMRAM     1     1      0
 ---------------------------------------------------------------------------------
 (7) i2_normalBeep                                         0     0      0       0
 ---------------------------------------------------------------------------------
 (7) i2_countdownStop                                      0     0      0       0
 ---------------------------------------------------------------------------------
 (7) i2_LCD_printNowCountdown                              2     2      0     424
                                              6 COMRAM     2     2      0
                   i2_LCD_Set_Cursor
                   i2_LCD_Write_Char
 ---------------------------------------------------------------------------------
 (7) i2_LCD_Write_Char                                     1     1      0      22
                                              0 COMRAM     1     1      0
 ---------------------------------------------------------------------------------
 (6) i2_LCD_Set_Cursor                                     5     1      4     312
                                              1 COMRAM     5     1      4
                          i2_LCD_Cmd
 ---------------------------------------------------------------------------------
 (7) i2_LCD_Cmd                                            1     1      0      22
                                              0 COMRAM     1     1      0
 ---------------------------------------------------------------------------------
 (7) _endBeep                                              5     5      0      60
                                              0 COMRAM     5     5      0
 ---------------------------------------------------------------------------------
 (7) _countdown_now_num2str                                4     4      0    1498
                                              0 COMRAM     4     4      0
 ---------------------------------------------------------------------------------
 Estimated maximum stack depth 7
 ---------------------------------------------------------------------------------

 Call Graph Graphs:

 _main (ROOT)
   _LCD_Cursor_Blink_Off
     _LCD_Cmd
   _LCD_Cursor_Blink_On
     _LCD_Cmd
   _LCD_Cursor_Left
     _LCD_Cmd
   _LCD_Cursor_Right
     _LCD_Cmd
   _LCD_Set_Cursor
     _LCD_Cmd
   _LCD_Write_Char
   _LCD_Write_String
     _LCD_Write_Char
   _LCD_printAccepted
     _LCD_Cursor_Blink_Off
       _LCD_Cmd
     _LCD_Set_Cursor
       _LCD_Cmd
     _LCD_Write_String
       _LCD_Write_Char
     _longLowBeep
   _LCD_printDeclined
     _LCD_Cursor_Blink_Off
       _LCD_Cmd
     _LCD_Set_Cursor
       _LCD_Cmd
     _LCD_Write_String
       _LCD_Write_Char
     _longLowBeep
   _LCD_printInitialCountdown
     _LCD_Set_Cursor
       _LCD_Cmd
     _LCD_Write_Char
   _LCD_printNowCountdown
     _LCD_Set_Cursor
       _LCD_Cmd
     _LCD_Write_Char
   _LCD_resetPasswordEntry
     _LCD_Set_Cursor
       _LCD_Cmd
     _LCD_Write_String
       _LCD_Write_Char
   _armBeep
     _veryLowBeep
   _armedPageReset
     _LCD_Set_Cursor
       _LCD_Cmd
     _LCD_Write_String
       _LCD_Write_Char
     _LCD_resetPasswordEntry
       _LCD_Set_Cursor
         _LCD_Cmd
       _LCD_Write_String
         _LCD_Write_Char
     _resetEntry
       _strlen
   _countdownStart
   _countdownStop
   _countdown_initial_str2num
   _countdown_now_reset_to_initial
   _disarmBeep
     _veryLowBeep
   _disarmedPageReset
     _LCD_Clear
     _LCD_Set_Cursor
       _LCD_Cmd
     _LCD_Write_String
       _LCD_Write_Char
     _LCD_printNowCountdown
       _LCD_Set_Cursor
         _LCD_Cmd
       _LCD_Write_Char
     _LCD_resetPasswordEntry
       _LCD_Set_Cursor
         _LCD_Cmd
       _LCD_Write_String
         _LCD_Write_Char
     _resetEntry
       _strlen
   _keypadRead
     _keypadScan
     _normalBeep
     _normalBlink
     _quickBeep
     _quickBlink
   _resetEntry
     _strlen
   _resetPasswordEntry
   _serialPrint
     _serialSend
     _strlen
   _serialSend
   _setup
     _BEEPER_Initialize
     _COUNTDOWN_Initialize
     _KEYPAD_Initialize
     _LCD_Initialize
       _LCD_Clear
       _LCD_Cmd
     _SYSTEM_Initialize
       _ADC_MANAGER_Initialize
       _CONFIGURATION_Initialize
       _INTERRUPT_Initialize
       _OSCILLATOR_Initialize
       _PIN_MANAGER_Initialize
       _PMD_Initialize
     _UART1_Initialize
   _stanbyPageReset
     _LCD_Clear
     _LCD_Set_Cursor
       _LCD_Cmd
     _LCD_Write_String
       _LCD_Write_Char
     _LCD_printNowCountdown
       _LCD_Set_Cursor
         _LCD_Cmd
       _LCD_Write_Char
     _LCD_resetPasswordEntry
       _LCD_Set_Cursor
         _LCD_Cmd
       _LCD_Write_String
         _LCD_Write_Char
     _resetEntry
       _strlen
   _verifyInterfaceOptions
     _LCD_Cursor_Blink_Off
       _LCD_Cmd
     _LCD_Cursor_Blink_On
       _LCD_Cmd
   _verifyPassword
     _strcmp

 _ISR (ROOT)
   _countdown_drop_timer
     _countdown_now_num2str
     _endBeep
     i2_LCD_printNowCountdown
       i2_LCD_Set_Cursor
         i2_LCD_Cmd
       i2_LCD_Write_Char
     i2_countdownStop
     i2_normalBeep
     i2_serialSend
   i2_LCD_Set_Cursor
     i2_LCD_Cmd
   i2_LCD_Write_String
     i2_LCD_Write_Char

 Address spaces:
Name               Size   Autos  Total    Cost      Usage
BIGRAM            1FFF      0       0      69        0.0%
EEDATA             400      0       0       0        0.0%
BITBANK31          100      0       0      67        0.0%
BANK31             100      0       0      68        0.0%
BITBANK30          100      0       0      65        0.0%
BANK30             100      0       0      66        0.0%
BITBANK29          100      0       0      63        0.0%
BANK29             100      0       0      64        0.0%
BITBANK28          100      0       0      61        0.0%
BANK28             100      0       0      62        0.0%
BITBANK27          100      0       0      59        0.0%
BANK27             100      0       0      60        0.0%
BITBANK26          100      0       0      56        0.0%
BANK26             100      0       0      57        0.0%
BITBANK25          100      0       0      54        0.0%
BANK25             100      0       0      55        0.0%
BITBANK24          100      0       0      52        0.0%
BANK24             100      0       0      53        0.0%
BITBANK23          100      0       0      50        0.0%
BANK23             100      0       0      51        0.0%
BITBANK22          100      0       0      48        0.0%
BANK22             100      0       0      49        0.0%
BITBANK21          100      0       0      46        0.0%
BANK21             100      0       0      47        0.0%
BITBANK20          100      0       0      44        0.0%
BANK20             100      0       0      45        0.0%
BITBANK19          100      0       0      42        0.0%
BANK19             100      0       0      43        0.0%
BITBANK18          100      0       0      40        0.0%
BANK18             100      0       0      41        0.0%
BITBANK17          100      0       0      38        0.0%
BANK17             100      0       0      39        0.0%
BITBANK16          100      0       0      36        0.0%
BANK16             100      0       0      37        0.0%
BITBANK15          100      0       0      34        0.0%
BANK15             100      0       0      35        0.0%
BITBANK14          100      0       0      32        0.0%
BANK14             100      0       0      33        0.0%
BITBANK13          100      0       0      30        0.0%
BANK13             100      0       0      31        0.0%
BITBANK12          100      0       0      28        0.0%
BANK12             100      0       0      29        0.0%
BITBANK11          100      0       0      26        0.0%
BANK11             100      0       0      27        0.0%
BITBANK10          100      0       0      24        0.0%
BANK10             100      0       0      25        0.0%
BITBANK9           100      0       0      22        0.0%
BANK9              100      0       0      23        0.0%
BITBANK8           100      0       0      20        0.0%
BANK8              100      0       0      21        0.0%
BITBANK7           100      0       0      18        0.0%
BANK7              100      0       0      19        0.0%
BITBANK6           100      0       0      16        0.0%
BANK6              100      0       0      17        0.0%
BITBANK5           100      0       0      14        0.0%
BANK5              100      0       0      15        0.0%
BITBANK4           100      0       0      12        0.0%
BANK4              100      0       0      13        0.0%
BITBANK3           100      0       0      10        0.0%
BANK3              100      0       0      11        0.0%
BITBANK2           100      0       0       8        0.0%
BANK2              100      0       0       9        0.0%
BITBANK1           100      0       0       6        0.0%
BANK1              100      0       0       7        0.0%
BITBANK0            A0      0       0       4        0.0%
BANK0               A0     13      41       5       40.6%
BITCOMRAM           5F      0       0       0        0.0%
COMRAM              5F     19      52       1       86.3%
BITSFR_8             0      0       0     200        0.0%
SFR_8                0      0       0     200        0.0%
BITSFR_7             0      0       0     200        0.0%
SFR_7                0      0       0     200        0.0%
BITSFR_6             0      0       0     200        0.0%
SFR_6                0      0       0     200        0.0%
BITSFR_5             0      0       0     200        0.0%
SFR_5                0      0       0     200        0.0%
BITSFR_4             0      0       0     200        0.0%
SFR_4                0      0       0     200        0.0%
BITSFR_3             0      0       0     200        0.0%
SFR_3                0      0       0     200        0.0%
BITSFR_2             0      0       0     200        0.0%
SFR_2                0      0       0     200        0.0%
BITSFR_1             0      0       0     200        0.0%
SFR_1                0      0       0     200        0.0%
BITSFR               0      0       0     200        0.0%
SFR                  0      0       0     200        0.0%
STACK                0      0       0       2        0.0%
NULL                 0      0       0       0        0.0%
ABS                  0      0      93      58        0.0%
DATA                 0      0      93       3        0.0%
CODE                 0      0       0       0        0.0%


Microchip Technology PIC18 Macro Assembler V2.00 build -1524193055 
Symbol Table                                                                                   Tue Jan 29 18:24:32 2019

                         _LCD_Initialize 2C00                              __CFG_CP$OFF 000000  
                                     _ON 0011                   __end_of_verifyPassword 312A  
      __end_of_LCD_printInitialCountdown 2EE8                          _LCD_Cursor_Left 34C4  
                            __CFG_LVP$ON 000000                                      l241 26CA  
                                    l242 2720                                      l243 2776  
                                    l260 1722                                      l252 15B2  
                                    l244 2784                                      l261 1750  
                                    l253 15E0                                      l270 1920  
                                    l254 160E                                      l422 23E0  
                                    l271 196A                                      l255 163C  
                                    l247 1574                                      l239 266C  
                                    l431 24C4                                      l280 1B3A  
                                    l272 19B4                                      l256 166A  
                                    l440 2530                                      l432 24E4  
                                    l424 2424                                      l281 1B84  
                                    l273 19FE                                      l265 17AE  
                                    l257 1698                                      l425 2428  
                                    l282 1BCE                                      l274 1A48  
                                    l266 17F8                                      l258 16C6  
                                    l450 258C                                      l442 253E  
                                    l283 1C18                                      l267 1842  
                                    l259 16F4                                      l284 1C62  
                                    l268 188C                                      l460 25E8  
                                    l452 259A                                      l444 254C  
                                    l428 2440                                      l285 1CAC  
                                    l269 18D6                                      l437 2522  
                                    l429 2480                                      l286 1CF6  
                                    l278 1AA6                                      l462 260C  
                                    l454 25BE                                      l446 2570  
                                    l551 31D8                                      l287 1D40  
                                    l279 1AF0                                      l560 2DDE  
                                    l288 1D4E                                      l464 261A  
                                    l456 25CC                                      l448 257E  
                                    l561 2DBA                                      l730 3060  
                                    l466 2628                                      l458 25DA  
                                    l802 0596                                      l731 304C  
                                    l811 06AE                                      l580 2ADE  
                                    l468 2636                                      l900 0F94  
                                    l820 07B4                                      l812 06E0  
                                    l741 3120                                      l901 11B8  
                                    l590 2E9C                                      l822 07CC  
                                    l806 05EC                                      l583 29AC  
                                    l911 107C                                      l903 0FF8  
                                    l807 0668                                      l736 31AA  
                                    l920 10C6                                      l904 1092  
                                    l816 0938                                      l832 0892  
                                    l824 07DC                                      l585 2A26  
                                    l593 2EB6                                      l905 1040  
                                    l841 087A                                      l578 2A64  
                                    l738 31C0                                      l930 117E  
                                    l922 10E2                                      l826 07F0  
                                    l818 076C                                      l770 0082  
                                    l595 2EE6                                      l755 2BA4  
                                    l931 116E                                      l907 1058  
                                    l851 090E                                      l835 083A  
                                    l819 0806                                      l771 00D6  
                                    l588 2E6C                                      l756 2BB0  
                                    l924 10F2                                      l757 2BCC  
                                    l941 1312                                      l917 111E  
                                    l909 1068                                      l861 0A5A  
                                    l845 08F2                                      l837 0856  
                                    l758 2BD8                                      l942 12E4  
                                    l926 1106                                      l870 0BCE  
                                    l854 09CC                                      l846 08E2  
                                    l782 0708                                      l790 0568  
                                    l766 0008                                      l759 2BFA  
                                    l951 142A                                      l943 12F0  
                                    l855 099E                                      l839 0866  
                                    l775 0296                                      l952 1436  
                                    l936 119A                                      l768 0B12  
                                    l864 0AE4                                      l856 09AA  
                                    l792 044E                                      l776 026A  
                                    l945 13C2                                      l881 0D0E  
                                    l865 0AF0                                      l793 04CA  
                                    l785 033C                                      l769 02C8  
                                    l946 1362                                      l890 0F44  
                                    l874 0C64                                      l858 0A7C  
                                    l786 03AC                                      l939 1292  
                                    l891 0E46                                      l867 0DF6  
                                    l883 0D60                                      l859 0A1C  
                                    l948 13A0                                      l892 0E9A  
                                    l868 0C6C                                      l869 0B6E  
                                    l797 0510                                      l894 0F28  
                                    l886 0DC8                                      l798 0542  
                                    l887 0DD4                                      l879 0CBC  
                                    l889 1458                                      _OFF 0041  
                                    _ISR 28AC               __size_of_BEEPER_Initialize 0046  
                         _isPasswordTrue 004B                  __size_of_PMD_Initialize 0024  
                                    wreg 003FE8                         _LCD_Cursor_Right 34BC  
                  keypadRead@flagPressed 0088                     __end_ofi2_serialSend 34AC  
                   __end_ofi2_normalBeep 345E                            __CFG_BBEN$OFF 000000  
                        __end_of_LCD_Cmd 3396                                     ?_ISR 0022  
                           __CFG_ZCD$OFF 000000                           _LCD_Set_Cursor 31C2  
                                   l1162 2D42                                     l1163 2D1E  
                                   l1830 2D68                                     l1831 2D60  
                                   l1838 2F8A                                     l1839 2F86  
                                   l6127 2E5C                                     l7103 07FE  
                                   l7015 0668                                     l7201 099E  
                                   l7041 06F6                                     l7107 0806  
                                   l6413 2720                                     l7125 084C  
                                   l6407 26CA                                     l7223 0A1C  
                                   l7119 0836                                     l7039 06F6  
                                   l7233 0A5A                                     l7081 07C4  
                                   l6419 2776                                     l6523 2424  
                                   l7251 0AE4                                     l7171 08F2  
                                   l7317 0C64                                     l7149 0892  
                                   l6623 2EA6                                     l7271 0B6E  
                                   l6537 2480                                     l6721 2BFA  
                                   l7521 1092                                     l7433 0F28  
                                   l7409 0E9A                                     l6555 24E4  
                                   l7179 091C                                     l6549 24C4  
                                   l6645 319A                                     l7533 10C2  
                                   l7517 108A                                     l7429 0F18  
                                   l6569 2A54                                     l7377 0DC8  
                                   l7289 0BCE                                     l6761 0082  
                                   l7643 12E4                                     l7539 10D8  
                                   l7563 111E                                     l7395 0E46  
                                   l6599 299C                                     l7495 1050  
                                   l6775 00D6                       _resetPasswordEntry 3192  
                                   l7665 1362                                     l7593 11A8  
                                   l7585 117E                                     l6961 0558  
                                   l6937 04CA                                     l7675 13A0  
                                   l6963 0558                                     l7693 142A  
                                   l6887 03AC                                     l6975 0596  
                                   l6977 05A4                                     STR_1 FFF7  
                                   STR_2 FFAE                                     STR_3 FF8C  
                                   STR_4 FFE7                                     STR_5 FF94  
                                   STR_6 FF8C                                     STR_7 FFDE  
                                   STR_8 FF94                                     STR_9 FF9D  
                                   _LATA 003FBA                                     _LATB 003FBB  
                                   _LATC 003FBC                                     _LATD 003FBD  
                                   _LATE 003FBE                                     _T2PR 003FAB  
                                   _PMD0 0039C0                                     _PMD1 0039C1  
                                   u7030 1764                                     _PMD2 0039C2  
                                   _PMD3 0039C3                                     _PMD4 0039C4  
                                   _PMD5 0039C5                                     _PMD6 0039C6  
                                   _PMD7 0039C7                                     u7150 1A5C  
                                   u7330 24F4                                     u9010 1164  
                                   u9100 12AE                                     u8220 0956  
                                   u7501 003C                                     u7270 23FE  
                                   u9110 12B0                                     u8230 0958  
                                   u8150 08D8                                     u7510 0056  
                                   u7440 2B96                                     u9200 13E4  
                                   u8240 0968                                     u7600 00FC  
                                   u8401 0B54                                     u7521 0068  
                                   u6810 2DA4                                     u9210 13F4  
                                   u8330 0A9C                                     u8250 096A  
                                   u7611 013E                                     u6820 266A  
                                   u9220 13F6                                     u8500 0C84  
                                   u8340 0A9E                                     u7700 0378  
                                   u6910 1584                                     u6830 26AC  
                                   u7470 2BF4                                     u8350 0AAE  
                                   u7631 02A2                                     u6840 26DA  
                                   u8600 0D80                                     u8360 0AB0  
                                   u7800 04F0                                     u7640 02DE  
                                   u9241 1464                                     u6850 26EA  
                                   u8610 0D82                                     u8450 0B8E  
                                   u7730 03D2                                     u7570 00A2  
                                   u7731 03D0                                     u9307 01C0  
                                   u6860 2730                                     u8620 0D92  
                                   u7820 0542                                     u8381 0B1E  
                                   u7741 0414                                     u9317 01F4  
                                   _NONE 003D                                     u6870 2740  
                                   u9190 13E2                                     u8630 0D94  
                                   u8390 0B42                                     u9407 0D4A  
                                   u9327 0228                                     u8720 0E66  
                                   u8480 0BF8                                     u7920 068E  
                                   u9417 0DE0                                     u8481 0BF4  
                                   u9337 025C                                     u6890 1572  
                                   u7850 05A4                                     u7770 048A  
                        _stanbyPageReset 2FBE                                     u9507 14DA  
                                   u9427 0ECC                                     u8651 0E02  
                                   u9347 02B4                                     u8660 0E1A  
                                   u7940 06E0                                     u9517 14FA  
                                   u9437 1214                                     u9357 03DA  
                                   u8750 0EC0                                     u7950 0706  
                                   u9607 24B0                                     u9527 151A  
                                   u9447 1234                                     u8751 0EBC  
                                   u8671 0E2C                                     u9367 09B6  
                                   u9287 0124                                     u9617 24D2  
                                   u9537 153A                                     u9457 1254  
                                   u9377 0A66                                     u9297 018C  
                                   u7890 0628                                     u9707 29DA  
                                   u9627 2554                                     u9547 2C12  
                                   u9467 1274                                     u8771 0F34  
                                   u9387 0AFC                                     u8780 0F5C  
                                   u9717 2A12                                     u9637 25A2  
                                   u9557 2C28                                     u9477 12FC  
                                   u9397 0CF8                                     u9727 2A92  
                                   u9647 25F0                                     u9567 2C3C  
                                   u9487 13AC                                     u9737 2ACA  
                                   u9657 263E                                     u9577 2C52  
                                   u9497 1442                                     u9747 32C8  
                                   u9667 332C                                     u9587 2D36  
                                   u9757 338A                                     u9677 308C  
                                   u9597 2446                                     u9687 30A6  
                                   u9697 334A                                     _TRUE 000F  
                                   _WPUA 003A41                                     _WPUD 003A71  
                          __CFG_FCMEN$ON 000000                        ?_LCD_Write_String 002F  
                                   _main 0000                                     _mode 0052  
                     __size_of_LCD_Clear 0020                                     fsr1h 003FE2  
                                   fsr2h 003FDA                                     indf1 003FE7  
                                   indf2 003FDF                                     fsr1l 003FE1  
                                   fsr2l 003FD9                        _disarmedPageReset 3000  
                                   start 001A                       ??_LCD_Write_String 0031  
                    ?_resetPasswordEntry 0022                       ?_disarmedPageReset 0022  
                 __end_of_LCD_Initialize 2C86                            __CFG_CSWEN$ON 000000  
            ??_countdown_initial_str2num 002E                             ___param_bank 000000  
                   keypadRead@keyPressed 008D         ??_countdown_now_reset_to_initial 002E  
        ?_countdown_now_reset_to_initial 0022                                    ??_ISR 002A  
                 __size_of_countdownStop 0006                       __size_ofi2_LCD_Cmd 001C  
                        ?_verifyPassword 0034                      ??_disarmedPageReset 0038  
         __size_of_OSCILLATOR_Initialize 0018            __end_of_OSCILLATOR_Initialize 33FE  
                                  ?_main 0022                                    STR_10 FFD5  
                                  STR_11 FFF0                                    STR_12 FFCC  
                                  STR_20 FEE2                                    STR_13 FFF0  
                                  STR_21 FEF3                                    STR_30 FF04  
                                  STR_14 FF7B                                    STR_22 FF59  
                                  STR_31 FF37                                    STR_23 FF6A  
                                  STR_15 FF15                                    STR_32 FEE2  
                                  STR_16 FF15                                    STR_24 FF48  
                                  STR_33 FEF3                                    STR_25 FF48  
                                  STR_17 FFBF                            __CFG_WDTE$OFF 000000  
                                  STR_34 FF59                                    STR_26 FF59  
                                  STR_18 FF04                                    STR_35 FF6A  
                                  STR_27 FF6A                                    STR_19 FF37  
                                  STR_36 FED1                                    STR_28 FF26  
                                  STR_29 FED1                                    _FALSE 003F  
                                  _T1CLK 003FB5                                    _T1CON 003FB2  
                         __CFG_DEBUG$OFF 000000                                    i2l112 28DC  
                                  i2l114 2908                                    _U1TXB 003DEA  
                                  i2l300 1E54                                    i2l116 2956  
                                  i2l301 1E80                                    i2l117 2956  
                                  i2l310 1FB0                                    i2l302 1EAC  
                                  i2l150 2B6E                                    i2l311 1FE8  
                                  i2l303 1ED8                                    i2l312 2020  
                                  i2l304 1F04                                    i2l313 2058  
                                  i2l305 1F30                                    i2l330 2378  
                                  i2l322 21BA                                    i2l314 2090  
                                  i2l331 23B0                                    i2l323 21F0  
                                  i2l315 20C8                                    i2l147 2B00  
                                  i2l324 2228                                    i2l316 2100  
                                  i2l332 23BE                                    i2l340 27CE  
                                  i2l325 2260                                    i2l317 2138  
                                  i2l309 1F7A                                    i2l149 2B34  
                                  i2l326 2298                                    i2l318 2170  
                                  i2l342 27FE                                    i2l327 22D0  
                                  i2l343 2826                                    i2l335 2796  
                                  i2l328 2308                                    i2l329 2340  
                                  i2l345 2856                                    i2l337 27AE  
                                  i2l291 1D6C                                    i2l347 288E  
                                  i2l339 27E6                                    i2l348 28A2  
                                  i2l551 3206                                    i2l296 1DA6  
                                  i2l560 2E30                                    i2l297 1DD0  
                                  i2l561 2E0C                                    i2l298 1DFC  
                                  i2l299 1E28                                    i2l590 2F30  
                                  i2l588 2F00                     ??_resetPasswordEntry 002E  
                                  _OSCEN 0039DD                                    _TMR0H 003FB7  
                                  _TMR1H 003FB1                                    _TMR0L 003FB6  
                                  _TMR1L 003FB0                                    _TRISC 003FC4  
                                  _TRISD 003FC5                          __end_of_endBeep 2B78  
                        __end_of_armBeep 335C            __size_of_countdown_drop_timer 0126  
                 __end_of_LCD_Set_Cursor 31F0                            __CFG_WRTB$OFF 000000  
                          __CFG_WRTC$OFF 000000                            __CFG_WRTD$OFF 000000  
                                  _armed 001F                       __CFG_MCLRE$EXTMCLR 000000  
                                  _setup 33B2                                    main@i 0091  
               __end_ofi2_LCD_Set_Cursor 321E                                    tablat 003FF5  
              __end_of_disarmedPageReset 3042                    keypadRead@keyHoldTime 0086  
                                  status 003FD8                             ?_longLowBeep 0022  
               ??_LCD_resetPasswordEntry 0035                  __end_of_LCD_Cursor_Left 34CC  
                      keypadRead@keyHeld 008C                          ?_LCD_Initialize 0022  
                         _LCD_Write_Char 32B6                          __initialization 2C86  
                     main@cursorPos_1259 0097                             __end_of_main 1558  
                         __CFG_SAFEN$OFF 000000                                   ??_main 008F  
                __size_of_countdownStart 000E                           __CFG_PR1WAY$ON 000000  
                      __end_of_LCD_Clear 333C                            __activetblptr 000002  
                     verifyPassword@pass 0036                                ??_LCD_Cmd 002E  
                     verifyPassword@user 0034                  __end_of_stanbyPageReset 3000  
                          _userPswdEntry 0099                _countdown_initial_str2num 1558  
                       _UART1_Initialize 321E                          ?_LCD_Set_Cursor 002F  
                          _countdownMode 0051                            _countdownStop 34CC  
                                 ?_setup 0022                                   _ANSELD 003A70  
                                 _U1BRGH 003DF6                                   _U1BRGL 003DF5  
                                 _RA1PPS 003A01                                   _RC1PPS 003A11  
                      __end_ofi2_LCD_Cmd 33B2                                   _ODCONA 003A42  
                                 _ODCOND 003A72                                   i2l2109 2B1C  
                         __CFG_WDTCCS$SC 000000                                   i2l2099 2AF0  
                                 i2l4527 27CE                                   i2l4539 27FE  
                                 i2l4495 2EF0                                   i2l4973 2908  
                                 _OSCFRQ 0039DF                                   i2u8_40 2B1C  
                 __end_of_LCD_Write_Char 32D8                            main@cursorPos 0095  
                         __CFG_XINST$OFF 000000                             ?_serialPrint 0034  
               __size_ofi2_countdownStop 0006                             _CCPTMRS1bits 003F5F  
              __CFG_RSTOSC$HFINTOSC_1MHZ 000000                             ?_normalBlink 0022  
               __end_ofi2_LCD_Write_Char 32FA                           __CFG_STVREN$ON 000000  
                    i2LCD_Write_String@f 0023                      i2LCD_Write_String@i 0027  
            ??_LCD_printInitialCountdown 0034                      _LCD_Cursor_Blink_On 34AC  
                                 clear_0 2CD0                                   clear_1 2CDC  
                              ??_endBeep 0022                                ??_armBeep 002E  
                  __size_ofi2_serialSend 000A                           _passwordChange 0047  
                                 _stanby 0043           __size_of_LCD_printNowCountdown 004A  
                                 _status 0045                    __size_ofi2_normalBeep 0012  
                                 _strcmp 2D5E                                   _strlen 2F78  
          __end_of_LCD_printNowCountdown 2E9E                           _PMD_Initialize 3270  
                           __pdataCOMRAM 0001                             __mediumconst FED0  
                                 tblptrh 003FF7                                   tblptrl 003FF6  
                                 tblptru 003FF8                           ?_countdownStop 0022  
                        LCD_Set_Cursor@c 002F                          LCD_Set_Cursor@d 0031  
          __size_of_COUNTDOWN_Initialize 0022            __size_of_INTERRUPT_Initialize 000C  
                   ?_LCD_Cursor_Blink_On 0022               __size_of_disarmedPageReset 0042  
                      _SYSTEM_Initialize 33CC                               __accesstop 0060  
                __end_of__initialization 2CEE                        _KEYPAD_Initialize 335C  
           __end_of_LCD_Cursor_Blink_Off 34BC                       ?_SYSTEM_Initialize 0022  
                          ___rparam_used 000001                          ?_LCD_Write_Char 0022  
                     ?_KEYPAD_Initialize 0022                 __end_of_LCD_Cursor_Right 34C4  
                           ?_veryLowBeep 0022                         ?_LCD_Cursor_Left 0022  
        __size_of_LCD_resetPasswordEntry 0036                             i2_serialSend 34A2  
               ?i2_LCD_printNowCountdown 0022                           __pcstackCOMRAM 0022  
                           i2_normalBeep 344C                             __pidataBANK0 324A  
                    ??_SYSTEM_Initialize 002E                         i2serialSend@word 0022  
      __size_of_CONFIGURATION_Initialize 0002                            __end_of_setup 33CC  
                  _countdown_now_num2str 1D50                      ??_KEYPAD_Initialize 002E  
              ?_CONFIGURATION_Initialize 0022              __size_ofi2_LCD_Write_String 0052  
                 __end_of_PMD_Initialize 3294                        i2LCD_Write_Char@e 0022  
                _numCountdownInitialTime 0060                         ?_stanbyPageReset 0022  
              __end_of_SYSTEM_Initialize 33E6                          __CFG_IVT1WAY$ON 000000  
              _LCD_printInitialCountdown 2E9E                                  ??_setup 0030  
                  ??_LCD_Cursor_Blink_On 002F                               __pbssBANK0 0099  
              __end_of_KEYPAD_Initialize 337A                          __CFG_MVECEN$OFF 000000  
                                IVTBASEH 003FD6                                  IVTBASEL 003FD5  
                                IVTBASEU 003FD7                         ??_verifyPassword 0038  
                   __size_of_longLowBeep 0016                          __CFG_PPS1WAY$ON 000000  
                   i2LCD_Set_Cursor@temp 0027                           _countdownBeeps 0017  
              __size_of_LCD_Write_String 0052                        ??i2_countdownStop 0022  
                         _countdownStart 347E                          ?_PMD_Initialize 0022  
                                ?_strcmp 002E                                  ?_strlen 002E  
                             _disarmBeep 307E                                  _LCD_Cmd 337A  
                    __CFG_PWRTS$PWRT_OFF 000000                                  _U1RXPPS 003AE5  
                     __size_of_quickBeep 0012                          ??_countdownStop 002E  
                 _LCD_resetPasswordEntry 312A                                  _OSCCON1 0039D9  
                                _OSCCON3 0039DB                                  i2u10_40 2B6E  
 __end_of_countdown_now_reset_to_initial 2786  __size_of_countdown_now_reset_to_initial 0136  
         _countdown_now_reset_to_initial 2650                                  _OSCTUNE 0039DE  
                                _PWM5DCH 003F6D                                  _PWM5DCL 003F6C  
                      ?i2_LCD_Set_Cursor 0023                         ??_LCD_Initialize 002F  
     __size_of_countdown_initial_str2num 07F8          __end_ofi2_LCD_printNowCountdown 2F32  
                __size_of_armedPageReset 003A                       ??i2_LCD_Set_Cursor 0027  
               ??_verifyInterfaceOptions 002F             __end_of_countdown_drop_timer 28AC  
                                __Hparam 0000                   countdown_now_num2str@i 0024  
                             _keyPressed 004F                                  __Lparam 0000  
               __end_of_UART1_Initialize 324A                              resetEntry@i 0036  
                 ?_countdown_now_num2str 0022                     __size_of_serialPrint 0066  
                 __end_of_countdownStart 348C                 ??_ADC_MANAGER_Initialize 002E  
                   __size_of_normalBlink 0010                                  _endBeep 2AE0  
                                _armBeep 333C                                  __pcinit 2C86  
                                __ramtop 2000                               _keypadRead 23C0  
                             _keypadScan 250E                         ??_LCD_Set_Cursor 0033  
                                __ptext0 0000                                  __ptext1 30F2  
                                __ptext2 2D5E                                  __ptext3 2B78  
                                __ptext4 34AC                                  __ptext5 2FBE  
                                __ptext6 33B2                                  __ptext7 321E  
                                __ptext8 33CC                                  __ptext9 3270  
                                _keyHeld 0050                          __CFG_WRTAPP$OFF 000000  
                        __size_of_strcmp 0052                          __size_of_strlen 0046  
                           __size_of_ISR 00C4                                _T2CLKbits 003FAE  
                              _T1CONbits 003FB2                    _OSCILLATOR_Initialize 33E6  
                              _T2CONbits 003FAC              __size_of_resetPasswordEntry 0030  
                   _LCD_Cursor_Blink_Off 34B4                 ??_PIN_MANAGER_Initialize 002E  
                        __CFG_WRTSAF$OFF 000000                                _LCD_Clear 331C  
                         serialSend@word 002E               __size_of_SYSTEM_Initialize 001A  
                   end_of_initialization 2CEE               __size_of_KEYPAD_Initialize 001E  
                          __Lmediumconst FED0                           serialPrint@len 0037  
                    resetPasswordEntry@i 002E                                i2_LCD_Cmd 3396  
      __end_of_countdown_initial_str2num 1D50                               _resetEntry 3042  
                      __end_of_quickBeep 343A                               _serialSend 3498  
                             _normalBeep 343A                                  postdec1 003FE5  
        countdown_now_reset_to_initial@i 0032                                  postdec2 003FDD  
                                postinc0 003FEE                                  postinc1 003FE6  
                                postinc2 003FDE                        ?i2_LCD_Write_Char 0022  
                   __size_of_veryLowBeep 0014                          ?_countdownStart 0022  
                                strcmp@r 0033                    __CFG_WDTCPS$WDTCPS_31 000000  
                                strlen@s 002E                       ??i2_LCD_Write_Char 0022  
                              _PORTBbits 003FCB                               _quickBlink 345E  
                            ?_disarmBeep 0022                    ?_LCD_Cursor_Blink_Off 0022  
                              _TRISAbits 003FC2                                _TRISBbits 003FC3  
                              _TRISCbits 003FC4                               ?_LCD_Clear 0022  
                             main@i_1238 0093                         __CFG_FEXTOSC$OFF 000000  
                      LCD_Write_String@f 002F                        LCD_Write_String@i 0033  
                       ??_LCD_Write_Char 002E         __end_of_CONFIGURATION_Initialize 34DA  
                             ?i2_LCD_Cmd 0022          __size_of_verifyInterfaceOptions 0088  
                 LCD_printNowCountdown@i 0034                        ?_LCD_Cursor_Right 0022  
           __end_of_COUNTDOWN_Initialize 32B6             __end_of_INTERRUPT_Initialize 3498  
                     ??_LCD_Cursor_Right 002F          __size_of_ADC_MANAGER_Initialize 0002  
                       _LCD_Write_String 2DB0                            __pidataCOMRAM 32FA  
                            ?_keypadRead 0031                              ?_keypadScan 002E  
                 ?_OSCILLATOR_Initialize 0022               LCD_printInitialCountdown@i 0034  
                         __end_of_strcmp 2DB0                           __end_of_strlen 2FBE  
       __size_ofi2_LCD_printNowCountdown 004A                      start_initialization 2C86  
                   _countdown_drop_timer 2786                    _LCD_printNowCountdown 2E54  
                            __end_of_ISR 2970          __size_of_PIN_MANAGER_Initialize 0032  
                           _keyIterrator 004D               countdown_initial_str2num@i 0032  
                       keypadRead@output 008A                               ivt0x8_base 0008  
                         _armedPageReset 30B8                              ?_resetEntry 0034  
                    __size_of_disarmBeep 003A                          i2_countdownStop 34D2  
                       __CFG_LPBOREN$OFF 000000                              ?_serialSend 0022  
                            ?_normalBeep 0022                         ??_PMD_Initialize 002E  
             __end_ofi2_LCD_Write_String 2E54                              __pdataBANK0 0060  
                     LCD_printAccepted@i 0037                          LCD_Write_Char@e 002E  
                 ??_LCD_Cursor_Blink_Off 002F                 __size_of_LCD_Cursor_Left 0008  
                ?_LCD_resetPasswordEntry 0022                                 ??_strcmp 0032  
                               ??_strlen 0030                              ?_quickBlink 0022  
                 _verifyInterfaceOptions 2B78                            resetEntry@str 0034  
                               ?_LCD_Cmd 0022                    ?_countdown_drop_timer 0022  
            __end_of_LCD_Cursor_Blink_On 34B4                              __pbssCOMRAM 003B  
                               LCD_Cmd@b 002E                            __pcstackBANK0 0086  
                            ??_LCD_Clear 002E                   _ADC_MANAGER_Initialize 34DA  
                 __end_of_armedPageReset 30F2                       LCD_printDeclined@i 0037  
                         _cursorBlinkMem 0013                 __size_of_stanbyPageReset 0042  
                    __size_of_keypadRead 014E                      __size_of_keypadScan 0142  
                           endBeep@i_538 0025                            ??_longLowBeep 002E  
                            ??i2_LCD_Cmd 0022                        serialPrint@string 0034  
                              _alarmMode 0021                  ??_countdown_now_num2str 0022  
                 _PIN_MANAGER_Initialize 3160                 _CONFIGURATION_Initialize 34D8  
                      ?_UART1_Initialize 0022                            __pmediumconst FED0  
                     ??_UART1_Initialize 002E                             _keypadOutput 003B  
              __size_ofi2_LCD_Set_Cursor 002E           __end_of_LCD_resetPasswordEntry 3160  
                               ?_endBeep 0022                                 ?_armBeep 0022  
                 __CFG_BBSIZE$BBSIZE_512 000000                   ?_LCD_printNowCountdown 0022  
                    _strCountdownNowTime 0076                      __size_of_resetEntry 003C  
                    __size_of_serialSend 000A                    __end_of_countdownStop 34D2  
                    __size_of_normalBeep 0012                           __size_of_setup 001A  
                   _COUNTDOWN_Initialize 3294                  __end_ofi2_countdownStop 34D8  
                   _INTERRUPT_Initialize 348C                          ?_armedPageReset 0022  
                               _LATAbits 003FBA                                 _LATBbits 003FBB  
                               _LATCbits 003FBC                                 _PIE0bits 003990  
                               _IPR3bits 003983                                 _PIE3bits 003993  
                               _PIE4bits 003994                      __size_of_quickBlink 0010  
                    __CFG_BORV$VBOR_2P45 000000                         ??_countdownStart 002E  
                          ??_serialPrint 0036                                 i2u351_40 1F44  
                               i2u337_40 1D6A                                 i2u363_40 2184  
                               i2u339_40 1D7C                                 _PIR3bits 0039A3  
                               _PIR4bits 0039A4                            ??_normalBlink 002E  
                               i2u980_47 2B52                                 i2u976_47 32EA  
                               i2u977_47 33A6                                 i2u978_47 2B0C  
                               i2u979_47 2B3E                      __end_of_longLowBeep 3414  
                      _LCD_printAccepted 2A28                                _quickBeep 3428  
                     ?_LCD_printAccepted 0022               __end_of_resetPasswordEntry 31C2  
                            _keyBeepsMem 0074                        _LCD_printDeclined 2970  
                      _countdownBeepsMem 0015                             ??_disarmBeep 002E  
                 ??_countdown_drop_timer 002A                  __size_of_verifyPassword 0038  
                i2_LCD_printNowCountdown 2EE8                       ?_LCD_printDeclined 0022  
                       __size_of_LCD_Cmd 001C                      ??_LCD_printAccepted 0035  
                      ??_LCD_Cursor_Left 002F                __size_ofi2_LCD_Write_Char 0022  
                    _numCountdownNowTime 0001                              _INTCON0bits 003FD2  
                  ?_COUNTDOWN_Initialize 0022                                copy_data0 2C9A  
                              copy_data1 2CBC                      ??_LCD_printDeclined 0035  
                  ?_INTERRUPT_Initialize 0022                 __end_of_LCD_Write_String 2E02  
                               __Hrparam 0000                            ??_veryLowBeep 002E  
                     __end_of_disarmBeep 30B8               ?_countdown_initial_str2num 0022  
                          ?i2_serialSend 0022                                 __Lrparam 0000  
              __end_of_LCD_printAccepted 2AE0                            ?i2_normalBeep 0022  
                      ??_stanbyPageReset 0038                       __CFG_BOREN$SBORDIS 000000  
                ??_OSCILLATOR_Initialize 002E                  __size_of_LCD_Initialize 0086  
                             ?_quickBeep 0022                __end_of_LCD_printDeclined 2A28  
                    __end_of_serialPrint 2D5E                             ??_keypadRead 0033  
                           ??_keypadScan 0030                      __end_of_normalBlink 347E  
                       __size_of_endBeep 0098                         __size_of_armBeep 0020  
                             _ANSELBbits 003A50                               _T0CON0bits 003FB8  
                             _T0CON1bits 003FB9                               i2LCD_Cmd@b 0022  
                               _gameMode 000D                __size_of_LCD_Cursor_Right 0008  
                               __pivt0x8 0008                        _BEEPER_Initialize 2F32  
                               __ptext10 3160                                 __ptext11 33E6  
                               __ptext20 3498                                 __ptext12 348C  
                               __ptext21 3192                                 __ptext13 34D8  
                               __ptext30 331C                                 __ptext22 23C0  
                               __ptext14 34DA                                 __ptext31 307E  
                               __ptext23 345E                                 __ptext15 2C00  
                               __ptext40 333C                                 __ptext32 2650  
                               __ptext24 3428                                 __ptext16 335C  
                               __ptext41 3414                                 __ptext33 1558  
                               __ptext25 346E                                 __ptext17 3294  
                               __ptext50 34BC                                 __ptext42 2E9E  
                               __ptext34 34CC                                 __ptext26 343A  
                               __ptext18 2F32                                 __ptext51 34C4  
                               __ptext43 2970                                 __ptext35 347E  
                               __ptext27 250E                                 __ptext19 2CF8  
                               __ptext60 32D8                                 __ptext52 337A  
                               __ptext44 2A28                                 __ptext36 30B8  
                               __ptext28 3000                                 __ptext61 31F0  
                               __ptext53 28AC                                 __ptext45 33FE  
                               __ptext37 3042                                 __ptext29 2E54  
                               __ptext62 3396                                 __ptext54 2E02  
                               __ptext46 2DB0                                 __ptext38 2F78  
                               __ptext63 2AE0                                 __ptext55 2786  
                               __ptext47 32B6                                 __ptext39 312A  
                               __ptext64 1D50                                 __ptext56 34A2  
                               __ptext48 31C2                                 __ptext57 344C  
                               __ptext49 34B4                                 __ptext58 34D2  
                               __ptext59 2EE8                                 _disarmed 001D  
                             _U1CON0bits 003DF2                       ?_BEEPER_Initialize 0022  
                             _U1CON1bits 003DF3                  __size_of_LCD_Set_Cursor 002E  
                               _keyBeeps 0019                         ?i2_countdownStop 0022  
                          __size_of_main 1558                                 endBeep@i 0023  
                    ??_BEEPER_Initialize 002E                                 _exploded 001B  
                           ??_resetEntry 0036                       __end_of_keypadRead 250E  
                     __end_of_keypadScan 2650                     __CFG_WDTCWS$WDTCWS_7 000000  
                            _longLowBeep 33FE                           ??i2_serialSend 0022  
                               _password 007E                             serialPrint@i 0039  
                           ??_serialSend 002E                           ??i2_normalBeep 0022  
                           ??_normalBeep 002E                         i2_LCD_Set_Cursor 31F0  
                ?_verifyInterfaceOptions 0022                ??i2_LCD_printNowCountdown 0028  
                    __end_of_veryLowBeep 3428                             ??_quickBlink 002E  
              __end_of_BEEPER_Initialize 2F78                       i2_LCD_Write_String 2E02  
                ?_ADC_MANAGER_Initialize 0022                       __end_of_resetEntry 307E  
                 ??_COUNTDOWN_Initialize 002E                   ??_INTERRUPT_Initialize 002E  
                            _PWM5CONbits 003F6E                       __end_of_serialSend 34A2  
                     __end_of_normalBeep 344C                                 intlevel2 0000  
                    ?i2_LCD_Write_String 0023               ??_CONFIGURATION_Initialize 002E  
                      i2LCD_Set_Cursor@c 0023                        i2LCD_Set_Cursor@d 0025  
                ?_PIN_MANAGER_Initialize 0022                 i2LCD_printNowCountdown@i 0028  
                      __CFG_CLKOUTEN$OFF 000000                       __end_of_quickBlink 346E  
                            _serialPrint 2CF8               __size_of_LCD_printAccepted 00B8  
         __size_of_countdown_now_num2str 0670                  __size_of_LCD_Write_Char 0022  
                            _normalBlink 346E            __end_of_countdown_now_num2str 23C0  
         __end_of_verifyInterfaceOptions 2C00       __size_of_LCD_printInitialCountdown 004A  
             ?_LCD_printInitialCountdown 0022                              ??_quickBeep 002E  
             __size_of_LCD_printDeclined 00B8                       LCD_Set_Cursor@temp 0033  
                   ??i2_LCD_Write_String 0025                            keypadRead@key 008E  
                ??_LCD_printNowCountdown 0034                           _verifyPassword 30F2  
                            _timerChange 0049                                 strcmp@s1 002E  
                               strcmp@s2 0030           __end_of_ADC_MANAGER_Initialize 34DC  
          __size_of_LCD_Cursor_Blink_Off 0008                                 strlen@cp 0032  
                       ??_armedPageReset 0038                __size_of_UART1_Initialize 002C  
                       i2_LCD_Write_Char 32D8                  _strCountdownInitialTime 006C  
         __end_of_PIN_MANAGER_Initialize 3192             __size_of_LCD_Cursor_Blink_On 0008  
                            _veryLowBeep 3414  
